 Fluid3D

 Timestamp is 530f6ccf (Thu Feb 27 11:50:23 2014)

 Preferred load address is 00400000

 Start         Length     Name                   Class
 0001:00000000 0001656eH .textbss                DATA
 0002:00000000 0002e708H .text                   CODE
 0002:0002e710 00002687H .text$x                 CODE
 0002:00030da0 000015a0H .text$yc                CODE
 0002:00032340 00001235H .text$yd                CODE
 0003:00000000 00000104H .CRT$XCA                DATA
 0003:00000104 00000104H .CRT$XCAA               DATA
 0003:00000208 00000104H .CRT$XCL                DATA
 0003:0000030c 00000166H .CRT$XCU                DATA
 0003:00000474 00000104H .CRT$XCZ                DATA
 0003:00000578 00000104H .CRT$XIA                DATA
 0003:0000067c 00000104H .CRT$XIAA               DATA
 0003:00000780 00000109H .CRT$XIC                DATA
 0003:0000088c 00000104H .CRT$XIY                DATA
 0003:00000990 00000104H .CRT$XIZ                DATA
 0003:00000aa0 000015cdH .rdata                  DATA
 0003:00002070 00000194H .rdata$debug            DATA
 0003:00002204 00000cd9H .rdata$r                DATA
 0003:00002ee0 00000104H .rtc$IAA                DATA
 0003:00002fe4 00000104H .rtc$IZZ                DATA
 0003:000030e8 00000104H .rtc$TAA                DATA
 0003:000031ec 00000104H .rtc$TZZ                DATA
 0003:000032f0 00001bb5H .xdata$x                DATA
 0003:00004ea5 00000000H .edata                  DATA
 0004:00000000 00000792H .data                   DATA
 0004:00000798 0000083cH .bss                    DATA
 0005:00000000 00000078H .idata$2                DATA
 0005:00000078 00000014H .idata$3                DATA
 0005:0000008c 00000554H .idata$4                DATA
 0005:000005e0 00000554H .idata$5                DATA
 0005:00000b34 000021a5H .idata$6                DATA
 0006:00000000 00000169H .rsrc$01                DATA
 0006:00000170 000002ccH .rsrc$02                DATA

  Address         Publics by Value              Rva+Base       Lib:Object

 0000:00000000       __except_list              00000000     <absolute>
 0000:00000000       ___safe_se_handler_table   00000000     <absolute>
 0000:00000000       ___safe_se_handler_count   00000000     <absolute>
 0000:00009876       __fltused                  00009876     <absolute>
 0000:00009876       __ldused                   00009876     <absolute>
 0000:00000000       ___ImageBase               00400000     <linker-defined>
 0001:00000000       __enc$textbss$begin        00401000     <linker-defined>
 0001:0001656e       __enc$textbss$end          0041756e     <linker-defined>
 0002:000032d0       ??$?0M@?$Vec@$02H@@QAE@ABU?$Vec@$02M@@@Z 0041b2d0 f i fluidsim.obj
 0002:00003330       ??$?5DU?$char_traits@D@std@@@std@@YAAAV?$basic_istream@DU?$char_traits@D@std@@@0@AAV10@AAD@Z 0041b330 f i fluidsim.obj
 0002:000034b0       ??$?6$02M@@YAAAV?$basic_ostream@DU?$char_traits@D@std@@@std@@AAV01@ABU?$Vec@$02M@@@Z 0041b4b0 f i fluidsim.obj
 0002:00003540       ??$?6DU?$char_traits@D@std@@V?$allocator@D@1@@std@@YAAAV?$basic_ostream@DU?$char_traits@D@std@@@0@AAV10@ABV?$basic_string@DU?$char_traits@D@std@@V?$allocator@D@2@@0@@Z 0041b540 f i fluidsim.obj
 0002:00003920       ??$?6U?$char_traits@D@std@@@std@@YAAAV?$basic_ostream@DU?$char_traits@D@std@@@0@AAV10@D@Z 0041b920 f i fluidsim.obj
 0002:00003d60       ??$?6U?$char_traits@D@std@@@std@@YAAAV?$basic_ostream@DU?$char_traits@D@std@@@0@AAV10@PBD@Z 0041bd60 f i fluidsim.obj
 0002:000041f0       ??$?8DU?$char_traits@D@std@@V?$allocator@D@1@@std@@YA_NABV?$basic_string@DU?$char_traits@D@std@@V?$allocator@D@2@@0@0@Z 0041c1f0 f i fluidsim.obj
 0002:00004230       ??$?8II@std@@YA_NABV?$allocator@I@0@0@Z 0041c230 f i fluidsim.obj
 0002:00004250       ??$?8NN@std@@YA_NABV?$allocator@N@0@0@Z 0041c250 f i fluidsim.obj
 0002:00004270       ??$?8V?$_Vector_iterator@V?$_Vector_val@U?$_Simple_types@I@std@@@std@@@std@@V01@@std@@YA_NABV?$move_iterator@V?$_Vector_iterator@V?$_Vector_val@U?$_Simple_types@I@std@@@std@@@std@@@0@0@Z 0041c270 f i fluidsim.obj
 0002:000042a0       ??$?8V?$_Vector_iterator@V?$_Vector_val@U?$_Simple_types@N@std@@@std@@@std@@V01@@std@@YA_NABV?$move_iterator@V?$_Vector_iterator@V?$_Vector_val@U?$_Simple_types@N@std@@@std@@@std@@@0@0@Z 0041c2a0 f i fluidsim.obj
 0002:000042d0       ??$?8V?$allocator@I@std@@V01@@std@@YA_NABU?$_Wrap_alloc@V?$allocator@I@std@@@0@0@Z 0041c2d0 f i fluidsim.obj
 0002:00004310       ??$?8V?$allocator@N@std@@V01@@std@@YA_NABU?$_Wrap_alloc@V?$allocator@N@std@@@0@0@Z 0041c310 f i fluidsim.obj
 0002:00004350       ??$?9DU?$char_traits@D@std@@V?$allocator@D@1@@std@@YA_NABV?$basic_string@DU?$char_traits@D@std@@V?$allocator@D@2@@0@0@Z 0041c350 f i fluidsim.obj
 0002:000043a0       ??$?9V?$_Vector_iterator@V?$_Vector_val@U?$_Simple_types@I@std@@@std@@@std@@V01@@std@@YA_NABV?$move_iterator@V?$_Vector_iterator@V?$_Vector_val@U?$_Simple_types@I@std@@@std@@@std@@@0@0@Z 0041c3a0 f i fluidsim.obj
 0002:000043f0       ??$?9V?$_Vector_iterator@V?$_Vector_val@U?$_Simple_types@N@std@@@std@@@std@@V01@@std@@YA_NABV?$move_iterator@V?$_Vector_iterator@V?$_Vector_val@U?$_Simple_types@N@std@@@std@@@std@@@0@0@Z 0041c3f0 f i fluidsim.obj
 0002:00004440       ??$?9V?$allocator@I@std@@V01@@std@@YA_NABU?$_Wrap_alloc@V?$allocator@I@std@@@0@0@Z 0041c440 f i fluidsim.obj
 0002:00004490       ??$?9V?$allocator@N@std@@V01@@std@@YA_NABU?$_Wrap_alloc@V?$allocator@N@std@@@0@0@Z 0041c490 f i fluidsim.obj
 0002:000044e0       ??$?D$02M@@YA?AU?$Vec@$02M@@MABU0@@Z 0041c4e0 f i fluidsim.obj
 0002:00004560       ??$?GV?$_Vector_iterator@V?$_Vector_val@U?$_Simple_types@I@std@@@std@@@std@@V01@@std@@YAHAAV?$move_iterator@V?$_Vector_iterator@V?$_Vector_val@U?$_Simple_types@I@std@@@std@@@std@@@0@ABV10@@Z 0041c560 f i fluidsim.obj
 0002:000045a0       ??$?GV?$_Vector_iterator@V?$_Vector_val@U?$_Simple_types@N@std@@@std@@@std@@V01@@std@@YAHAAV?$move_iterator@V?$_Vector_iterator@V?$_Vector_val@U?$_Simple_types@N@std@@@std@@@std@@@0@ABV10@@Z 0041c5a0 f i fluidsim.obj
 0002:000045e0       ??$_Advance@PAIH@std@@YAXAAPAIHUrandom_access_iterator_tag@0@@Z 0041c5e0 f i fluidsim.obj
 0002:00004610       ??$_Advance@PANH@std@@YAXAAPANHUrandom_access_iterator_tag@0@@Z 0041c610 f i fluidsim.obj
 0002:00004640       ??$_Allocate@D@std@@YAPADIPAD@Z 0041c640 f i fluidsim.obj
 0002:000046a0       ??$_Allocate@I@std@@YAPAIIPAI@Z 0041c6a0 f i fluidsim.obj
 0002:00004700       ??$_Allocate@N@std@@YAPANIPAN@Z 0041c700 f i fluidsim.obj
 0002:00004760       ??$_Allocate@U?$Vec@$02I@@@std@@YAPAU?$Vec@$02I@@IPAU1@@Z 0041c760 f i fluidsim.obj
 0002:000047c0       ??$_Allocate@U?$Vec@$02M@@@std@@YAPAU?$Vec@$02M@@IPAU1@@Z 0041c7c0 f i fluidsim.obj
 0002:00004820       ??$_Allocate@V?$vector@IV?$allocator@I@std@@@std@@@std@@YAPAV?$vector@IV?$allocator@I@std@@@0@IPAV10@@Z 0041c820 f i fluidsim.obj
 0002:00004880       ??$_Allocate@V?$vector@NV?$allocator@N@std@@@std@@@std@@YAPAV?$vector@NV?$allocator@N@std@@@0@IPAV10@@Z 0041c880 f i fluidsim.obj
 0002:000048e0       ??$_Copy_backward@PANPAN@std@@YAPANPAN00@Z 0041c8e0 f i fluidsim.obj
 0002:00004930       ??$_Copy_backward@PANPAN@std@@YAPANPAN00U_Scalar_ptr_iterator_tag@0@@Z 0041c930 f i fluidsim.obj
 0002:00004990       ??$_Copy_impl@PANPAN@std@@YAPANPAN00@Z 0041c990 f i fluidsim.obj
 0002:000049e0       ??$_Copy_impl@PANPAN@std@@YAPANPAN00U_Scalar_ptr_iterator_tag@0@@Z 0041c9e0 f i fluidsim.obj
 0002:00004a30       ??$_Destroy_range@U?$_Wrap_alloc@V?$allocator@I@std@@@std@@@std@@YAXPAI0AAU?$_Wrap_alloc@V?$allocator@I@std@@@0@@Z 0041ca30 f i fluidsim.obj
 0002:00004a80       ??$_Destroy_range@U?$_Wrap_alloc@V?$allocator@I@std@@@std@@@std@@YAXPAI0AAU?$_Wrap_alloc@V?$allocator@I@std@@@0@U_Scalar_ptr_iterator_tag@0@@Z 0041ca80 f i fluidsim.obj
 0002:00004aa0       ??$_Destroy_range@U?$_Wrap_alloc@V?$allocator@N@std@@@std@@@std@@YAXPAN0AAU?$_Wrap_alloc@V?$allocator@N@std@@@0@@Z 0041caa0 f i fluidsim.obj
 0002:00004af0       ??$_Destroy_range@U?$_Wrap_alloc@V?$allocator@N@std@@@std@@@std@@YAXPAN0AAU?$_Wrap_alloc@V?$allocator@N@std@@@0@U_Scalar_ptr_iterator_tag@0@@Z 0041caf0 f i fluidsim.obj
 0002:00004b10       ??$_Destroy_range@U?$_Wrap_alloc@V?$allocator@U?$Vec@$02I@@@std@@@std@@@std@@YAXPAU?$Vec@$02I@@0AAU?$_Wrap_alloc@V?$allocator@U?$Vec@$02I@@@std@@@0@@Z 0041cb10 f i fluidsim.obj
 0002:00004b60       ??$_Destroy_range@U?$_Wrap_alloc@V?$allocator@U?$Vec@$02I@@@std@@@std@@@std@@YAXPAU?$Vec@$02I@@0AAU?$_Wrap_alloc@V?$allocator@U?$Vec@$02I@@@std@@@0@U_Nonscalar_ptr_iterator_tag@0@@Z 0041cb60 f i fluidsim.obj
 0002:00004ba0       ??$_Destroy_range@U?$_Wrap_alloc@V?$allocator@U?$Vec@$02M@@@std@@@std@@@std@@YAXPAU?$Vec@$02M@@0AAU?$_Wrap_alloc@V?$allocator@U?$Vec@$02M@@@std@@@0@@Z 0041cba0 f i fluidsim.obj
 0002:00004bf0       ??$_Destroy_range@U?$_Wrap_alloc@V?$allocator@U?$Vec@$02M@@@std@@@std@@@std@@YAXPAU?$Vec@$02M@@0AAU?$_Wrap_alloc@V?$allocator@U?$Vec@$02M@@@std@@@0@U_Nonscalar_ptr_iterator_tag@0@@Z 0041cbf0 f i fluidsim.obj
 0002:00004c30       ??$_Destroy_range@U?$_Wrap_alloc@V?$allocator@V?$vector@IV?$allocator@I@std@@@std@@@std@@@std@@@std@@YAXPAV?$vector@IV?$allocator@I@std@@@0@0AAU?$_Wrap_alloc@V?$allocator@V?$vector@IV?$allocator@I@std@@@std@@@std@@@0@@Z 0041cc30 f i fluidsim.obj
 0002:00004c80       ??$_Destroy_range@U?$_Wrap_alloc@V?$allocator@V?$vector@IV?$allocator@I@std@@@std@@@std@@@std@@@std@@YAXPAV?$vector@IV?$allocator@I@std@@@0@0AAU?$_Wrap_alloc@V?$allocator@V?$vector@IV?$allocator@I@std@@@std@@@std@@@0@U_Nonscalar_ptr_iterator_tag@0@@Z 0041cc80 f i fluidsim.obj
 0002:00004cc0       ??$_Destroy_range@U?$_Wrap_alloc@V?$allocator@V?$vector@NV?$allocator@N@std@@@std@@@std@@@std@@@std@@YAXPAV?$vector@NV?$allocator@N@std@@@0@0AAU?$_Wrap_alloc@V?$allocator@V?$vector@NV?$allocator@N@std@@@std@@@std@@@0@@Z 0041ccc0 f i fluidsim.obj
 0002:00004d10       ??$_Destroy_range@U?$_Wrap_alloc@V?$allocator@V?$vector@NV?$allocator@N@std@@@std@@@std@@@std@@@std@@YAXPAV?$vector@NV?$allocator@N@std@@@0@0AAU?$_Wrap_alloc@V?$allocator@V?$vector@NV?$allocator@N@std@@@std@@@std@@@0@U_Nonscalar_ptr_iterator_tag@0@@Z 0041cd10 f i fluidsim.obj
 0002:00004d50       ??$_Dist_type@PAI@std@@YAPAHPAI@Z 0041cd50 f i fluidsim.obj
 0002:00004d70       ??$_Dist_type@PAN@std@@YAPAHPAN@Z 0041cd70 f i fluidsim.obj
 0002:00004d90       ??$_Distance2@PAIH@std@@YAXPAI0AAHUrandom_access_iterator_tag@0@@Z 0041cd90 f i fluidsim.obj
 0002:00004dc0       ??$_Distance2@PANH@std@@YAXPAN0AAHUrandom_access_iterator_tag@0@@Z 0041cdc0 f i fluidsim.obj
 0002:00004df0       ??$_Distance2@V?$move_iterator@V?$_Vector_iterator@V?$_Vector_val@U?$_Simple_types@I@std@@@std@@@std@@@std@@I@std@@YAXV?$move_iterator@V?$_Vector_iterator@V?$_Vector_val@U?$_Simple_types@I@std@@@std@@@std@@@0@0AAIUrandom_access_iterator_tag@0@@Z 0041cdf0 f i fluidsim.obj
 0002:00004e30       ??$_Distance2@V?$move_iterator@V?$_Vector_iterator@V?$_Vector_val@U?$_Simple_types@N@std@@@std@@@std@@@std@@I@std@@YAXV?$move_iterator@V?$_Vector_iterator@V?$_Vector_val@U?$_Simple_types@N@std@@@std@@@std@@@0@0AAIUrandom_access_iterator_tag@0@@Z 0041ce30 f i fluidsim.obj
 0002:00004e70       ??$_Distance@V?$move_iterator@V?$_Vector_iterator@V?$_Vector_val@U?$_Simple_types@I@std@@@std@@@std@@@std@@I@std@@YAXV?$move_iterator@V?$_Vector_iterator@V?$_Vector_val@U?$_Simple_types@I@std@@@std@@@std@@@0@0AAI@Z 0041ce70 f i fluidsim.obj
 0002:00004ec0       ??$_Distance@V?$move_iterator@V?$_Vector_iterator@V?$_Vector_val@U?$_Simple_types@N@std@@@std@@@std@@@std@@I@std@@YAXV?$move_iterator@V?$_Vector_iterator@V?$_Vector_val@U?$_Simple_types@N@std@@@std@@@std@@@0@0AAI@Z 0041cec0 f i fluidsim.obj
 0002:00004f10       ??$_Equal@V?$_Vector_iterator@V?$_Vector_val@U?$_Simple_types@I@std@@@std@@@std@@@?$move_iterator@V?$_Vector_iterator@V?$_Vector_val@U?$_Simple_types@I@std@@@std@@@std@@@std@@QBE_NABV01@@Z 0041cf10 f i fluidsim.obj
 0002:00004f50       ??$_Equal@V?$_Vector_iterator@V?$_Vector_val@U?$_Simple_types@N@std@@@std@@@std@@@?$move_iterator@V?$_Vector_iterator@V?$_Vector_val@U?$_Simple_types@N@std@@@std@@@std@@@std@@QBE_NABV01@@Z 0041cf50 f i fluidsim.obj
 0002:00004f90       ??$_Fgetc@D@std@@YA_NAADPAU_iobuf@@@Z 0041cf90 f i fluidsim.obj
 0002:00004fe0       ??$_Fill@PANN@std@@YAXPAN0ABN@Z 0041cfe0 f i fluidsim.obj
 0002:00005020       ??$_Fill_n@PAIII@std@@YAPAIPAIIABI@Z 0041d020 f i fluidsim.obj
 0002:00005070       ??$_Fill_n@PANIN@std@@YAPANPANIABN@Z 0041d070 f i fluidsim.obj
 0002:000050c0       ??$_Fputc@D@std@@YA_NDPAU_iobuf@@@Z 0041d0c0 f i fluidsim.obj
 0002:00005110       ??$_Insert@V?$move_iterator@V?$_Vector_iterator@V?$_Vector_val@U?$_Simple_types@I@std@@@std@@@std@@@std@@@?$vector@IV?$allocator@I@std@@@std@@QAEXV?$_Vector_const_iterator@V?$_Vector_val@U?$_Simple_types@I@std@@@std@@@1@V?$move_iterator@V?$_Vector_iterator@V?$_Vector_val@U?$_Simple_types@I@std@@@std@@@std@@@1@1Uforward_iterator_tag@1@@Z 0041d110 f i fluidsim.obj
 0002:00005400       ??$_Insert@V?$move_iterator@V?$_Vector_iterator@V?$_Vector_val@U?$_Simple_types@N@std@@@std@@@std@@@std@@@?$vector@NV?$allocator@N@std@@@std@@QAEXV?$_Vector_const_iterator@V?$_Vector_val@U?$_Simple_types@N@std@@@std@@@1@V?$move_iterator@V?$_Vector_iterator@V?$_Vector_val@U?$_Simple_types@N@std@@@std@@@std@@@1@1Uforward_iterator_tag@1@@Z 0041d400 f i fluidsim.obj
 0002:000056f0       ??$_Iter_cat@PAI@std@@YA?AUrandom_access_iterator_tag@0@ABQAI@Z 0041d6f0 f i fluidsim.obj
 0002:00005720       ??$_Iter_cat@PAN@std@@YA?AUrandom_access_iterator_tag@0@ABQAN@Z 0041d720 f i fluidsim.obj
 0002:00005750       ??$_Iter_cat@V?$move_iterator@V?$_Vector_iterator@V?$_Vector_val@U?$_Simple_types@I@std@@@std@@@std@@@std@@@std@@YA?AUrandom_access_iterator_tag@0@ABV?$move_iterator@V?$_Vector_iterator@V?$_Vector_val@U?$_Simple_types@I@std@@@std@@@std@@@0@@Z 0041d750 f i fluidsim.obj
 0002:00005780       ??$_Iter_cat@V?$move_iterator@V?$_Vector_iterator@V?$_Vector_val@U?$_Simple_types@N@std@@@std@@@std@@@std@@@std@@YA?AUrandom_access_iterator_tag@0@ABV?$move_iterator@V?$_Vector_iterator@V?$_Vector_val@U?$_Simple_types@N@std@@@std@@@std@@@0@@Z 0041d780 f i fluidsim.obj
 0002:000057b0       ??$_Move@AAI@std@@YA$$QAIAAI@Z 0041d7b0 f i fluidsim.obj
 0002:000057d0       ??$_Move@AAN@std@@YA$$QANAAN@Z 0041d7d0 f i fluidsim.obj
 0002:000057f0       ??$_Move@AAPAN@std@@YA$$QAPANAAPAN@Z 0041d7f0 f i fluidsim.obj
 0002:00005810       ??$_Move@AAV?$vector@NV?$allocator@N@std@@@std@@@std@@YA$$QAV?$vector@NV?$allocator@N@std@@@0@AAV10@@Z 0041d810 f i fluidsim.obj
 0002:00005830       ??$_Move@PAIPAI@std@@YAPAIPAI00@Z 0041d830 f i fluidsim.obj
 0002:00005880       ??$_Move@PAIPAI@std@@YAPAIPAI00U_Scalar_ptr_iterator_tag@0@@Z 0041d880 f i fluidsim.obj
 0002:000058d0       ??$_Move@PANPAN@std@@YAPANPAN00@Z 0041d8d0 f i fluidsim.obj
 0002:00005920       ??$_Move@PANPAN@std@@YAPANPAN00U_Scalar_ptr_iterator_tag@0@@Z 0041d920 f i fluidsim.obj
 0002:00005970       ??$_Move@PAV?$vector@IV?$allocator@I@std@@@std@@PAV12@@std@@YAPAV?$vector@IV?$allocator@I@std@@@0@PAV10@00@Z 0041d970 f i fluidsim.obj
 0002:000059c0       ??$_Move@PAV?$vector@IV?$allocator@I@std@@@std@@PAV12@@std@@YAPAV?$vector@IV?$allocator@I@std@@@0@PAV10@00U_Nonscalar_ptr_iterator_tag@0@@Z 0041d9c0 f i fluidsim.obj
 0002:00005a20       ??$_Move@PAV?$vector@NV?$allocator@N@std@@@std@@PAV12@@std@@YAPAV?$vector@NV?$allocator@N@std@@@0@PAV10@00@Z 0041da20 f i fluidsim.obj
 0002:00005a70       ??$_Move@PAV?$vector@NV?$allocator@N@std@@@std@@PAV12@@std@@YAPAV?$vector@NV?$allocator@N@std@@@0@PAV10@00U_Nonscalar_ptr_iterator_tag@0@@Z 0041da70 f i fluidsim.obj
 0002:00005ad0       ??$_Ptr_cat@II@std@@YA?AU_Scalar_ptr_iterator_tag@0@PAI0@Z 0041dad0 f i fluidsim.obj
 0002:00005af0       ??$_Ptr_cat@NN@std@@YA?AU_Scalar_ptr_iterator_tag@0@PAN0@Z 0041daf0 f i fluidsim.obj
 0002:00005b10       ??$_Ptr_cat@U?$Vec@$02I@@U1@@std@@YA?AU_Nonscalar_ptr_iterator_tag@0@PAU?$Vec@$02I@@0@Z 0041db10 f i fluidsim.obj
 0002:00005b30       ??$_Ptr_cat@U?$Vec@$02M@@U1@@std@@YA?AU_Nonscalar_ptr_iterator_tag@0@PAU?$Vec@$02M@@0@Z 0041db30 f i fluidsim.obj
 0002:00005b50       ??$_Ptr_cat@V?$move_iterator@V?$_Vector_iterator@V?$_Vector_val@U?$_Simple_types@I@std@@@std@@@std@@@std@@PAI@std@@YA?AU_Nonscalar_ptr_iterator_tag@0@AAV?$move_iterator@V?$_Vector_iterator@V?$_Vector_val@U?$_Simple_types@I@std@@@std@@@std@@@0@AAPAI@Z 0041db50 f i fluidsim.obj
 0002:00005b70       ??$_Ptr_cat@V?$move_iterator@V?$_Vector_iterator@V?$_Vector_val@U?$_Simple_types@N@std@@@std@@@std@@@std@@PAN@std@@YA?AU_Nonscalar_ptr_iterator_tag@0@AAV?$move_iterator@V?$_Vector_iterator@V?$_Vector_val@U?$_Simple_types@N@std@@@std@@@std@@@0@AAPAN@Z 0041db70 f i fluidsim.obj
 0002:00005b90       ??$_Ptr_cat@V?$vector@IV?$allocator@I@std@@@std@@V12@@std@@YA?AU_Nonscalar_ptr_iterator_tag@0@PAV?$vector@IV?$allocator@I@std@@@0@0@Z 0041db90 f i fluidsim.obj
 0002:00005bb0       ??$_Ptr_cat@V?$vector@NV?$allocator@N@std@@@std@@V12@@std@@YA?AU_Nonscalar_ptr_iterator_tag@0@PAV?$vector@NV?$allocator@N@std@@@0@0@Z 0041dbb0 f i fluidsim.obj
 0002:00005bd0       ??$_Rotate@PAI@std@@YAXPAI00Urandom_access_iterator_tag@0@@Z 0041dbd0 f i fluidsim.obj
 0002:00005c20       ??$_Rotate@PAIHI@std@@YAXPAI00PAH0@Z 0041dc20 f i fluidsim.obj
 0002:00005d70       ??$_Rotate@PAN@std@@YAXPAN00Urandom_access_iterator_tag@0@@Z 0041dd70 f i fluidsim.obj
 0002:00005dc0       ??$_Rotate@PANHN@std@@YAXPAN00PAH0@Z 0041ddc0 f i fluidsim.obj
 0002:00005f10       ??$_Swap_adl@PAN@std@@YAXAAPAN0@Z 0041df10 f i fluidsim.obj
 0002:00005f40       ??$_Ucopy@PAN@?$vector@NV?$allocator@N@std@@@std@@IAEPANPAN00@Z 0041df40 f i fluidsim.obj
 0002:00005f90       ??$_Ucopy@V?$move_iterator@V?$_Vector_iterator@V?$_Vector_val@U?$_Simple_types@I@std@@@std@@@std@@@std@@@?$vector@IV?$allocator@I@std@@@std@@IAEPAIV?$move_iterator@V?$_Vector_iterator@V?$_Vector_val@U?$_Simple_types@I@std@@@std@@@std@@@1@0PAI@Z 0041df90 f i fluidsim.obj
 0002:00005fe0       ??$_Ucopy@V?$move_iterator@V?$_Vector_iterator@V?$_Vector_val@U?$_Simple_types@N@std@@@std@@@std@@@std@@@?$vector@NV?$allocator@N@std@@@std@@IAEPANV?$move_iterator@V?$_Vector_iterator@V?$_Vector_val@U?$_Simple_types@N@std@@@std@@@std@@@1@0PAN@Z 0041dfe0 f i fluidsim.obj
 0002:00006030       ??$_Umove@PAI@?$vector@IV?$allocator@I@std@@@std@@IAEPAIPAI00@Z 0041e030 f i fluidsim.obj
 0002:00006080       ??$_Umove@PAN@?$vector@NV?$allocator@N@std@@@std@@IAEPANPAN00@Z 0041e080 f i fluidsim.obj
 0002:000060d0       ??$_Umove@PAU?$Vec@$02I@@@?$vector@U?$Vec@$02I@@V?$allocator@U?$Vec@$02I@@@std@@@std@@IAEPAU?$Vec@$02I@@PAU2@00@Z 0041e0d0 f i fluidsim.obj
 0002:00006120       ??$_Umove@PAU?$Vec@$02M@@@?$vector@U?$Vec@$02M@@V?$allocator@U?$Vec@$02M@@@std@@@std@@IAEPAU?$Vec@$02M@@PAU2@00@Z 0041e120 f i fluidsim.obj
 0002:00006170       ??$_Umove@PAV?$vector@IV?$allocator@I@std@@@std@@@?$vector@V?$vector@IV?$allocator@I@std@@@std@@V?$allocator@V?$vector@IV?$allocator@I@std@@@std@@@2@@std@@IAEPAV?$vector@IV?$allocator@I@std@@@1@PAV21@00@Z 0041e170 f i fluidsim.obj
 0002:000061c0       ??$_Umove@PAV?$vector@NV?$allocator@N@std@@@std@@@?$vector@V?$vector@NV?$allocator@N@std@@@std@@V?$allocator@V?$vector@NV?$allocator@N@std@@@std@@@2@@std@@IAEPAV?$vector@NV?$allocator@N@std@@@1@PAV21@00@Z 0041e1c0 f i fluidsim.obj
 0002:00006210       ??$_Unchecked@PAI@std@@YAPAIPAI@Z 0041e210 f i fluidsim.obj
 0002:00006230       ??$_Unchecked@PAN@std@@YAPANPAN@Z 0041e230 f i fluidsim.obj
 0002:00006250       ??$_Ungetc@D@std@@YA_NABDPAU_iobuf@@@Z 0041e250 f i fluidsim.obj
 0002:000062a0       ??$_Uninit_copy@NN@std@@YAPANPAN00AAU?$_Wrap_alloc@V?$allocator@N@std@@@0@U_Scalar_ptr_iterator_tag@0@@Z 0041e2a0 f i fluidsim.obj
 0002:000062f0       ??$_Uninit_copy@V?$move_iterator@V?$_Vector_iterator@V?$_Vector_val@U?$_Simple_types@I@std@@@std@@@std@@@std@@PAIV?$allocator@I@2@@std@@YAPAIV?$move_iterator@V?$_Vector_iterator@V?$_Vector_val@U?$_Simple_types@I@std@@@std@@@std@@@0@0PAIAAU?$_Wrap_alloc@V?$allocator@I@std@@@0@U_Nonscalar_ptr_iterator_tag@0@@Z 0041e2f0 f i fluidsim.obj
 0002:00006410       ??$_Uninit_copy@V?$move_iterator@V?$_Vector_iterator@V?$_Vector_val@U?$_Simple_types@N@std@@@std@@@std@@@std@@PANV?$allocator@N@2@@std@@YAPANV?$move_iterator@V?$_Vector_iterator@V?$_Vector_val@U?$_Simple_types@N@std@@@std@@@std@@@0@0PANAAU?$_Wrap_alloc@V?$allocator@N@std@@@0@U_Nonscalar_ptr_iterator_tag@0@@Z 0041e410 f i fluidsim.obj
 0002:00006530       ??$_Uninit_def_fill_n@III@std@@YAXPAIIAAU?$_Wrap_alloc@V?$allocator@I@std@@@0@0U_Scalar_ptr_iterator_tag@0@@Z 0041e530 f i fluidsim.obj
 0002:00006570       ??$_Uninit_def_fill_n@NIN@std@@YAXPANIAAU?$_Wrap_alloc@V?$allocator@N@std@@@0@0U_Scalar_ptr_iterator_tag@0@@Z 0041e570 f i fluidsim.obj
 0002:000065b0       ??$_Uninit_def_fill_n@PAV?$vector@IV?$allocator@I@std@@@std@@IV?$allocator@V?$vector@IV?$allocator@I@std@@@std@@@2@V12@@std@@YAXPAV?$vector@IV?$allocator@I@std@@@0@IAAU?$_Wrap_alloc@V?$allocator@V?$vector@IV?$allocator@I@std@@@std@@@std@@@0@0U_Nonscalar_ptr_iterator_tag@0@@Z 0041e5b0 f i fluidsim.obj
 0002:000066a0       ??$_Uninit_def_fill_n@PAV?$vector@NV?$allocator@N@std@@@std@@IV?$allocator@V?$vector@NV?$allocator@N@std@@@std@@@2@V12@@std@@YAXPAV?$vector@NV?$allocator@N@std@@@0@IAAU?$_Wrap_alloc@V?$allocator@V?$vector@NV?$allocator@N@std@@@std@@@std@@@0@0U_Nonscalar_ptr_iterator_tag@0@@Z 0041e6a0 f i fluidsim.obj
 0002:00006790       ??$_Uninit_fill_n@NINN@std@@YAXPANIPBNAAU?$_Wrap_alloc@V?$allocator@N@std@@@0@0U_Scalar_ptr_iterator_tag@0@@Z 0041e790 f i fluidsim.obj
 0002:000067c0       ??$_Uninit_move@III@std@@YAPAIPAI00AAU?$_Wrap_alloc@V?$allocator@I@std@@@0@0U_Scalar_ptr_iterator_tag@0@@Z 0041e7c0 f i fluidsim.obj
 0002:00006810       ??$_Uninit_move@NNN@std@@YAPANPAN00AAU?$_Wrap_alloc@V?$allocator@N@std@@@0@0U_Scalar_ptr_iterator_tag@0@@Z 0041e810 f i fluidsim.obj
 0002:00006860       ??$_Uninit_move@PAU?$Vec@$02I@@PAU1@V?$allocator@U?$Vec@$02I@@@std@@U1@@std@@YAPAU?$Vec@$02I@@PAU1@00AAU?$_Wrap_alloc@V?$allocator@U?$Vec@$02I@@@std@@@0@0U_Nonscalar_ptr_iterator_tag@0@@Z 0041e860 f i fluidsim.obj
 0002:00006950       ??$_Uninit_move@PAU?$Vec@$02M@@PAU1@V?$allocator@U?$Vec@$02M@@@std@@U1@@std@@YAPAU?$Vec@$02M@@PAU1@00AAU?$_Wrap_alloc@V?$allocator@U?$Vec@$02M@@@std@@@0@0U_Nonscalar_ptr_iterator_tag@0@@Z 0041e950 f i fluidsim.obj
 0002:00006a40       ??$_Uninit_move@PAV?$vector@IV?$allocator@I@std@@@std@@PAV12@V?$allocator@V?$vector@IV?$allocator@I@std@@@std@@@2@V12@@std@@YAPAV?$vector@IV?$allocator@I@std@@@0@PAV10@00AAU?$_Wrap_alloc@V?$allocator@V?$vector@IV?$allocator@I@std@@@std@@@std@@@0@0U_Nonscalar_ptr_iterator_tag@0@@Z 0041ea40 f i fluidsim.obj
 0002:00006b30       ??$_Uninit_move@PAV?$vector@NV?$allocator@N@std@@@std@@PAV12@V?$allocator@V?$vector@NV?$allocator@N@std@@@std@@@2@V12@@std@@YAPAV?$vector@NV?$allocator@N@std@@@0@PAV10@00AAU?$_Wrap_alloc@V?$allocator@V?$vector@NV?$allocator@N@std@@@std@@@std@@@0@0U_Nonscalar_ptr_iterator_tag@0@@Z 0041eb30 f i fluidsim.obj
 0002:00006c20       ??$_Uninitialized_copy@PANPANU?$_Wrap_alloc@V?$allocator@N@std@@@std@@@std@@YAPANPAN00AAU?$_Wrap_alloc@V?$allocator@N@std@@@0@@Z 0041ec20 f i fluidsim.obj
 0002:00006c70       ??$_Uninitialized_copy@V?$move_iterator@V?$_Vector_iterator@V?$_Vector_val@U?$_Simple_types@I@std@@@std@@@std@@@std@@PAIU?$_Wrap_alloc@V?$allocator@I@std@@@2@@std@@YAPAIV?$move_iterator@V?$_Vector_iterator@V?$_Vector_val@U?$_Simple_types@I@std@@@std@@@std@@@0@0PAIAAU?$_Wrap_alloc@V?$allocator@I@std@@@0@@Z 0041ec70 f i fluidsim.obj
 0002:00006cc0       ??$_Uninitialized_copy@V?$move_iterator@V?$_Vector_iterator@V?$_Vector_val@U?$_Simple_types@N@std@@@std@@@std@@@std@@PANU?$_Wrap_alloc@V?$allocator@N@std@@@2@@std@@YAPANV?$move_iterator@V?$_Vector_iterator@V?$_Vector_val@U?$_Simple_types@N@std@@@std@@@std@@@0@0PANAAU?$_Wrap_alloc@V?$allocator@N@std@@@0@@Z 0041ecc0 f i fluidsim.obj
 0002:00006d10       ??$_Uninitialized_default_fill_n@PAIIU?$_Wrap_alloc@V?$allocator@I@std@@@std@@@std@@YAXPAIIAAU?$_Wrap_alloc@V?$allocator@I@std@@@0@@Z 0041ed10 f i fluidsim.obj
 0002:00006d70       ??$_Uninitialized_default_fill_n@PANIU?$_Wrap_alloc@V?$allocator@N@std@@@std@@@std@@YAXPANIAAU?$_Wrap_alloc@V?$allocator@N@std@@@0@@Z 0041ed70 f i fluidsim.obj
 0002:00006dd0       ??$_Uninitialized_default_fill_n@PAV?$vector@IV?$allocator@I@std@@@std@@IU?$_Wrap_alloc@V?$allocator@V?$vector@IV?$allocator@I@std@@@std@@@std@@@2@@std@@YAXPAV?$vector@IV?$allocator@I@std@@@0@IAAU?$_Wrap_alloc@V?$allocator@V?$vector@IV?$allocator@I@std@@@std@@@std@@@0@@Z 0041edd0 f i fluidsim.obj
 0002:00006e30       ??$_Uninitialized_default_fill_n@PAV?$vector@NV?$allocator@N@std@@@std@@IU?$_Wrap_alloc@V?$allocator@V?$vector@NV?$allocator@N@std@@@std@@@std@@@2@@std@@YAXPAV?$vector@NV?$allocator@N@std@@@0@IAAU?$_Wrap_alloc@V?$allocator@V?$vector@NV?$allocator@N@std@@@std@@@std@@@0@@Z 0041ee30 f i fluidsim.obj
 0002:00006e90       ??$_Uninitialized_fill_n@PANINU?$_Wrap_alloc@V?$allocator@N@std@@@std@@@std@@YAXPANIPBNAAU?$_Wrap_alloc@V?$allocator@N@std@@@0@@Z 0041ee90 f i fluidsim.obj
 0002:00006ef0       ??$_Uninitialized_move@PAIPAIU?$_Wrap_alloc@V?$allocator@I@std@@@std@@@std@@YAPAIPAI00AAU?$_Wrap_alloc@V?$allocator@I@std@@@0@@Z 0041eef0 f i fluidsim.obj
 0002:00006f50       ??$_Uninitialized_move@PANPANU?$_Wrap_alloc@V?$allocator@N@std@@@std@@@std@@YAPANPAN00AAU?$_Wrap_alloc@V?$allocator@N@std@@@0@@Z 0041ef50 f i fluidsim.obj
 0002:00006fb0       ??$_Uninitialized_move@PAU?$Vec@$02I@@PAU1@U?$_Wrap_alloc@V?$allocator@U?$Vec@$02I@@@std@@@std@@@std@@YAPAU?$Vec@$02I@@PAU1@00AAU?$_Wrap_alloc@V?$allocator@U?$Vec@$02I@@@std@@@0@@Z 0041efb0 f i fluidsim.obj
 0002:00007010       ??$_Uninitialized_move@PAU?$Vec@$02M@@PAU1@U?$_Wrap_alloc@V?$allocator@U?$Vec@$02M@@@std@@@std@@@std@@YAPAU?$Vec@$02M@@PAU1@00AAU?$_Wrap_alloc@V?$allocator@U?$Vec@$02M@@@std@@@0@@Z 0041f010 f i fluidsim.obj
 0002:00007070       ??$_Uninitialized_move@PAV?$vector@IV?$allocator@I@std@@@std@@PAV12@U?$_Wrap_alloc@V?$allocator@V?$vector@IV?$allocator@I@std@@@std@@@std@@@2@@std@@YAPAV?$vector@IV?$allocator@I@std@@@0@PAV10@00AAU?$_Wrap_alloc@V?$allocator@V?$vector@IV?$allocator@I@std@@@std@@@std@@@0@@Z 0041f070 f i fluidsim.obj
 0002:000070d0       ??$_Uninitialized_move@PAV?$vector@NV?$allocator@N@std@@@std@@PAV12@U?$_Wrap_alloc@V?$allocator@V?$vector@NV?$allocator@N@std@@@std@@@std@@@2@@std@@YAPAV?$vector@NV?$allocator@N@std@@@0@PAV10@00AAU?$_Wrap_alloc@V?$allocator@V?$vector@NV?$allocator@N@std@@@std@@@std@@@0@@Z 0041f0d0 f i fluidsim.obj
 0002:00007130       ??$_Val_type@PAI@std@@YAPAIPAI@Z 0041f130 f i fluidsim.obj
 0002:00007150       ??$_Val_type@PAN@std@@YAPANPAN@Z 0041f150 f i fluidsim.obj
 0002:00007170       ??$_Val_type@PAU?$Vec@$02I@@@std@@YAPAU?$Vec@$02I@@PAU1@@Z 0041f170 f i fluidsim.obj
 0002:00007190       ??$_Val_type@PAU?$Vec@$02M@@@std@@YAPAU?$Vec@$02M@@PAU1@@Z 0041f190 f i fluidsim.obj
 0002:000071b0       ??$_Val_type@PAV?$vector@IV?$allocator@I@std@@@std@@@std@@YAPAV?$vector@IV?$allocator@I@std@@@0@PAV10@@Z 0041f1b0 f i fluidsim.obj
 0002:000071d0       ??$_Val_type@PAV?$vector@NV?$allocator@N@std@@@std@@@std@@YAPAV?$vector@NV?$allocator@N@std@@@0@PAV10@@Z 0041f1d0 f i fluidsim.obj
 0002:000071f0       ??$addressof@$$CBI@std@@YAPBIABI@Z 0041f1f0 f i fluidsim.obj
 0002:00007210       ??$addressof@$$CBN@std@@YAPBNABN@Z 0041f210 f i fluidsim.obj
 0002:00007230       ??$addressof@$$CBU?$Vec@$02M@@@std@@YAPBU?$Vec@$02M@@ABU1@@Z 0041f230 f i fluidsim.obj
 0002:00007250       ??$addressof@D@std@@YAPADAAD@Z 0041f250 f i fluidsim.obj
 0002:00007270       ??$addressof@N@std@@YAPANAAN@Z 0041f270 f i fluidsim.obj
 0002:00007290       ??$addressof@U?$Vec@$02I@@@std@@YAPAU?$Vec@$02I@@AAU1@@Z 0041f290 f i fluidsim.obj
 0002:000072b0       ??$advance@PAIH@std@@YAXAAPAIH@Z 0041f2b0 f i fluidsim.obj
 0002:00007300       ??$advance@PANH@std@@YAXAAPANH@Z 0041f300 f i fluidsim.obj
 0002:00007350       ??$assign@V?$move_iterator@V?$_Vector_iterator@V?$_Vector_val@U?$_Simple_types@I@std@@@std@@@std@@@std@@@?$vector@IV?$allocator@I@std@@@std@@QAEXV?$move_iterator@V?$_Vector_iterator@V?$_Vector_val@U?$_Simple_types@I@std@@@std@@@std@@@1@0@Z 0041f350 f i fluidsim.obj
 0002:000073f0       ??$assign@V?$move_iterator@V?$_Vector_iterator@V?$_Vector_val@U?$_Simple_types@N@std@@@std@@@std@@@std@@@?$vector@NV?$allocator@N@std@@@std@@QAEXV?$move_iterator@V?$_Vector_iterator@V?$_Vector_val@U?$_Simple_types@N@std@@@std@@@std@@@1@0@Z 0041f3f0 f i fluidsim.obj
 0002:00007490       ??$bilerp@MM@@YAMABM000MM@Z 0041f490 f i fluidsim.obj
 0002:00007510       ??$clamp@M@@YAMMMM@Z       0041f510 f i fluidsim.obj
 0002:00007560       ??$construct@IAAI@?$_Wrap_alloc@V?$allocator@I@std@@@std@@QAEXPAIAAI@Z 0041f560 f i fluidsim.obj
 0002:000075a0       ??$construct@IAAI@?$allocator@I@std@@QAEXPAIAAI@Z 0041f5a0 f i fluidsim.obj
 0002:00007650       ??$construct@IAAI@?$allocator_traits@V?$allocator@I@std@@@std@@SAXAAV?$allocator@I@1@PAIAAI@Z 0041f650 f i fluidsim.obj
 0002:00007690       ??$construct@IABI@?$_Wrap_alloc@V?$allocator@I@std@@@std@@QAEXPAIABI@Z 0041f690 f i fluidsim.obj
 0002:000076d0       ??$construct@IABI@?$allocator_traits@V?$allocator@I@std@@@std@@SAXAAV?$allocator@I@1@PAIABI@Z 0041f6d0 f i fluidsim.obj
 0002:00007710       ??$construct@II@?$_Wrap_alloc@V?$allocator@I@std@@@std@@QAEXPAI$$QAI@Z 0041f710 f i fluidsim.obj
 0002:00007750       ??$construct@II@?$allocator@I@std@@QAEXPAI$$QAI@Z 0041f750 f i fluidsim.obj
 0002:00007800       ??$construct@II@?$allocator_traits@V?$allocator@I@std@@@std@@SAXAAV?$allocator@I@1@PAI$$QAI@Z 0041f800 f i fluidsim.obj
 0002:00007840       ??$construct@NAAN@?$_Wrap_alloc@V?$allocator@N@std@@@std@@QAEXPANAAN@Z 0041f840 f i fluidsim.obj
 0002:00007880       ??$construct@NAAN@?$allocator@N@std@@QAEXPANAAN@Z 0041f880 f i fluidsim.obj
 0002:00007940       ??$construct@NAAN@?$allocator_traits@V?$allocator@N@std@@@std@@SAXAAV?$allocator@N@1@PANAAN@Z 0041f940 f i fluidsim.obj
 0002:00007980       ??$construct@NABN@?$_Wrap_alloc@V?$allocator@N@std@@@std@@QAEXPANABN@Z 0041f980 f i fluidsim.obj
 0002:000079c0       ??$construct@NABN@?$allocator_traits@V?$allocator@N@std@@@std@@SAXAAV?$allocator@N@1@PANABN@Z 0041f9c0 f i fluidsim.obj
 0002:00007a00       ??$construct@NN@?$_Wrap_alloc@V?$allocator@N@std@@@std@@QAEXPAN$$QAN@Z 0041fa00 f i fluidsim.obj
 0002:00007a40       ??$construct@NN@?$allocator@N@std@@QAEXPAN$$QAN@Z 0041fa40 f i fluidsim.obj
 0002:00007b00       ??$construct@NN@?$allocator_traits@V?$allocator@N@std@@@std@@SAXAAV?$allocator@N@1@PAN$$QAN@Z 0041fb00 f i fluidsim.obj
 0002:00007b40       ??$construct@PADAAPAD@?$_Wrap_alloc@V?$allocator@D@std@@@std@@QAEXPAPADAAPAD@Z 0041fb40 f i fluidsim.obj
 0002:00007b80       ??$construct@PADAAPAD@?$allocator@D@std@@QAEXPAPADAAPAD@Z 0041fb80 f i fluidsim.obj
 0002:00007c30       ??$construct@PADAAPAD@?$allocator_traits@V?$allocator@D@std@@@std@@SAXAAV?$allocator@D@1@PAPADAAPAD@Z 0041fc30 f i fluidsim.obj
 0002:00007c70       ??$construct@U?$Vec@$02I@@U1@@?$_Wrap_alloc@V?$allocator@U?$Vec@$02I@@@std@@@std@@QAEXPAU?$Vec@$02I@@$$QAU2@@Z 0041fc70 f i fluidsim.obj
 0002:00007cb0       ??$construct@U?$Vec@$02I@@U1@@?$allocator@U?$Vec@$02I@@@std@@QAEXPAU?$Vec@$02I@@$$QAU2@@Z 0041fcb0 f i fluidsim.obj
 0002:00007d70       ??$construct@U?$Vec@$02I@@U1@@?$allocator_traits@V?$allocator@U?$Vec@$02I@@@std@@@std@@SAXAAV?$allocator@U?$Vec@$02I@@@1@PAU?$Vec@$02I@@$$QAU3@@Z 0041fd70 f i fluidsim.obj
 0002:00007db0       ??$construct@U?$Vec@$02M@@AAU1@@?$_Wrap_alloc@V?$allocator@U?$Vec@$02M@@@std@@@std@@QAEXPAU?$Vec@$02M@@AAU2@@Z 0041fdb0 f i fluidsim.obj
 0002:00007df0       ??$construct@U?$Vec@$02M@@AAU1@@?$allocator@U?$Vec@$02M@@@std@@QAEXPAU?$Vec@$02M@@AAU2@@Z 0041fdf0 f i fluidsim.obj
 0002:00007eb0       ??$construct@U?$Vec@$02M@@AAU1@@?$allocator_traits@V?$allocator@U?$Vec@$02M@@@std@@@std@@SAXAAV?$allocator@U?$Vec@$02M@@@1@PAU?$Vec@$02M@@AAU3@@Z 0041feb0 f i fluidsim.obj
 0002:00007ef0       ??$construct@U?$Vec@$02M@@ABU1@@?$_Wrap_alloc@V?$allocator@U?$Vec@$02M@@@std@@@std@@QAEXPAU?$Vec@$02M@@ABU2@@Z 0041fef0 f i fluidsim.obj
 0002:00007f30       ??$construct@U?$Vec@$02M@@ABU1@@?$allocator_traits@V?$allocator@U?$Vec@$02M@@@std@@@std@@SAXAAV?$allocator@U?$Vec@$02M@@@1@PAU?$Vec@$02M@@ABU3@@Z 0041ff30 f i fluidsim.obj
 0002:00007f70       ??$construct@U?$Vec@$02M@@U1@@?$_Wrap_alloc@V?$allocator@U?$Vec@$02M@@@std@@@std@@QAEXPAU?$Vec@$02M@@$$QAU2@@Z 0041ff70 f i fluidsim.obj
 0002:00007fb0       ??$construct@U?$Vec@$02M@@U1@@?$allocator@U?$Vec@$02M@@@std@@QAEXPAU?$Vec@$02M@@$$QAU2@@Z 0041ffb0 f i fluidsim.obj
 0002:00008070       ??$construct@U?$Vec@$02M@@U1@@?$allocator_traits@V?$allocator@U?$Vec@$02M@@@std@@@std@@SAXAAV?$allocator@U?$Vec@$02M@@@1@PAU?$Vec@$02M@@$$QAU3@@Z 00420070 f i fluidsim.obj
 0002:000080b0       ??$construct@V?$vector@IV?$allocator@I@std@@@std@@@?$allocator_traits@V?$allocator@V?$vector@IV?$allocator@I@std@@@std@@@std@@@std@@SAXAAV?$allocator@V?$vector@IV?$allocator@I@std@@@std@@@1@PAV?$vector@IV?$allocator@I@std@@@1@@Z 004200b0 f i fluidsim.obj
 0002:000080e0       ??$construct@V?$vector@IV?$allocator@I@std@@@std@@V12@@?$_Wrap_alloc@V?$allocator@V?$vector@IV?$allocator@I@std@@@std@@@std@@@std@@QAEXPAV?$vector@IV?$allocator@I@std@@@1@$$QAV21@@Z 004200e0 f i fluidsim.obj
 0002:00008120       ??$construct@V?$vector@IV?$allocator@I@std@@@std@@V12@@?$allocator@V?$vector@IV?$allocator@I@std@@@std@@@std@@QAEXPAV?$vector@IV?$allocator@I@std@@@1@$$QAV21@@Z 00420120 f i fluidsim.obj
 0002:000081d0       ??$construct@V?$vector@IV?$allocator@I@std@@@std@@V12@@?$allocator_traits@V?$allocator@V?$vector@IV?$allocator@I@std@@@std@@@std@@@std@@SAXAAV?$allocator@V?$vector@IV?$allocator@I@std@@@std@@@1@PAV?$vector@IV?$allocator@I@std@@@1@$$QAV31@@Z 004201d0 f i fluidsim.obj
 0002:00008210       ??$construct@V?$vector@NV?$allocator@N@std@@@std@@@?$allocator_traits@V?$allocator@V?$vector@NV?$allocator@N@std@@@std@@@std@@@std@@SAXAAV?$allocator@V?$vector@NV?$allocator@N@std@@@std@@@1@PAV?$vector@NV?$allocator@N@std@@@1@@Z 00420210 f i fluidsim.obj
 0002:00008240       ??$construct@V?$vector@NV?$allocator@N@std@@@std@@V12@@?$_Wrap_alloc@V?$allocator@V?$vector@NV?$allocator@N@std@@@std@@@std@@@std@@QAEXPAV?$vector@NV?$allocator@N@std@@@1@$$QAV21@@Z 00420240 f i fluidsim.obj
 0002:00008280       ??$construct@V?$vector@NV?$allocator@N@std@@@std@@V12@@?$allocator@V?$vector@NV?$allocator@N@std@@@std@@@std@@QAEXPAV?$vector@NV?$allocator@N@std@@@1@$$QAV21@@Z 00420280 f i fluidsim.obj
 0002:00008330       ??$construct@V?$vector@NV?$allocator@N@std@@@std@@V12@@?$allocator_traits@V?$allocator@V?$vector@NV?$allocator@N@std@@@std@@@std@@@std@@SAXAAV?$allocator@V?$vector@NV?$allocator@N@std@@@std@@@1@PAV?$vector@NV?$allocator@N@std@@@1@$$QAV31@@Z 00420330 f i fluidsim.obj
 0002:00008370       ??$destroy@I@?$_Wrap_alloc@V?$allocator@I@std@@@std@@QAEXPAI@Z 00420370 f i fluidsim.obj
 0002:000083a0       ??$destroy@I@?$allocator@I@std@@QAEXPAI@Z 004203a0 f i fluidsim.obj
 0002:000083c0       ??$destroy@I@?$allocator_traits@V?$allocator@I@std@@@std@@SAXAAV?$allocator@I@1@PAI@Z 004203c0 f i fluidsim.obj
 0002:000083f0       ??$destroy@N@?$_Wrap_alloc@V?$allocator@N@std@@@std@@QAEXPAN@Z 004203f0 f i fluidsim.obj
 0002:00008420       ??$destroy@N@?$allocator@N@std@@QAEXPAN@Z 00420420 f i fluidsim.obj
 0002:00008440       ??$destroy@N@?$allocator_traits@V?$allocator@N@std@@@std@@SAXAAV?$allocator@N@1@PAN@Z 00420440 f i fluidsim.obj
 0002:00008470       ??$destroy@PAD@?$_Wrap_alloc@V?$allocator@D@std@@@std@@QAEXPAPAD@Z 00420470 f i fluidsim.obj
 0002:000084a0       ??$destroy@PAD@?$allocator@D@std@@QAEXPAPAD@Z 004204a0 f i fluidsim.obj
 0002:000084c0       ??$destroy@PAD@?$allocator_traits@V?$allocator@D@std@@@std@@SAXAAV?$allocator@D@1@PAPAD@Z 004204c0 f i fluidsim.obj
 0002:000084f0       ??$destroy@U?$Vec@$02I@@@?$_Wrap_alloc@V?$allocator@U?$Vec@$02I@@@std@@@std@@QAEXPAU?$Vec@$02I@@@Z 004204f0 f i fluidsim.obj
 0002:00008520       ??$destroy@U?$Vec@$02I@@@?$allocator@U?$Vec@$02I@@@std@@QAEXPAU?$Vec@$02I@@@Z 00420520 f i fluidsim.obj
 0002:00008540       ??$destroy@U?$Vec@$02I@@@?$allocator_traits@V?$allocator@U?$Vec@$02I@@@std@@@std@@SAXAAV?$allocator@U?$Vec@$02I@@@1@PAU?$Vec@$02I@@@Z 00420540 f i fluidsim.obj
 0002:00008570       ??$destroy@U?$Vec@$02M@@@?$_Wrap_alloc@V?$allocator@U?$Vec@$02M@@@std@@@std@@QAEXPAU?$Vec@$02M@@@Z 00420570 f i fluidsim.obj
 0002:000085a0       ??$destroy@U?$Vec@$02M@@@?$allocator@U?$Vec@$02M@@@std@@QAEXPAU?$Vec@$02M@@@Z 004205a0 f i fluidsim.obj
 0002:000085c0       ??$destroy@U?$Vec@$02M@@@?$allocator_traits@V?$allocator@U?$Vec@$02M@@@std@@@std@@SAXAAV?$allocator@U?$Vec@$02M@@@1@PAU?$Vec@$02M@@@Z 004205c0 f i fluidsim.obj
 0002:000085f0       ??$destroy@V?$vector@IV?$allocator@I@std@@@std@@@?$_Wrap_alloc@V?$allocator@V?$vector@IV?$allocator@I@std@@@std@@@std@@@std@@QAEXPAV?$vector@IV?$allocator@I@std@@@1@@Z 004205f0 f i fluidsim.obj
 0002:00008620       ??$destroy@V?$vector@IV?$allocator@I@std@@@std@@@?$allocator@V?$vector@IV?$allocator@I@std@@@std@@@std@@QAEXPAV?$vector@IV?$allocator@I@std@@@1@@Z 00420620 f i fluidsim.obj
 0002:00008650       ??$destroy@V?$vector@IV?$allocator@I@std@@@std@@@?$allocator_traits@V?$allocator@V?$vector@IV?$allocator@I@std@@@std@@@std@@@std@@SAXAAV?$allocator@V?$vector@IV?$allocator@I@std@@@std@@@1@PAV?$vector@IV?$allocator@I@std@@@1@@Z 00420650 f i fluidsim.obj
 0002:00008680       ??$destroy@V?$vector@NV?$allocator@N@std@@@std@@@?$_Wrap_alloc@V?$allocator@V?$vector@NV?$allocator@N@std@@@std@@@std@@@std@@QAEXPAV?$vector@NV?$allocator@N@std@@@1@@Z 00420680 f i fluidsim.obj
 0002:000086b0       ??$destroy@V?$vector@NV?$allocator@N@std@@@std@@@?$allocator@V?$vector@NV?$allocator@N@std@@@std@@@std@@QAEXPAV?$vector@NV?$allocator@N@std@@@1@@Z 004206b0 f i fluidsim.obj
 0002:000086e0       ??$destroy@V?$vector@NV?$allocator@N@std@@@std@@@?$allocator_traits@V?$allocator@V?$vector@NV?$allocator@N@std@@@std@@@std@@@std@@SAXAAV?$allocator@V?$vector@NV?$allocator@N@std@@@std@@@1@PAV?$vector@NV?$allocator@N@std@@@1@@Z 004206e0 f i fluidsim.obj
 0002:00008710       ??$dist2@$02M@@YAMABU?$Vec@$02M@@0@Z 00420710 f i fluidsim.obj
 0002:000087d0       ??$dist@$02M@@YAMABU?$Vec@$02M@@0@Z 004207d0 f i fluidsim.obj
 0002:00008810       ??$distance@PAI@std@@YAHPAI0@Z 00420810 f i fluidsim.obj
 0002:00008870       ??$distance@PAN@std@@YAHPAN0@Z 00420870 f i fluidsim.obj
 0002:000088d0       ??$dot@$02M@@YAMABU?$Vec@$02M@@0@Z 004208d0 f i fluidsim.obj
 0002:00008960       ??$factor_modified_incomplete_cholesky0@N@@YAXABU?$SparseMatrix@N@@AAU?$SparseColumnLowerFactor@N@@NN@Z 00420960 f i fluidsim.obj
 0002:00009210       ??$fill@PANN@std@@YAXPAN0ABN@Z 00421210 f i fluidsim.obj
 0002:00009260       ??$forward@AAI@std@@YAAAIAAI@Z 00421260 f i fluidsim.obj
 0002:00009280       ??$forward@AAN@std@@YAAANAAN@Z 00421280 f i fluidsim.obj
 0002:000092a0       ??$forward@AAPAD@std@@YAAAPADAAPAD@Z 004212a0 f i fluidsim.obj
 0002:000092c0       ??$forward@AAU?$Vec@$02M@@@std@@YAAAU?$Vec@$02M@@AAU1@@Z 004212c0 f i fluidsim.obj
 0002:000092e0       ??$forward@ABI@std@@YAABIABI@Z 004212e0 f i fluidsim.obj
 0002:00009300       ??$forward@ABN@std@@YAABNABN@Z 00421300 f i fluidsim.obj
 0002:00009320       ??$forward@ABU?$Vec@$02M@@@std@@YAABU?$Vec@$02M@@ABU1@@Z 00421320 f i fluidsim.obj
 0002:00009340       ??$forward@I@std@@YA$$QAIAAI@Z 00421340 f i fluidsim.obj
 0002:00009360       ??$forward@N@std@@YA$$QANAAN@Z 00421360 f i fluidsim.obj
 0002:00009380       ??$forward@U?$Vec@$02I@@@std@@YA$$QAU?$Vec@$02I@@AAU1@@Z 00421380 f i fluidsim.obj
 0002:000093a0       ??$forward@U?$Vec@$02M@@@std@@YA$$QAU?$Vec@$02M@@AAU1@@Z 004213a0 f i fluidsim.obj
 0002:000093c0       ??$forward@V?$vector@IV?$allocator@I@std@@@std@@@std@@YA$$QAV?$vector@IV?$allocator@I@std@@@0@AAV10@@Z 004213c0 f i fluidsim.obj
 0002:000093e0       ??$forward@V?$vector@NV?$allocator@N@std@@@std@@@std@@YA$$QAV?$vector@NV?$allocator@N@std@@@0@AAV10@@Z 004213e0 f i fluidsim.obj
 0002:00009400       ??$get_barycentric@M@@YAXMAAHAAMHH@Z 00421400 f i fluidsim.obj
 0002:000094b0       ??$getline@DU?$char_traits@D@std@@V?$allocator@D@2@@std@@YAAAV?$basic_istream@DU?$char_traits@D@std@@@0@$$QAV10@AAV?$basic_string@DU?$char_traits@D@std@@V?$allocator@D@2@@0@D@Z 004214b0 f i fluidsim.obj
 0002:00009730       ??$getline@DU?$char_traits@D@std@@V?$allocator@D@2@@std@@YAAAV?$basic_istream@DU?$char_traits@D@std@@@0@AAV10@AAV?$basic_string@DU?$char_traits@D@std@@V?$allocator@D@2@@0@@Z 00421730 f i fluidsim.obj
 0002:00009790       ??$insert@I@@YAXAAV?$vector@IV?$allocator@I@std@@@std@@II@Z 00421790 f i fluidsim.obj
 0002:00009830       ??$insert@N@@YAXAAV?$vector@NV?$allocator@N@std@@@std@@IN@Z 00421830 f i fluidsim.obj
 0002:000098d0       ??$insert@V?$move_iterator@V?$_Vector_iterator@V?$_Vector_val@U?$_Simple_types@I@std@@@std@@@std@@@std@@@?$vector@IV?$allocator@I@std@@@std@@QAE?AV?$_Vector_iterator@V?$_Vector_val@U?$_Simple_types@I@std@@@std@@@1@V?$_Vector_const_iterator@V?$_Vector_val@U?$_Simple_types@I@std@@@std@@@1@V?$move_iterator@V?$_Vector_iterator@V?$_Vector_val@U?$_Simple_types@I@std@@@std@@@std@@@1@1@Z 004218d0 f i fluidsim.obj
 0002:00009960       ??$insert@V?$move_iterator@V?$_Vector_iterator@V?$_Vector_val@U?$_Simple_types@N@std@@@std@@@std@@@std@@@?$vector@NV?$allocator@N@std@@@std@@QAE?AV?$_Vector_iterator@V?$_Vector_val@U?$_Simple_types@N@std@@@std@@@1@V?$_Vector_const_iterator@V?$_Vector_val@U?$_Simple_types@N@std@@@std@@@1@V?$move_iterator@V?$_Vector_iterator@V?$_Vector_val@U?$_Simple_types@N@std@@@std@@@std@@@1@1@Z 00421960 f i fluidsim.obj
 0002:000099f0       ??$interpolate_gradient@MM@@YAMAAU?$Vec@$02M@@ABU0@ABU?$Array3@MU?$Array1@M@@@@@Z 004219f0 f i fluidsim.obj
 0002:00009e40       ??$interpolate_value@MM@@YAMABU?$Vec@$02M@@ABU?$Array3@MU?$Array1@M@@@@@Z 00421e40 f i fluidsim.obj
 0002:0000a030       ??$iter_swap@PAIPAI@std@@YAXPAI0@Z 00422030 f i fluidsim.obj
 0002:0000a060       ??$iter_swap@PANPAN@std@@YAXPAN0@Z 00422060 f i fluidsim.obj
 0002:0000a090       ??$lerp@MM@@YAMABM0M@Z     00422090 f i fluidsim.obj
 0002:0000a0e0       ??$mag2@$02M@@YAMABU?$Vec@$02M@@@Z 004220e0 f i fluidsim.obj
 0002:0000a170       ??$mag@$02M@@YAMABU?$Vec@$02M@@@Z 00422170 f i fluidsim.obj
 0002:0000a1a0       ??$make_move_iterator@V?$_Vector_iterator@V?$_Vector_val@U?$_Simple_types@I@std@@@std@@@std@@@std@@YA?AV?$move_iterator@V?$_Vector_iterator@V?$_Vector_val@U?$_Simple_types@I@std@@@std@@@std@@@0@V?$_Vector_iterator@V?$_Vector_val@U?$_Simple_types@I@std@@@std@@@0@@Z 004221a0 f i fluidsim.obj
 0002:0000a1d0       ??$make_move_iterator@V?$_Vector_iterator@V?$_Vector_val@U?$_Simple_types@N@std@@@std@@@std@@@std@@YA?AV?$move_iterator@V?$_Vector_iterator@V?$_Vector_val@U?$_Simple_types@N@std@@@std@@@std@@@0@V?$_Vector_iterator@V?$_Vector_val@U?$_Simple_types@N@std@@@std@@@0@@Z 004221d0 f i fluidsim.obj
 0002:0000a200       ??$max@H@std@@YAABHABH0@Z  00422200 f i fluidsim.obj
 0002:0000a240       ??$max@M@std@@YAABMABM0@Z  00422240 f i fluidsim.obj
 0002:0000a290       ??$min@H@std@@YAABHABH0@Z  00422290 f i fluidsim.obj
 0002:0000a2d0       ??$move@AAI@std@@YA$$QAIAAI@Z 004222d0 f i fluidsim.obj
 0002:0000a2f0       ??$move@AAN@std@@YA$$QANAAN@Z 004222f0 f i fluidsim.obj
 0002:0000a310       ??$move@AAV?$basic_istream@DU?$char_traits@D@std@@@std@@@std@@YA$$QAV?$basic_istream@DU?$char_traits@D@std@@@0@AAV10@@Z 00422310 f i fluidsim.obj
 0002:0000a330       ??$move@AAV?$vector@IV?$allocator@I@std@@@std@@@std@@YA$$QAV?$vector@IV?$allocator@I@std@@@0@AAV10@@Z 00422330 f i fluidsim.obj
 0002:0000a350       ??$move@AAV?$vector@NV?$allocator@N@std@@@std@@@std@@YA$$QAV?$vector@NV?$allocator@N@std@@@0@AAV10@@Z 00422350 f i fluidsim.obj
 0002:0000a370       ??$multiply@N@@YAXABU?$FixedSparseMatrix@N@@ABV?$vector@NV?$allocator@N@std@@@std@@AAV12@@Z 00422370 f i fluidsim.obj
 0002:0000a4c0       ??$normalize@$02M@@YAXAAU?$Vec@$02M@@@Z 004224c0 f i fluidsim.obj
 0002:0000a510       ??$rotate@PAI@std@@YAPAIPAI00@Z 00422510 f i fluidsim.obj
 0002:0000a5c0       ??$rotate@PAN@std@@YAPANPAN00@Z 004225c0 f i fluidsim.obj
 0002:0000a670       ??$solve_lower@N@@YAXABU?$SparseColumnLowerFactor@N@@ABV?$vector@NV?$allocator@N@std@@@std@@AAV12@@Z 00422670 f i fluidsim.obj
 0002:0000a810       ??$solve_lower_transpose_in_place@N@@YAXABU?$SparseColumnLowerFactor@N@@AAV?$vector@NV?$allocator@N@std@@@std@@@Z 00422810 f i fluidsim.obj
 0002:0000a990       ??$sqr@M@@YAMABM@Z         00422990 f i fluidsim.obj
 0002:0000a9c0       ??$swap@I@std@@YAXAAI0@Z   004229c0 f i fluidsim.obj
 0002:0000aa20       ??$swap@N@std@@YAXAAN0@Z   00422a20 f i fluidsim.obj
 0002:0000aa90       ??$swap@PAN@std@@YAXAAPAN0@Z 00422a90 f i fluidsim.obj
 0002:0000aaf0       ??$trilerp@MM@@YAMABM0000000MMM@Z 00422af0 f i fluidsim.obj
 0002:0000aba0       ??$update_minmax@$02M@@YAXABU?$Vec@$02M@@AAU0@1@Z 00422ba0 f i fluidsim.obj
 0002:0000ac20       ??$update_minmax@M@@YAXMAAM0@Z 00422c20 f i fluidsim.obj
 0002:0000ac80       ??$use_facet@V?$codecvt@DDH@std@@@std@@YAABV?$codecvt@DDH@0@ABVlocale@0@@Z 00422c80 f i fluidsim.obj
 0002:0000add0       ??$zero@N@@YAXAAV?$vector@NV?$allocator@N@std@@@std@@@Z 00422dd0 f i fluidsim.obj
 0002:0000ae30       ??0?$Array1@D@@QAE@K@Z     00422e30 f i fluidsim.obj
 0002:0000aef0       ??0?$Array1@M@@QAE@ABU0@@Z 00422ef0 f i fluidsim.obj
 0002:0000afc0       ??0?$Array3@DU?$Array1@D@@@@QAE@HHH@Z 00422fc0 f i fluidsim.obj
 0002:0000b050       ??0?$Array3@MU?$Array1@M@@@@QAE@ABU0@@Z 00423050 f i fluidsim.obj
 0002:0000b0b0       ??0?$Vec@$02I@@QAE@III@Z   004230b0 f i fluidsim.obj
 0002:0000b110       ??0?$Vec@$02M@@QAE@MMM@Z   00423110 f i fluidsim.obj
 0002:0000b180       ??0?$Vec@$02M@@QAE@XZ      00423180 f i fluidsim.obj
 0002:0000b1a0       ??0?$_String_alloc@$0A@U?$_String_base_types@DV?$allocator@D@std@@@std@@@std@@QAE@ABV?$allocator@D@1@@Z 004231a0 f i fluidsim.obj
 0002:0000b1d0       ??0?$_String_const_iterator@V?$_String_val@U?$_Simple_types@D@std@@@std@@@std@@QAE@PBDPBU_Container_base0@1@@Z 004231d0 f i fluidsim.obj
 0002:0000b210       ??0?$_String_iterator@V?$_String_val@U?$_Simple_types@D@std@@@std@@@std@@QAE@PADPBU_Container_base0@1@@Z 00423210 f i fluidsim.obj
 0002:0000b250       ??0?$_String_val@U?$_Simple_types@D@std@@@std@@QAE@XZ 00423250 f i fluidsim.obj
 0002:0000b290       ??0?$_Vector_alloc@$0A@U?$_Vec_base_types@IV?$allocator@I@std@@@std@@@std@@QAE@ABV?$allocator@I@1@@Z 00423290 f i fluidsim.obj
 0002:0000b2c0       ??0?$_Vector_alloc@$0A@U?$_Vec_base_types@NV?$allocator@N@std@@@std@@@std@@QAE@ABV?$allocator@N@1@@Z 004232c0 f i fluidsim.obj
 0002:0000b2f0       ??0?$_Vector_alloc@$0A@U?$_Vec_base_types@U?$Vec@$02I@@V?$allocator@U?$Vec@$02I@@@std@@@std@@@std@@QAE@ABV?$allocator@U?$Vec@$02I@@@1@@Z 004232f0 f i fluidsim.obj
 0002:0000b320       ??0?$_Vector_alloc@$0A@U?$_Vec_base_types@U?$Vec@$02M@@V?$allocator@U?$Vec@$02M@@@std@@@std@@@std@@QAE@ABV?$allocator@U?$Vec@$02M@@@1@@Z 00423320 f i fluidsim.obj
 0002:0000b350       ??0?$_Vector_const_iterator@V?$_Vector_val@U?$_Simple_types@I@std@@@std@@@std@@QAE@PAIPBU_Container_base0@1@@Z 00423350 f i fluidsim.obj
 0002:0000b390       ??0?$_Vector_const_iterator@V?$_Vector_val@U?$_Simple_types@N@std@@@std@@@std@@QAE@PANPBU_Container_base0@1@@Z 00423390 f i fluidsim.obj
 0002:0000b3d0       ??0?$_Vector_const_iterator@V?$_Vector_val@U?$_Simple_types@V?$vector@IV?$allocator@I@std@@@std@@@std@@@std@@@std@@QAE@PAV?$vector@IV?$allocator@I@std@@@1@PBU_Container_base0@1@@Z 004233d0 f i fluidsim.obj
 0002:0000b410       ??0?$_Vector_const_iterator@V?$_Vector_val@U?$_Simple_types@V?$vector@NV?$allocator@N@std@@@std@@@std@@@std@@@std@@QAE@PAV?$vector@NV?$allocator@N@std@@@1@PBU_Container_base0@1@@Z 00423410 f i fluidsim.obj
 0002:0000b450       ??0?$_Vector_iterator@V?$_Vector_val@U?$_Simple_types@I@std@@@std@@@std@@QAE@PAIPBU_Container_base0@1@@Z 00423450 f i fluidsim.obj
 0002:0000b490       ??0?$_Vector_iterator@V?$_Vector_val@U?$_Simple_types@N@std@@@std@@@std@@QAE@PANPBU_Container_base0@1@@Z 00423490 f i fluidsim.obj
 0002:0000b4d0       ??0?$_Vector_iterator@V?$_Vector_val@U?$_Simple_types@V?$vector@IV?$allocator@I@std@@@std@@@std@@@std@@@std@@QAE@PAV?$vector@IV?$allocator@I@std@@@1@PBU_Container_base0@1@@Z 004234d0 f i fluidsim.obj
 0002:0000b510       ??0?$_Vector_iterator@V?$_Vector_val@U?$_Simple_types@V?$vector@NV?$allocator@N@std@@@std@@@std@@@std@@@std@@QAE@PAV?$vector@NV?$allocator@N@std@@@1@PBU_Container_base0@1@@Z 00423510 f i fluidsim.obj
 0002:0000b550       ??0?$_Vector_val@U?$_Simple_types@I@std@@@std@@QAE@XZ 00423550 f i fluidsim.obj
 0002:0000b590       ??0?$_Vector_val@U?$_Simple_types@N@std@@@std@@QAE@XZ 00423590 f i fluidsim.obj
 0002:0000b5d0       ??0?$_Vector_val@U?$_Simple_types@U?$Vec@$02I@@@std@@@std@@QAE@XZ 004235d0 f i fluidsim.obj
 0002:0000b610       ??0?$_Vector_val@U?$_Simple_types@U?$Vec@$02M@@@std@@@std@@QAE@XZ 00423610 f i fluidsim.obj
 0002:0000b650       ??0?$_Wrap_alloc@V?$allocator@D@std@@@std@@QAE@ABV?$allocator@D@1@@Z 00423650 f i fluidsim.obj
 0002:0000b680       ??0?$_Wrap_alloc@V?$allocator@D@std@@@std@@QAE@XZ 00423680 f i fluidsim.obj
 0002:0000b6b0       ??0?$_Wrap_alloc@V?$allocator@I@std@@@std@@QAE@XZ 004236b0 f i fluidsim.obj
 0002:0000b6e0       ??0?$_Wrap_alloc@V?$allocator@N@std@@@std@@QAE@XZ 004236e0 f i fluidsim.obj
 0002:0000b710       ??0?$_Wrap_alloc@V?$allocator@U?$Vec@$02I@@@std@@@std@@QAE@XZ 00423710 f i fluidsim.obj
 0002:0000b740       ??0?$_Wrap_alloc@V?$allocator@U?$Vec@$02M@@@std@@@std@@QAE@XZ 00423740 f i fluidsim.obj
 0002:0000b770       ??0?$_Wrap_alloc@V?$allocator@V?$vector@IV?$allocator@I@std@@@std@@@std@@@std@@QAE@XZ 00423770 f i fluidsim.obj
 0002:0000b7a0       ??0?$_Wrap_alloc@V?$allocator@V?$vector@NV?$allocator@N@std@@@std@@@std@@@std@@QAE@XZ 004237a0 f i fluidsim.obj
 0002:0000b7d0       ??0?$allocator@D@std@@QAE@ABV01@@Z 004237d0 f i fluidsim.obj
 0002:0000b7f0       ??0?$allocator@D@std@@QAE@XZ 004237f0 f i fluidsim.obj
 0002:0000b810       ??0?$allocator@I@std@@QAE@ABV01@@Z 00423810 f i fluidsim.obj
 0002:0000b830       ??0?$allocator@I@std@@QAE@XZ 00423830 f i fluidsim.obj
 0002:0000b850       ??0?$allocator@N@std@@QAE@ABV01@@Z 00423850 f i fluidsim.obj
 0002:0000b870       ??0?$allocator@N@std@@QAE@XZ 00423870 f i fluidsim.obj
 0002:0000b890       ??0?$allocator@U?$Vec@$02I@@@std@@QAE@XZ 00423890 f i fluidsim.obj
 0002:0000b8b0       ??0?$allocator@U?$Vec@$02M@@@std@@QAE@XZ 004238b0 f i fluidsim.obj
 0002:0000b8d0       ??0?$allocator@V?$vector@IV?$allocator@I@std@@@std@@@std@@QAE@XZ 004238d0 f i fluidsim.obj
 0002:0000b8f0       ??0?$allocator@V?$vector@NV?$allocator@N@std@@@std@@@std@@QAE@XZ 004238f0 f i fluidsim.obj
 0002:0000b910       ??0?$basic_filebuf@DU?$char_traits@D@std@@@std@@QAE@PAU_iobuf@@@Z 00423910 f i fluidsim.obj
 0002:0000b9a0       ??0?$basic_ifstream@DU?$char_traits@D@std@@@std@@QAE@ABV?$basic_string@DU?$char_traits@D@std@@V?$allocator@D@2@@1@HH@Z 004239a0 f i fluidsim.obj
 0002:0000baf0       ??0?$basic_string@DU?$char_traits@D@std@@V?$allocator@D@2@@std@@QAE@ABV01@@Z 00423af0 f i fluidsim.obj
 0002:0000bb60       ??0?$basic_string@DU?$char_traits@D@std@@V?$allocator@D@2@@std@@QAE@ABV01@IIABV?$allocator@D@1@@Z 00423b60 f i fluidsim.obj
 0002:0000bbc0       ??0?$basic_string@DU?$char_traits@D@std@@V?$allocator@D@2@@std@@QAE@ID@Z 00423bc0 f i fluidsim.obj
 0002:0000bc20       ??0?$basic_string@DU?$char_traits@D@std@@V?$allocator@D@2@@std@@QAE@PBD@Z 00423c20 f i fluidsim.obj
 0002:0000bc80       ??0?$basic_string@DU?$char_traits@D@std@@V?$allocator@D@2@@std@@QAE@XZ 00423c80 f i fluidsim.obj
 0002:0000bcc0       ??0?$basic_stringbuf@DU?$char_traits@D@std@@V?$allocator@D@2@@std@@QAE@ABV?$basic_string@DU?$char_traits@D@std@@V?$allocator@D@2@@1@H@Z 00423cc0 f i fluidsim.obj
 0002:0000bd80       ??0?$basic_stringstream@DU?$char_traits@D@std@@V?$allocator@D@2@@std@@QAE@ABV?$basic_string@DU?$char_traits@D@std@@V?$allocator@D@2@@1@H@Z 00423d80 f i fluidsim.obj
 0002:0000bea0       ??0?$fpos@H@std@@QAE@H_J@Z 00423ea0 f i fluidsim.obj
 0002:0000bef0       ??0?$fpos@H@std@@QAE@_J@Z  00423ef0 f i fluidsim.obj
 0002:0000bf50       ??0?$move_iterator@V?$_Vector_iterator@V?$_Vector_val@U?$_Simple_types@I@std@@@std@@@std@@@std@@QAE@V?$_Vector_iterator@V?$_Vector_val@U?$_Simple_types@I@std@@@std@@@1@@Z 00423f50 f i fluidsim.obj
 0002:0000bf80       ??0?$move_iterator@V?$_Vector_iterator@V?$_Vector_val@U?$_Simple_types@N@std@@@std@@@std@@@std@@QAE@V?$_Vector_iterator@V?$_Vector_val@U?$_Simple_types@N@std@@@std@@@1@@Z 00423f80 f i fluidsim.obj
 0002:0000bfb0       ??0?$vector@IV?$allocator@I@std@@@std@@QAE@$$QAV01@@Z 00423fb0 f i fluidsim.obj
 0002:0000c010       ??0?$vector@IV?$allocator@I@std@@@std@@QAE@XZ 00424010 f i fluidsim.obj
 0002:0000c040       ??0?$vector@NV?$allocator@N@std@@@std@@QAE@$$QAV01@@Z 00424040 f i fluidsim.obj
 0002:0000c0a0       ??0?$vector@NV?$allocator@N@std@@@std@@QAE@XZ 004240a0 f i fluidsim.obj
 0002:0000c0d0       ??0?$vector@U?$Vec@$02I@@V?$allocator@U?$Vec@$02I@@@std@@@std@@QAE@XZ 004240d0 f i fluidsim.obj
 0002:0000c100       ??0?$vector@U?$Vec@$02M@@V?$allocator@U?$Vec@$02M@@@std@@@std@@QAE@XZ 00424100 f i fluidsim.obj
 0002:0000c130       ??0_Generic_error_category@std@@QAE@XZ 00424130 f i fluidsim.obj
 0002:0000c160       ??0_Iostream_error_category@std@@QAE@XZ 00424160 f i fluidsim.obj
 0002:0000c190       ??0_Sentry_base@?$basic_istream@DU?$char_traits@D@std@@@std@@QAE@AAV12@@Z 00424190 f i fluidsim.obj
 0002:0000c210       ??0_Sentry_base@?$basic_ostream@DU?$char_traits@D@std@@@std@@QAE@AAV12@@Z 00424210 f i fluidsim.obj
 0002:0000c290       ??0_System_error_category@std@@QAE@XZ 00424290 f i fluidsim.obj
 0002:0000c2c0       ??0bad_alloc@std@@QAE@ABV01@@Z 004242c0 f i fluidsim.obj
 0002:0000c300       ??0bad_alloc@std@@QAE@XZ   00424300 f i fluidsim.obj
 0002:0000c350       ??0error_category@std@@QAE@XZ 00424350 f i fluidsim.obj
 0002:0000c380       ??0error_condition@std@@QAE@HABVerror_category@1@@Z 00424380 f i fluidsim.obj
 0002:0000c3c0       ??0sentry@?$basic_istream@DU?$char_traits@D@std@@@std@@QAE@AAV12@_N@Z 004243c0 f i fluidsim.obj
 0002:0000c450       ??0sentry@?$basic_ostream@DU?$char_traits@D@std@@@std@@QAE@AAV12@@Z 00424450 f i fluidsim.obj
 0002:0000c550       ??1?$Array1@D@@QAE@XZ      00424550 f i fluidsim.obj
 0002:0000c5a0       ??1?$Array1@M@@QAE@XZ      004245a0 f i fluidsim.obj
 0002:0000c5f0       ??1?$Array3@DU?$Array1@D@@@@QAE@XZ 004245f0 f i fluidsim.obj
 0002:0000c630       ??1?$Array3@MU?$Array1@M@@@@QAE@XZ 00424630 f i fluidsim.obj
 0002:0000c670       ??1?$basic_filebuf@DU?$char_traits@D@std@@@std@@UAE@XZ 00424670 f i fluidsim.obj
 0002:0000c6d0       ??1?$basic_ifstream@DU?$char_traits@D@std@@@std@@UAE@XZ 004246d0 f i fluidsim.obj
 0002:0000c740       ??1?$basic_string@DU?$char_traits@D@std@@V?$allocator@D@2@@std@@QAE@XZ 00424740 f i fluidsim.obj
 0002:0000c770       ??1?$basic_stringbuf@DU?$char_traits@D@std@@V?$allocator@D@2@@std@@UAE@XZ 00424770 f i fluidsim.obj
 0002:0000c7b0       ??1?$basic_stringstream@DU?$char_traits@D@std@@V?$allocator@D@2@@std@@UAE@XZ 004247b0 f i fluidsim.obj
 0002:0000c820       ??1?$vector@IV?$allocator@I@std@@@std@@QAE@XZ 00424820 f i fluidsim.obj
 0002:0000c850       ??1?$vector@NV?$allocator@N@std@@@std@@QAE@XZ 00424850 f i fluidsim.obj
 0002:0000c880       ??1?$vector@U?$Vec@$02I@@V?$allocator@U?$Vec@$02I@@@std@@@std@@QAE@XZ 00424880 f i fluidsim.obj
 0002:0000c8b0       ??1?$vector@U?$Vec@$02M@@V?$allocator@U?$Vec@$02M@@@std@@@std@@QAE@XZ 004248b0 f i fluidsim.obj
 0002:0000c8e0       ??1_Generic_error_category@std@@UAE@XZ 004248e0 f i fluidsim.obj
 0002:0000c910       ??1_Iostream_error_category@std@@UAE@XZ 00424910 f i fluidsim.obj
 0002:0000c940       ??1_Sentry_base@?$basic_istream@DU?$char_traits@D@std@@@std@@QAE@XZ 00424940 f i fluidsim.obj
 0002:0000c9b0       ??1_Sentry_base@?$basic_ostream@DU?$char_traits@D@std@@@std@@QAE@XZ 004249b0 f i fluidsim.obj
 0002:0000ca20       ??1_System_error_category@std@@UAE@XZ 00424a20 f i fluidsim.obj
 0002:0000ca50       ??1bad_alloc@std@@UAE@XZ   00424a50 f i fluidsim.obj
 0002:0000ca80       ??1error_category@std@@UAE@XZ 00424a80 f i fluidsim.obj
 0002:0000cab0       ??1locale@std@@QAE@XZ      00424ab0 f i fluidsim.obj
 0002:0000cb20       ??1sentry@?$basic_istream@DU?$char_traits@D@std@@@std@@QAE@XZ 00424b20 f i fluidsim.obj
 0002:0000cb50       ??1sentry@?$basic_ostream@DU?$char_traits@D@std@@@std@@QAE@XZ 00424b50 f i fluidsim.obj
 0002:0000cb90       ??2@YAPAXIPAX@Z            00424b90 f i fluidsim.obj
 0002:0000cbb0       ??3@YAXPAX0@Z              00424bb0 f i fluidsim.obj
 0002:0000cbd0       ??4?$Array1@D@@QAEAAU0@ABU0@@Z 00424bd0 f i fluidsim.obj
 0002:0000cca0       ??4?$Array1@M@@QAEAAU0@ABU0@@Z 00424ca0 f i fluidsim.obj
 0002:0000cd70       ??4?$Array3@DU?$Array1@D@@@@QAEAAU0@ABU0@@Z 00424d70 f i fluidsim.obj
 0002:0000cdd0       ??4?$Array3@MU?$Array1@M@@@@QAEAAU0@ABU0@@Z 00424dd0 f i fluidsim.obj
 0002:0000ce30       ??4?$basic_string@DU?$char_traits@D@std@@V?$allocator@D@2@@std@@QAEAAV01@PBD@Z 00424e30 f i fluidsim.obj
 0002:0000ce60       ??4?$vector@IV?$allocator@I@std@@@std@@QAEAAV01@$$QAV01@@Z 00424e60 f i fluidsim.obj
 0002:0000cf90       ??4?$vector@NV?$allocator@N@std@@@std@@QAEAAV01@$$QAV01@@Z 00424f90 f i fluidsim.obj
 0002:0000d0c0       ??4?$vector@NV?$allocator@N@std@@@std@@QAEAAV01@ABV01@@Z 004250c0 f i fluidsim.obj
 0002:0000d390       ??8?$_Vector_const_iterator@V?$_Vector_val@U?$_Simple_types@I@std@@@std@@@std@@QBE_NABV01@@Z 00425390 f i fluidsim.obj
 0002:0000d3e0       ??8?$_Vector_const_iterator@V?$_Vector_val@U?$_Simple_types@N@std@@@std@@@std@@QBE_NABV01@@Z 004253e0 f i fluidsim.obj
 0002:0000d430       ??8?$_Vector_const_iterator@V?$_Vector_val@U?$_Simple_types@V?$vector@IV?$allocator@I@std@@@std@@@std@@@std@@@std@@QBE_NABV01@@Z 00425430 f i fluidsim.obj
 0002:0000d480       ??8?$_Vector_const_iterator@V?$_Vector_val@U?$_Simple_types@V?$vector@NV?$allocator@N@std@@@std@@@std@@@std@@@std@@QBE_NABV01@@Z 00425480 f i fluidsim.obj
 0002:0000d4d0       ??8error_category@std@@QBE_NABV01@@Z 004254d0 f i fluidsim.obj
 0002:0000d510       ??8error_condition@std@@QBE_NABV01@@Z 00425510 f i fluidsim.obj
 0002:0000d590       ??9?$_Vector_const_iterator@V?$_Vector_val@U?$_Simple_types@I@std@@@std@@@std@@QBE_NABV01@@Z 00425590 f i fluidsim.obj
 0002:0000d5e0       ??9?$_Vector_const_iterator@V?$_Vector_val@U?$_Simple_types@N@std@@@std@@@std@@QBE_NABV01@@Z 004255e0 f i fluidsim.obj
 0002:0000d630       ??9?$_Vector_const_iterator@V?$_Vector_val@U?$_Simple_types@V?$vector@IV?$allocator@I@std@@@std@@@std@@@std@@@std@@QBE_NABV01@@Z 00425630 f i fluidsim.obj
 0002:0000d680       ??9?$_Vector_const_iterator@V?$_Vector_val@U?$_Simple_types@V?$vector@NV?$allocator@N@std@@@std@@@std@@@std@@@std@@QBE_NABV01@@Z 00425680 f i fluidsim.obj
 0002:0000d6d0       ??A?$Array1@D@@QAEAADK@Z   004256d0 f i fluidsim.obj
 0002:0000d700       ??A?$Array1@M@@QAEAAMK@Z   00425700 f i fluidsim.obj
 0002:0000d730       ??A?$Array1@M@@QBEABMK@Z   00425730 f i fluidsim.obj
 0002:0000d760       ??A?$Vec@$02H@@QAEAAHH@Z   00425760 f i fluidsim.obj
 0002:0000d7b0       ??A?$Vec@$02M@@QAEAAMH@Z   004257b0 f i fluidsim.obj
 0002:0000d800       ??A?$Vec@$02M@@QBEABMH@Z   00425800 f i fluidsim.obj
 0002:0000d850       ??A?$vector@IV?$allocator@I@std@@@std@@QAEAAII@Z 00425850 f i fluidsim.obj
 0002:0000d880       ??A?$vector@IV?$allocator@I@std@@@std@@QBEABII@Z 00425880 f i fluidsim.obj
 0002:0000d8b0       ??A?$vector@NV?$allocator@N@std@@@std@@QAEAANI@Z 004258b0 f i fluidsim.obj
 0002:0000d8e0       ??A?$vector@NV?$allocator@N@std@@@std@@QBEABNI@Z 004258e0 f i fluidsim.obj
 0002:0000d910       ??A?$vector@U?$Vec@$02M@@V?$allocator@U?$Vec@$02M@@@std@@@std@@QAEAAU?$Vec@$02M@@I@Z 00425910 f i fluidsim.obj
 0002:0000d940       ??A?$vector@V?$vector@IV?$allocator@I@std@@@std@@V?$allocator@V?$vector@IV?$allocator@I@std@@@std@@@2@@std@@QAEAAV?$vector@IV?$allocator@I@std@@@1@I@Z 00425940 f i fluidsim.obj
 0002:0000d970       ??A?$vector@V?$vector@IV?$allocator@I@std@@@std@@V?$allocator@V?$vector@IV?$allocator@I@std@@@std@@@2@@std@@QBEABV?$vector@IV?$allocator@I@std@@@1@I@Z 00425970 f i fluidsim.obj
 0002:0000d9a0       ??A?$vector@V?$vector@NV?$allocator@N@std@@@std@@V?$allocator@V?$vector@NV?$allocator@N@std@@@std@@@2@@std@@QAEAAV?$vector@NV?$allocator@N@std@@@1@I@Z 004259a0 f i fluidsim.obj
 0002:0000d9d0       ??A?$vector@V?$vector@NV?$allocator@N@std@@@std@@V?$allocator@V?$vector@NV?$allocator@N@std@@@std@@@2@@std@@QBEABV?$vector@NV?$allocator@N@std@@@1@I@Z 004259d0 f i fluidsim.obj
 0002:0000da00       ??B?$fpos@H@std@@QBE_JXZ   00425a00 f i fluidsim.obj
 0002:0000da40       ??Bsentry@?$basic_istream@DU?$char_traits@D@std@@@std@@QBEPQ?$_Bool_struct@V?$basic_istream@DU?$char_traits@D@std@@@std@@@2@HXZ 00425a40 f i fluidsim.obj
 0002:0000da80       ??Bsentry@?$basic_ostream@DU?$char_traits@D@std@@@std@@QBEPQ?$_Bool_struct@V?$basic_ostream@DU?$char_traits@D@std@@@std@@@2@HXZ 00425a80 f i fluidsim.obj
 0002:0000dac0       ??D?$_String_const_iterator@V?$_String_val@U?$_Simple_types@D@std@@@std@@@std@@QBEABDXZ 00425ac0 f i fluidsim.obj
 0002:0000dae0       ??D?$_String_iterator@V?$_String_val@U?$_Simple_types@D@std@@@std@@@std@@QBEAADXZ 00425ae0 f i fluidsim.obj
 0002:0000db10       ??D?$_Vector_const_iterator@V?$_Vector_val@U?$_Simple_types@I@std@@@std@@@std@@QBEABIXZ 00425b10 f i fluidsim.obj
 0002:0000db30       ??D?$_Vector_const_iterator@V?$_Vector_val@U?$_Simple_types@N@std@@@std@@@std@@QBEABNXZ 00425b30 f i fluidsim.obj
 0002:0000db50       ??D?$_Vector_iterator@V?$_Vector_val@U?$_Simple_types@I@std@@@std@@@std@@QBEAAIXZ 00425b50 f i fluidsim.obj
 0002:0000db80       ??D?$_Vector_iterator@V?$_Vector_val@U?$_Simple_types@N@std@@@std@@@std@@QBEAANXZ 00425b80 f i fluidsim.obj
 0002:0000dbb0       ??D?$move_iterator@V?$_Vector_iterator@V?$_Vector_val@U?$_Simple_types@I@std@@@std@@@std@@@std@@QBE$$QAIXZ 00425bb0 f i fluidsim.obj
 0002:0000dbe0       ??D?$move_iterator@V?$_Vector_iterator@V?$_Vector_val@U?$_Simple_types@N@std@@@std@@@std@@@std@@QBE$$QANXZ 00425be0 f i fluidsim.obj
 0002:0000dc10       ??E?$_Vector_const_iterator@V?$_Vector_val@U?$_Simple_types@I@std@@@std@@@std@@QAEAAV01@XZ 00425c10 f i fluidsim.obj
 0002:0000dc40       ??E?$_Vector_const_iterator@V?$_Vector_val@U?$_Simple_types@N@std@@@std@@@std@@QAEAAV01@XZ 00425c40 f i fluidsim.obj
 0002:0000dc70       ??E?$_Vector_iterator@V?$_Vector_val@U?$_Simple_types@I@std@@@std@@@std@@QAEAAV01@XZ 00425c70 f i fluidsim.obj
 0002:0000dca0       ??E?$_Vector_iterator@V?$_Vector_val@U?$_Simple_types@N@std@@@std@@@std@@QAEAAV01@XZ 00425ca0 f i fluidsim.obj
 0002:0000dcd0       ??E?$move_iterator@V?$_Vector_iterator@V?$_Vector_val@U?$_Simple_types@I@std@@@std@@@std@@@std@@QAEAAV01@XZ 00425cd0 f i fluidsim.obj
 0002:0000dd00       ??E?$move_iterator@V?$_Vector_iterator@V?$_Vector_val@U?$_Simple_types@N@std@@@std@@@std@@@std@@QAEAAV01@XZ 00425d00 f i fluidsim.obj
 0002:0000dd30       ??G?$Vec@$02M@@QBE?AU0@ABU0@@Z 00425d30 f i fluidsim.obj
 0002:0000ddb0       ??G?$_Vector_const_iterator@V?$_Vector_val@U?$_Simple_types@I@std@@@std@@@std@@QBEHABV01@@Z 00425db0 f i fluidsim.obj
 0002:0000ddf0       ??G?$_Vector_const_iterator@V?$_Vector_val@U?$_Simple_types@N@std@@@std@@@std@@QBEHABV01@@Z 00425df0 f i fluidsim.obj
 0002:0000de30       ??G?$_Vector_iterator@V?$_Vector_val@U?$_Simple_types@I@std@@@std@@@std@@QBE?AV01@H@Z 00425e30 f i fluidsim.obj
 0002:0000de70       ??G?$_Vector_iterator@V?$_Vector_val@U?$_Simple_types@I@std@@@std@@@std@@QBEHABV?$_Vector_const_iterator@V?$_Vector_val@U?$_Simple_types@I@std@@@std@@@1@@Z 00425e70 f i fluidsim.obj
 0002:0000dea0       ??G?$_Vector_iterator@V?$_Vector_val@U?$_Simple_types@N@std@@@std@@@std@@QBE?AV01@H@Z 00425ea0 f i fluidsim.obj
 0002:0000dee0       ??G?$_Vector_iterator@V?$_Vector_val@U?$_Simple_types@N@std@@@std@@@std@@QBEHABV?$_Vector_const_iterator@V?$_Vector_val@U?$_Simple_types@N@std@@@std@@@1@@Z 00425ee0 f i fluidsim.obj
 0002:0000df10       ??H?$Vec@$02M@@QBE?AU0@ABU0@@Z 00425f10 f i fluidsim.obj
 0002:0000df90       ??H?$_Vector_iterator@V?$_Vector_val@U?$_Simple_types@I@std@@@std@@@std@@QBE?AV01@H@Z 00425f90 f i fluidsim.obj
 0002:0000dfd0       ??H?$_Vector_iterator@V?$_Vector_val@U?$_Simple_types@N@std@@@std@@@std@@QBE?AV01@H@Z 00425fd0 f i fluidsim.obj
 0002:0000e010       ??H?$_Vector_iterator@V?$_Vector_val@U?$_Simple_types@V?$vector@IV?$allocator@I@std@@@std@@@std@@@std@@@std@@QBE?AV01@H@Z 00426010 f i fluidsim.obj
 0002:0000e050       ??H?$_Vector_iterator@V?$_Vector_val@U?$_Simple_types@V?$vector@NV?$allocator@N@std@@@std@@@std@@@std@@@std@@QBE?AV01@H@Z 00426050 f i fluidsim.obj
 0002:0000e090       ??K?$Vec@$02M@@QBE?AU0@M@Z 00426090 f i fluidsim.obj
 0002:0000e120       ??R?$Array3@DU?$Array1@D@@@@QAEAADHHH@Z 00426120 f i fluidsim.obj
 0002:0000e1c0       ??R?$Array3@MU?$Array1@M@@@@QAEAAMHHH@Z 004261c0 f i fluidsim.obj
 0002:0000e260       ??R?$Array3@MU?$Array1@M@@@@QBEABMHHH@Z 00426260 f i fluidsim.obj
 0002:0000e300       ??X?$Vec@$02M@@QAE?AU0@M@Z 00426300 f i fluidsim.obj
 0002:0000e380       ??Y?$Vec@$02M@@QAE?AU0@ABU0@@Z 00426380 f i fluidsim.obj
 0002:0000e410       ??Y?$_Vector_const_iterator@V?$_Vector_val@U?$_Simple_types@I@std@@@std@@@std@@QAEAAV01@H@Z 00426410 f i fluidsim.obj
 0002:0000e450       ??Y?$_Vector_const_iterator@V?$_Vector_val@U?$_Simple_types@N@std@@@std@@@std@@QAEAAV01@H@Z 00426450 f i fluidsim.obj
 0002:0000e490       ??Y?$_Vector_const_iterator@V?$_Vector_val@U?$_Simple_types@V?$vector@IV?$allocator@I@std@@@std@@@std@@@std@@@std@@QAEAAV01@H@Z 00426490 f i fluidsim.obj
 0002:0000e4d0       ??Y?$_Vector_const_iterator@V?$_Vector_val@U?$_Simple_types@V?$vector@NV?$allocator@N@std@@@std@@@std@@@std@@@std@@QAEAAV01@H@Z 004264d0 f i fluidsim.obj
 0002:0000e510       ??Y?$_Vector_iterator@V?$_Vector_val@U?$_Simple_types@I@std@@@std@@@std@@QAEAAV01@H@Z 00426510 f i fluidsim.obj
 0002:0000e540       ??Y?$_Vector_iterator@V?$_Vector_val@U?$_Simple_types@N@std@@@std@@@std@@QAEAAV01@H@Z 00426540 f i fluidsim.obj
 0002:0000e570       ??Y?$_Vector_iterator@V?$_Vector_val@U?$_Simple_types@V?$vector@IV?$allocator@I@std@@@std@@@std@@@std@@@std@@QAEAAV01@H@Z 00426570 f i fluidsim.obj
 0002:0000e5a0       ??Y?$_Vector_iterator@V?$_Vector_val@U?$_Simple_types@V?$vector@NV?$allocator@N@std@@@std@@@std@@@std@@@std@@QAEAAV01@H@Z 004265a0 f i fluidsim.obj
 0002:0000e5d0       ??Y?$basic_string@DU?$char_traits@D@std@@V?$allocator@D@2@@std@@QAEAAV01@D@Z 004265d0 f i fluidsim.obj
 0002:0000e600       ??Z?$Vec@$02M@@QAE?AU0@ABU0@@Z 00426600 f i fluidsim.obj
 0002:0000e690       ??Z?$_Vector_iterator@V?$_Vector_val@U?$_Simple_types@I@std@@@std@@@std@@QAEAAV01@H@Z 00426690 f i fluidsim.obj
 0002:0000e6c0       ??Z?$_Vector_iterator@V?$_Vector_val@U?$_Simple_types@N@std@@@std@@@std@@QAEAAV01@H@Z 004266c0 f i fluidsim.obj
 0002:0000e6f0       ??_0?$Vec@$02M@@QAE?AU0@M@Z 004266f0 f i fluidsim.obj
 0002:0000e770       ??_D?$basic_ifstream@DU?$char_traits@D@std@@@std@@QAEXXZ 00426770 f i fluidsim.obj
 0002:0000e7b0       ??_D?$basic_stringstream@DU?$char_traits@D@std@@V?$allocator@D@2@@std@@QAEXXZ 004267b0 f i fluidsim.obj
 0002:0000e7e4       ??_E?$basic_ifstream@DU?$char_traits@D@std@@@std@@$4PPPPPPPM@A@AEPAXI@Z 004267e4 f i fluidsim.obj
 0002:0000e7ee       ??_E?$basic_stringstream@DU?$char_traits@D@std@@V?$allocator@D@2@@std@@$4PPPPPPPM@A@AEPAXI@Z 004267ee f i fluidsim.obj
 0002:0000e800       ??_G?$basic_filebuf@DU?$char_traits@D@std@@@std@@UAEPAXI@Z 00426800 f i fluidsim.obj
 0002:0000e800       ??_E?$basic_filebuf@DU?$char_traits@D@std@@@std@@UAEPAXI@Z 00426800 f i fluidsim.obj
 0002:0000e850       ??_G?$basic_ifstream@DU?$char_traits@D@std@@@std@@UAEPAXI@Z 00426850 f i fluidsim.obj
 0002:0000e850       ??_E?$basic_ifstream@DU?$char_traits@D@std@@@std@@UAEPAXI@Z 00426850 f i fluidsim.obj
 0002:0000e8a0       ??_G?$basic_stringbuf@DU?$char_traits@D@std@@V?$allocator@D@2@@std@@UAEPAXI@Z 004268a0 f i fluidsim.obj
 0002:0000e8a0       ??_E?$basic_stringbuf@DU?$char_traits@D@std@@V?$allocator@D@2@@std@@UAEPAXI@Z 004268a0 f i fluidsim.obj
 0002:0000e8f0       ??_G?$basic_stringstream@DU?$char_traits@D@std@@V?$allocator@D@2@@std@@UAEPAXI@Z 004268f0 f i fluidsim.obj
 0002:0000e8f0       ??_E?$basic_stringstream@DU?$char_traits@D@std@@V?$allocator@D@2@@std@@UAEPAXI@Z 004268f0 f i fluidsim.obj
 0002:0000e940       ??_G?$vector@IV?$allocator@I@std@@@std@@QAEPAXI@Z 00426940 f i fluidsim.obj
 0002:0000e990       ??_G?$vector@NV?$allocator@N@std@@@std@@QAEPAXI@Z 00426990 f i fluidsim.obj
 0002:0000e9e0       ??_E_Generic_error_category@std@@UAEPAXI@Z 004269e0 f i fluidsim.obj
 0002:0000e9e0       ??_G_Generic_error_category@std@@UAEPAXI@Z 004269e0 f i fluidsim.obj
 0002:0000ea30       ??_E_Iostream_error_category@std@@UAEPAXI@Z 00426a30 f i fluidsim.obj
 0002:0000ea30       ??_G_Iostream_error_category@std@@UAEPAXI@Z 00426a30 f i fluidsim.obj
 0002:0000ea80       ??_E_System_error_category@std@@UAEPAXI@Z 00426a80 f i fluidsim.obj
 0002:0000ea80       ??_G_System_error_category@std@@UAEPAXI@Z 00426a80 f i fluidsim.obj
 0002:0000ead0       ??_Ebad_alloc@std@@UAEPAXI@Z 00426ad0 f i fluidsim.obj
 0002:0000ead0       ??_Gbad_alloc@std@@UAEPAXI@Z 00426ad0 f i fluidsim.obj
 0002:0000eb20       ??_Eerror_category@std@@UAEPAXI@Z 00426b20 f i fluidsim.obj
 0002:0000eb20       ??_Gerror_category@std@@UAEPAXI@Z 00426b20 f i fluidsim.obj
 0002:0000eb61       ?_Add_vtordisp1@?$basic_istream@DU?$char_traits@D@std@@@std@@$4PPPPPPPM@FA@AEXXZ 00426b61 f i fluidsim.obj
 0002:0000eb70       ?_Add_vtordisp1@?$basic_istream@DU?$char_traits@D@std@@@std@@$4PPPPPPPM@FI@AEXXZ 00426b70 f i fluidsim.obj
 0002:0000eb7f       ?_Add_vtordisp2@?$basic_ostream@DU?$char_traits@D@std@@@std@@$4PPPPPPPM@FA@AEXXZ 00426b7f f i fluidsim.obj
 0002:0000eb90       ?_Adopt@_Iterator_base0@std@@QAEXPBX@Z 00426b90 f i fluidsim.obj
 0002:0000ebb0       ?_Assign_n@?$vector@NV?$allocator@N@std@@@std@@IAEXIABN@Z 00426bb0 f i fluidsim.obj
 0002:0000ec50       ?_Assign_rv@?$vector@IV?$allocator@I@std@@@std@@QAEX$$QAV12@@Z 00426c50 f i fluidsim.obj
 0002:0000ecd0       ?_Assign_rv@?$vector@NV?$allocator@N@std@@@std@@QAEX$$QAV12@@Z 00426cd0 f i fluidsim.obj
 0002:0000ed50       ?_Buy@?$vector@NV?$allocator@N@std@@@std@@IAE_NI@Z 00426d50 f i fluidsim.obj
 0002:0000ee10       ?_Change_alloc@?$_Vector_alloc@$0A@U?$_Vec_base_types@IV?$allocator@I@std@@@std@@@std@@QAEXABU?$_Wrap_alloc@V?$allocator@I@std@@@2@@Z 00426e10 f i fluidsim.obj
 0002:0000ee30       ?_Change_alloc@?$_Vector_alloc@$0A@U?$_Vec_base_types@NV?$allocator@N@std@@@std@@@std@@QAEXABU?$_Wrap_alloc@V?$allocator@N@std@@@2@@Z 00426e30 f i fluidsim.obj
 0002:0000ee50       ?_Chassign@?$basic_string@DU?$char_traits@D@std@@V?$allocator@D@2@@std@@QAEXIID@Z 00426e50 f i fluidsim.obj
 0002:0000eec0       ?_Compat@?$_Vector_const_iterator@V?$_Vector_val@U?$_Simple_types@I@std@@@std@@@std@@QBEXABV12@@Z 00426ec0 f i fluidsim.obj
 0002:0000eee0       ?_Compat@?$_Vector_const_iterator@V?$_Vector_val@U?$_Simple_types@N@std@@@std@@@std@@QBEXABV12@@Z 00426ee0 f i fluidsim.obj
 0002:0000ef00       ?_Compat@?$_Vector_const_iterator@V?$_Vector_val@U?$_Simple_types@V?$vector@IV?$allocator@I@std@@@std@@@std@@@std@@@std@@QBEXABV12@@Z 00426f00 f i fluidsim.obj
 0002:0000ef20       ?_Compat@?$_Vector_const_iterator@V?$_Vector_val@U?$_Simple_types@V?$vector@NV?$allocator@N@std@@@std@@@std@@@std@@@std@@QBEXABV12@@Z 00426f20 f i fluidsim.obj
 0002:0000ef40       ?_Copy@?$basic_string@DU?$char_traits@D@std@@V?$allocator@D@2@@std@@QAEXII@Z 00426f40 f i fluidsim.obj
 0002:0000f170       ?_Destroy@?$vector@IV?$allocator@I@std@@@std@@IAEXPAI0@Z 00427170 f i fluidsim.obj
 0002:0000f1c0       ?_Destroy@?$vector@NV?$allocator@N@std@@@std@@IAEXPAN0@Z 004271c0 f i fluidsim.obj
 0002:0000f210       ?_Destroy@?$vector@U?$Vec@$02I@@V?$allocator@U?$Vec@$02I@@@std@@@std@@IAEXPAU?$Vec@$02I@@0@Z 00427210 f i fluidsim.obj
 0002:0000f260       ?_Destroy@?$vector@U?$Vec@$02M@@V?$allocator@U?$Vec@$02M@@@std@@@std@@IAEXPAU?$Vec@$02M@@0@Z 00427260 f i fluidsim.obj
 0002:0000f2b0       ?_Destroy@?$vector@V?$vector@IV?$allocator@I@std@@@std@@V?$allocator@V?$vector@IV?$allocator@I@std@@@std@@@2@@std@@IAEXPAV?$vector@IV?$allocator@I@std@@@2@0@Z 004272b0 f i fluidsim.obj
 0002:0000f300       ?_Destroy@?$vector@V?$vector@NV?$allocator@N@std@@@std@@V?$allocator@V?$vector@NV?$allocator@N@std@@@std@@@2@@std@@IAEXPAV?$vector@NV?$allocator@N@std@@@2@0@Z 00427300 f i fluidsim.obj
 0002:0000f350       ?_Endwrite@?$basic_filebuf@DU?$char_traits@D@std@@@std@@IAE_NXZ 00427350 f i fluidsim.obj
 0002:0000f610       ?_Eos@?$basic_string@DU?$char_traits@D@std@@V?$allocator@D@2@@std@@QAEXI@Z 00427610 f i fluidsim.obj
 0002:0000f660       ?_Getal@?$_String_alloc@$0A@U?$_String_base_types@DV?$allocator@D@std@@@std@@@std@@QBE?AU?$_Wrap_alloc@V?$allocator@D@std@@@2@XZ 00427660 f i fluidsim.obj
 0002:0000f690       ?_Getal@?$_Vector_alloc@$0A@U?$_Vec_base_types@IV?$allocator@I@std@@@std@@@std@@QBE?AU?$_Wrap_alloc@V?$allocator@I@std@@@2@XZ 00427690 f i fluidsim.obj
 0002:0000f6c0       ?_Getal@?$_Vector_alloc@$0A@U?$_Vec_base_types@NV?$allocator@N@std@@@std@@@std@@QBE?AU?$_Wrap_alloc@V?$allocator@N@std@@@2@XZ 004276c0 f i fluidsim.obj
 0002:0000f6f0       ?_Getal@?$_Vector_alloc@$0A@U?$_Vec_base_types@U?$Vec@$02I@@V?$allocator@U?$Vec@$02I@@@std@@@std@@@std@@QBE?AU?$_Wrap_alloc@V?$allocator@U?$Vec@$02I@@@std@@@2@XZ 004276f0 f i fluidsim.obj
 0002:0000f720       ?_Getal@?$_Vector_alloc@$0A@U?$_Vec_base_types@U?$Vec@$02M@@V?$allocator@U?$Vec@$02M@@@std@@@std@@@std@@QBE?AU?$_Wrap_alloc@V?$allocator@U?$Vec@$02M@@@std@@@2@XZ 00427720 f i fluidsim.obj
 0002:0000f750       ?_Getal@?$_Vector_alloc@$0A@U?$_Vec_base_types@V?$vector@IV?$allocator@I@std@@@std@@V?$allocator@V?$vector@IV?$allocator@I@std@@@std@@@2@@std@@@std@@QBE?AU?$_Wrap_alloc@V?$allocator@V?$vector@IV?$allocator@I@std@@@std@@@std@@@2@XZ 00427750 f i fluidsim.obj
 0002:0000f780       ?_Getal@?$_Vector_alloc@$0A@U?$_Vec_base_types@V?$vector@NV?$allocator@N@std@@@std@@V?$allocator@V?$vector@NV?$allocator@N@std@@@std@@@2@@std@@@std@@QBE?AU?$_Wrap_alloc@V?$allocator@V?$vector@NV?$allocator@N@std@@@std@@@std@@@2@XZ 00427780 f i fluidsim.obj
 0002:0000f7b0       ?_Getfacet@locale@std@@QBEPBVfacet@12@I@Z 004277b0 f i fluidsim.obj
 0002:0000f860       ?_Getstate@?$basic_stringbuf@DU?$char_traits@D@std@@V?$allocator@D@2@@std@@AAEHH@Z 00427860 f i fluidsim.obj
 0002:0000f8e0       ?_Grow@?$basic_string@DU?$char_traits@D@std@@V?$allocator@D@2@@std@@QAE_NI_N@Z 004278e0 f i fluidsim.obj
 0002:0000f9c0       ?_Grow_to@?$vector@IV?$allocator@I@std@@@std@@IBEII@Z 004279c0 f i fluidsim.obj
 0002:0000fa40       ?_Grow_to@?$vector@NV?$allocator@N@std@@@std@@IBEII@Z 00427a40 f i fluidsim.obj
 0002:0000fac0       ?_Grow_to@?$vector@U?$Vec@$02I@@V?$allocator@U?$Vec@$02I@@@std@@@std@@IBEII@Z 00427ac0 f i fluidsim.obj
 0002:0000fb40       ?_Grow_to@?$vector@U?$Vec@$02M@@V?$allocator@U?$Vec@$02M@@@std@@@std@@IBEII@Z 00427b40 f i fluidsim.obj
 0002:0000fbc0       ?_Grow_to@?$vector@V?$vector@IV?$allocator@I@std@@@std@@V?$allocator@V?$vector@IV?$allocator@I@std@@@std@@@2@@std@@IBEII@Z 00427bc0 f i fluidsim.obj
 0002:0000fc40       ?_Grow_to@?$vector@V?$vector@NV?$allocator@N@std@@@std@@V?$allocator@V?$vector@NV?$allocator@N@std@@@std@@@2@@std@@IBEII@Z 00427c40 f i fluidsim.obj
 0002:0000fcc0       ?_Init@?$basic_filebuf@DU?$char_traits@D@std@@@std@@IAEXPAU_iobuf@@W4_Initfl@12@@Z 00427cc0 f i fluidsim.obj
 0002:0000fdb0       ?_Init@?$basic_stringbuf@DU?$char_traits@D@std@@V?$allocator@D@2@@std@@IAEXPBDIH@Z 00427db0 f i fluidsim.obj
 0002:0000ff00       ?_Initcvt@?$basic_filebuf@DU?$char_traits@D@std@@@std@@IAEXPBV?$codecvt@DDH@2@@Z 00427f00 f i fluidsim.obj
 0002:0000ff60       ?_Insert_n@?$vector@NV?$allocator@N@std@@@std@@IAE?AV?$_Vector_iterator@V?$_Vector_val@U?$_Simple_types@N@std@@@std@@@2@V?$_Vector_const_iterator@V?$_Vector_val@U?$_Simple_types@N@std@@@std@@@2@IABN@Z 00427f60 f i fluidsim.obj
 0002:00010450       ?_Inside@?$basic_string@DU?$char_traits@D@std@@V?$allocator@D@2@@std@@QAE_NPBD@Z 00428450 f i fluidsim.obj
 0002:000104b0       ?_Inside@?$vector@IV?$allocator@I@std@@@std@@IBE_NPBI@Z 004284b0 f i fluidsim.obj
 0002:00010500       ?_Inside@?$vector@NV?$allocator@N@std@@@std@@IBE_NPBN@Z 00428500 f i fluidsim.obj
 0002:00010550       ?_Inside@?$vector@U?$Vec@$02I@@V?$allocator@U?$Vec@$02I@@@std@@@std@@IBE_NPBU?$Vec@$02I@@@Z 00428550 f i fluidsim.obj
 0002:000105a0       ?_Inside@?$vector@U?$Vec@$02M@@V?$allocator@U?$Vec@$02M@@@std@@@std@@IBE_NPBU?$Vec@$02M@@@Z 004285a0 f i fluidsim.obj
 0002:000105f0       ?_Lock@?$basic_filebuf@DU?$char_traits@D@std@@@std@@UAEXXZ 004285f0 f i fluidsim.obj
 0002:00010630       ?_Make_iter@?$vector@IV?$allocator@I@std@@@std@@QBE?AV?$_Vector_iterator@V?$_Vector_val@U?$_Simple_types@I@std@@@std@@@2@V?$_Vector_const_iterator@V?$_Vector_val@U?$_Simple_types@I@std@@@std@@@2@@Z 00428630 f i fluidsim.obj
 0002:00010670       ?_Make_iter@?$vector@NV?$allocator@N@std@@@std@@QBE?AV?$_Vector_iterator@V?$_Vector_val@U?$_Simple_types@N@std@@@std@@@2@V?$_Vector_const_iterator@V?$_Vector_val@U?$_Simple_types@N@std@@@std@@@2@@Z 00428670 f i fluidsim.obj
 0002:000106b0       ?_Make_iter@?$vector@V?$vector@IV?$allocator@I@std@@@std@@V?$allocator@V?$vector@IV?$allocator@I@std@@@std@@@2@@std@@QBE?AV?$_Vector_iterator@V?$_Vector_val@U?$_Simple_types@V?$vector@IV?$allocator@I@std@@@std@@@std@@@std@@@2@V?$_Vector_const_iterator@V?$_Vector_val@U?$_Simple_types@V?$vector@IV?$allocator@I@std@@@std@@@std@@@std@@@2@@Z 004286b0 f i fluidsim.obj
 0002:000106f0       ?_Make_iter@?$vector@V?$vector@NV?$allocator@N@std@@@std@@V?$allocator@V?$vector@NV?$allocator@N@std@@@std@@@2@@std@@QBE?AV?$_Vector_iterator@V?$_Vector_val@U?$_Simple_types@V?$vector@NV?$allocator@N@std@@@std@@@std@@@std@@@2@V?$_Vector_const_iterator@V?$_Vector_val@U?$_Simple_types@V?$vector@NV?$allocator@N@std@@@std@@@std@@@std@@@2@@Z 004286f0 f i fluidsim.obj
 0002:00010730       ?_Myptr@?$_String_val@U?$_Simple_types@D@std@@@std@@QAEPADXZ 00428730 f i fluidsim.obj
 0002:00010780       ?_Myptr@?$_String_val@U?$_Simple_types@D@std@@@std@@QBEPBDXZ 00428780 f i fluidsim.obj
 0002:000107d0       ?_Orphan_range@?$vector@IV?$allocator@I@std@@@std@@IBEXPAI0@Z 004287d0 f i fluidsim.obj
 0002:000107f0       ?_Orphan_range@?$vector@NV?$allocator@N@std@@@std@@IBEXPAN0@Z 004287f0 f i fluidsim.obj
 0002:00010810       ?_Orphan_range@?$vector@U?$Vec@$02I@@V?$allocator@U?$Vec@$02I@@@std@@@std@@IBEXPAU?$Vec@$02I@@0@Z 00428810 f i fluidsim.obj
 0002:00010830       ?_Orphan_range@?$vector@U?$Vec@$02M@@V?$allocator@U?$Vec@$02M@@@std@@@std@@IBEXPAU?$Vec@$02M@@0@Z 00428830 f i fluidsim.obj
 0002:00010850       ?_Reallocate@?$vector@IV?$allocator@I@std@@@std@@IAEXI@Z 00428850 f i fluidsim.obj
 0002:000109e0       ?_Reallocate@?$vector@NV?$allocator@N@std@@@std@@IAEXI@Z 004289e0 f i fluidsim.obj
 0002:00010b70       ?_Reallocate@?$vector@U?$Vec@$02I@@V?$allocator@U?$Vec@$02I@@@std@@@std@@IAEXI@Z 00428b70 f i fluidsim.obj
 0002:00010d00       ?_Reallocate@?$vector@U?$Vec@$02M@@V?$allocator@U?$Vec@$02M@@@std@@@std@@IAEXI@Z 00428d00 f i fluidsim.obj
 0002:00010e90       ?_Reallocate@?$vector@V?$vector@IV?$allocator@I@std@@@std@@V?$allocator@V?$vector@IV?$allocator@I@std@@@std@@@2@@std@@IAEXI@Z 00428e90 f i fluidsim.obj
 0002:00011020       ?_Reallocate@?$vector@V?$vector@NV?$allocator@N@std@@@std@@V?$allocator@V?$vector@NV?$allocator@N@std@@@std@@@2@@std@@IAEXI@Z 00429020 f i fluidsim.obj
 0002:000111b0       ?_Reserve@?$vector@IV?$allocator@I@std@@@std@@IAEXI@Z 004291b0 f i fluidsim.obj
 0002:00011230       ?_Reserve@?$vector@NV?$allocator@N@std@@@std@@IAEXI@Z 00429230 f i fluidsim.obj
 0002:000112b0       ?_Reserve@?$vector@U?$Vec@$02I@@V?$allocator@U?$Vec@$02I@@@std@@@std@@IAEXI@Z 004292b0 f i fluidsim.obj
 0002:00011330       ?_Reserve@?$vector@U?$Vec@$02M@@V?$allocator@U?$Vec@$02M@@@std@@@std@@IAEXI@Z 00429330 f i fluidsim.obj
 0002:000113b0       ?_Reserve@?$vector@V?$vector@IV?$allocator@I@std@@@std@@V?$allocator@V?$vector@IV?$allocator@I@std@@@std@@@2@@std@@IAEXI@Z 004293b0 f i fluidsim.obj
 0002:00011430       ?_Reserve@?$vector@V?$vector@NV?$allocator@N@std@@@std@@V?$allocator@V?$vector@NV?$allocator@N@std@@@std@@@2@@std@@IAEXI@Z 00429430 f i fluidsim.obj
 0002:000114b0       ?_Reset_back@?$basic_filebuf@DU?$char_traits@D@std@@@std@@AAEXXZ 004294b0 f i fluidsim.obj
 0002:00011510       ?_Set_back@?$basic_filebuf@DU?$char_traits@D@std@@@std@@AAEXXZ 00429510 f i fluidsim.obj
 0002:00011590       ?_Swap_alloc@?$_Vector_alloc@$0A@U?$_Vec_base_types@NV?$allocator@N@std@@@std@@@std@@QAEXAAV12@@Z 00429590 f i fluidsim.obj
 0002:000115b0       ?_Tidy@?$basic_string@DU?$char_traits@D@std@@V?$allocator@D@2@@std@@QAEX_NI@Z 004295b0 f i fluidsim.obj
 0002:00011680       ?_Tidy@?$basic_stringbuf@DU?$char_traits@D@std@@V?$allocator@D@2@@std@@IAEXXZ 00429680 f i fluidsim.obj
 0002:00011750       ?_Tidy@?$vector@IV?$allocator@I@std@@@std@@IAEXXZ 00429750 f i fluidsim.obj
 0002:000117f0       ?_Tidy@?$vector@NV?$allocator@N@std@@@std@@IAEXXZ 004297f0 f i fluidsim.obj
 0002:00011890       ?_Tidy@?$vector@U?$Vec@$02I@@V?$allocator@U?$Vec@$02I@@@std@@@std@@IAEXXZ 00429890 f i fluidsim.obj
 0002:00011940       ?_Tidy@?$vector@U?$Vec@$02M@@V?$allocator@U?$Vec@$02M@@@std@@@std@@IAEXXZ 00429940 f i fluidsim.obj
 0002:000119f0       ?_Tidy@?$vector@V?$vector@IV?$allocator@I@std@@@std@@V?$allocator@V?$vector@IV?$allocator@I@std@@@std@@@2@@std@@IAEXXZ 004299f0 f i fluidsim.obj
 0002:00011aa0       ?_Tidy@?$vector@V?$vector@NV?$allocator@N@std@@@std@@V?$allocator@V?$vector@NV?$allocator@N@std@@@std@@@2@@std@@IAEXXZ 00429aa0 f i fluidsim.obj
 0002:00011b50       ?_Ufill@?$vector@NV?$allocator@N@std@@@std@@IAEPANPANIPBN@Z 00429b50 f i fluidsim.obj
 0002:00011bb0       ?_Unlock@?$basic_filebuf@DU?$char_traits@D@std@@@std@@UAEXXZ 00429bb0 f i fluidsim.obj
 0002:00011bf0       ?_Unused_capacity@?$vector@IV?$allocator@I@std@@@std@@QBEIXZ 00429bf0 f i fluidsim.obj
 0002:00011c20       ?_Unused_capacity@?$vector@NV?$allocator@N@std@@@std@@QBEIXZ 00429c20 f i fluidsim.obj
 0002:00011c50       ?_Unused_capacity@?$vector@U?$Vec@$02I@@V?$allocator@U?$Vec@$02I@@@std@@@std@@QBEIXZ 00429c50 f i fluidsim.obj
 0002:00011c80       ?_Unused_capacity@?$vector@U?$Vec@$02M@@V?$allocator@U?$Vec@$02M@@@std@@@std@@QBEIXZ 00429c80 f i fluidsim.obj
 0002:00011cb0       ?_Unused_capacity@?$vector@V?$vector@IV?$allocator@I@std@@@std@@V?$allocator@V?$vector@IV?$allocator@I@std@@@std@@@2@@std@@QBEIXZ 00429cb0 f i fluidsim.obj
 0002:00011ce0       ?_Unused_capacity@?$vector@V?$vector@NV?$allocator@N@std@@@std@@V?$allocator@V?$vector@NV?$allocator@N@std@@@std@@@2@@std@@QBEIXZ 00429ce0 f i fluidsim.obj
 0002:00011d10       ?_Xlen@?$basic_string@DU?$char_traits@D@std@@V?$allocator@D@2@@std@@QBEXXZ 00429d10 f i fluidsim.obj
 0002:00011d40       ?_Xlen@?$vector@IV?$allocator@I@std@@@std@@IBEXXZ 00429d40 f i fluidsim.obj
 0002:00011d70       ?_Xlen@?$vector@NV?$allocator@N@std@@@std@@IBEXXZ 00429d70 f i fluidsim.obj
 0002:00011da0       ?_Xlen@?$vector@U?$Vec@$02I@@V?$allocator@U?$Vec@$02I@@@std@@@std@@IBEXXZ 00429da0 f i fluidsim.obj
 0002:00011dd0       ?_Xlen@?$vector@U?$Vec@$02M@@V?$allocator@U?$Vec@$02M@@@std@@@std@@IBEXXZ 00429dd0 f i fluidsim.obj
 0002:00011e00       ?_Xlen@?$vector@V?$vector@IV?$allocator@I@std@@@std@@V?$allocator@V?$vector@IV?$allocator@I@std@@@std@@@2@@std@@IBEXXZ 00429e00 f i fluidsim.obj
 0002:00011e30       ?_Xlen@?$vector@V?$vector@NV?$allocator@N@std@@@std@@V?$allocator@V?$vector@NV?$allocator@N@std@@@std@@@2@@std@@IBEXXZ 00429e30 f i fluidsim.obj
 0002:00011e60       ?_Xran@?$basic_string@DU?$char_traits@D@std@@V?$allocator@D@2@@std@@QBEXXZ 00429e60 f i fluidsim.obj
 0002:00011e90       ?abs_max@BLAS@@YANABV?$vector@NV?$allocator@N@std@@@std@@@Z 00429e90 f i fluidsim.obj
 0002:00011ee0       ?add_force@FluidSim@@AAEXM@Z 00429ee0 f   fluidsim.obj
 0002:00011fc0       ?add_particle@FluidSim@@QAEXABU?$Vec@$02M@@@Z 00429fc0 f   fluidsim.obj
 0002:00011ff0       ?add_scaled@BLAS@@YAXNABV?$vector@NV?$allocator@N@std@@@std@@AAV23@@Z 00429ff0 f i fluidsim.obj
 0002:00012070       ?add_to_element@?$SparseMatrix@N@@QAEXIIN@Z 0042a070 f i fluidsim.obj
 0002:00012210       ?advance@FluidSim@@QAEXM@Z 0042a210 f   fluidsim.obj
 0002:00012410       ?advect@FluidSim@@AAEXM@Z  0042a410 f   fluidsim.obj
 0002:000129a0       ?advect_particles@FluidSim@@AAEXM@Z 0042a9a0 f   fluidsim.obj
 0002:00012bc0       ?allocate@?$_Wrap_alloc@V?$allocator@D@std@@@std@@QAEPADI@Z 0042abc0 f i fluidsim.obj
 0002:00012bf0       ?allocate@?$_Wrap_alloc@V?$allocator@I@std@@@std@@QAEPAII@Z 0042abf0 f i fluidsim.obj
 0002:00012c20       ?allocate@?$_Wrap_alloc@V?$allocator@N@std@@@std@@QAEPANI@Z 0042ac20 f i fluidsim.obj
 0002:00012c50       ?allocate@?$_Wrap_alloc@V?$allocator@U?$Vec@$02I@@@std@@@std@@QAEPAU?$Vec@$02I@@I@Z 0042ac50 f i fluidsim.obj
 0002:00012c80       ?allocate@?$_Wrap_alloc@V?$allocator@U?$Vec@$02M@@@std@@@std@@QAEPAU?$Vec@$02M@@I@Z 0042ac80 f i fluidsim.obj
 0002:00012cb0       ?allocate@?$_Wrap_alloc@V?$allocator@V?$vector@IV?$allocator@I@std@@@std@@@std@@@std@@QAEPAV?$vector@IV?$allocator@I@std@@@2@I@Z 0042acb0 f i fluidsim.obj
 0002:00012ce0       ?allocate@?$_Wrap_alloc@V?$allocator@V?$vector@NV?$allocator@N@std@@@std@@@std@@@std@@QAEPAV?$vector@NV?$allocator@N@std@@@2@I@Z 0042ace0 f i fluidsim.obj
 0002:00012d10       ?allocate@?$allocator@D@std@@QAEPADI@Z 0042ad10 f i fluidsim.obj
 0002:00012d40       ?allocate@?$allocator@I@std@@QAEPAII@Z 0042ad40 f i fluidsim.obj
 0002:00012d70       ?allocate@?$allocator@N@std@@QAEPANI@Z 0042ad70 f i fluidsim.obj
 0002:00012da0       ?allocate@?$allocator@U?$Vec@$02I@@@std@@QAEPAU?$Vec@$02I@@I@Z 0042ada0 f i fluidsim.obj
 0002:00012dd0       ?allocate@?$allocator@U?$Vec@$02M@@@std@@QAEPAU?$Vec@$02M@@I@Z 0042add0 f i fluidsim.obj
 0002:00012e00       ?allocate@?$allocator@V?$vector@IV?$allocator@I@std@@@std@@@std@@QAEPAV?$vector@IV?$allocator@I@std@@@2@I@Z 0042ae00 f i fluidsim.obj
 0002:00012e30       ?allocate@?$allocator@V?$vector@NV?$allocator@N@std@@@std@@@std@@QAEPAV?$vector@NV?$allocator@N@std@@@2@I@Z 0042ae30 f i fluidsim.obj
 0002:00012e60       ?append@?$basic_string@DU?$char_traits@D@std@@V?$allocator@D@2@@std@@QAEAAV12@ID@Z 0042ae60 f i fluidsim.obj
 0002:00012f00       ?apply_preconditioner@?$PCGSolver@N@@IAEXABV?$vector@NV?$allocator@N@std@@@std@@AAV23@@Z 0042af00 f i fluidsim.obj
 0002:00012f50       ?assign@?$Array1@D@@QAEXABD@Z 0042af50 f i fluidsim.obj
 0002:00012fb0       ?assign@?$Array1@M@@QAEXABM@Z 0042afb0 f i fluidsim.obj
 0002:00013010       ?assign@?$Array3@DU?$Array1@D@@@@QAEXABD@Z 0042b010 f i fluidsim.obj
 0002:00013040       ?assign@?$Array3@MU?$Array1@M@@@@QAEXABM@Z 0042b040 f i fluidsim.obj
 0002:00013070       ?assign@?$basic_string@DU?$char_traits@D@std@@V?$allocator@D@2@@std@@QAEAAV12@ABV12@II@Z 0042b070 f i fluidsim.obj
 0002:00013150       ?assign@?$basic_string@DU?$char_traits@D@std@@V?$allocator@D@2@@std@@QAEAAV12@ID@Z 0042b150 f i fluidsim.obj
 0002:000131d0       ?assign@?$basic_string@DU?$char_traits@D@std@@V?$allocator@D@2@@std@@QAEAAV12@PBD@Z 0042b1d0 f i fluidsim.obj
 0002:00013210       ?assign@?$basic_string@DU?$char_traits@D@std@@V?$allocator@D@2@@std@@QAEAAV12@PBDI@Z 0042b210 f i fluidsim.obj
 0002:000132c0       ?assign@?$char_traits@D@std@@SAPADPADID@Z 0042b2c0 f i fluidsim.obj
 0002:000132f0       ?assign@?$char_traits@D@std@@SAXAADABD@Z 0042b2f0 f i fluidsim.obj
 0002:00013310       ?assign@?$vector@NV?$allocator@N@std@@@std@@QAEXIABN@Z 0042b310 f i fluidsim.obj
 0002:00013340       ?back@?$vector@IV?$allocator@I@std@@@std@@QAEAAIXZ 0042b340 f i fluidsim.obj
 0002:00013380       ?back@?$vector@NV?$allocator@N@std@@@std@@QAEAANXZ 0042b380 f i fluidsim.obj
 0002:000133c0       ?base@?$move_iterator@V?$_Vector_iterator@V?$_Vector_val@U?$_Simple_types@I@std@@@std@@@std@@@std@@QBE?AV?$_Vector_iterator@V?$_Vector_val@U?$_Simple_types@I@std@@@std@@@2@XZ 0042b3c0 f i fluidsim.obj
 0002:000133f0       ?base@?$move_iterator@V?$_Vector_iterator@V?$_Vector_val@U?$_Simple_types@N@std@@@std@@@std@@@std@@QBE?AV?$_Vector_iterator@V?$_Vector_val@U?$_Simple_types@N@std@@@std@@@2@XZ 0042b3f0 f i fluidsim.obj
 0002:00013420       ?begin@?$basic_string@DU?$char_traits@D@std@@V?$allocator@D@2@@std@@QAE?AV?$_String_iterator@V?$_String_val@U?$_Simple_types@D@std@@@std@@@2@XZ 0042b420 f i fluidsim.obj
 0002:00013460       ?begin@?$vector@IV?$allocator@I@std@@@std@@QAE?AV?$_Vector_iterator@V?$_Vector_val@U?$_Simple_types@I@std@@@std@@@2@XZ 0042b460 f i fluidsim.obj
 0002:000134a0       ?begin@?$vector@NV?$allocator@N@std@@@std@@QAE?AV?$_Vector_iterator@V?$_Vector_val@U?$_Simple_types@N@std@@@std@@@2@XZ 0042b4a0 f i fluidsim.obj
 0002:000134e0       ?begin@?$vector@V?$vector@IV?$allocator@I@std@@@std@@V?$allocator@V?$vector@IV?$allocator@I@std@@@std@@@2@@std@@QAE?AV?$_Vector_iterator@V?$_Vector_val@U?$_Simple_types@V?$vector@IV?$allocator@I@std@@@std@@@std@@@std@@@2@XZ 0042b4e0 f i fluidsim.obj
 0002:00013520       ?begin@?$vector@V?$vector@NV?$allocator@N@std@@@std@@V?$allocator@V?$vector@NV?$allocator@N@std@@@std@@@2@@std@@QAE?AV?$_Vector_iterator@V?$_Vector_val@U?$_Simple_types@V?$vector@NV?$allocator@N@std@@@std@@@std@@@std@@@2@XZ 0042b520 f i fluidsim.obj
 0002:00013560       ?c_str@?$basic_string@DU?$char_traits@D@std@@V?$allocator@D@2@@std@@QBEPBDXZ 0042b560 f i fluidsim.obj
 0002:00013590       ?capacity@?$vector@IV?$allocator@I@std@@@std@@QBEIXZ 0042b590 f i fluidsim.obj
 0002:000135c0       ?capacity@?$vector@NV?$allocator@N@std@@@std@@QBEIXZ 0042b5c0 f i fluidsim.obj
 0002:000135f0       ?capacity@?$vector@U?$Vec@$02I@@V?$allocator@U?$Vec@$02I@@@std@@@std@@QBEIXZ 0042b5f0 f i fluidsim.obj
 0002:00013620       ?capacity@?$vector@U?$Vec@$02M@@V?$allocator@U?$Vec@$02M@@@std@@@std@@QBEIXZ 0042b620 f i fluidsim.obj
 0002:00013650       ?capacity@?$vector@V?$vector@IV?$allocator@I@std@@@std@@V?$allocator@V?$vector@IV?$allocator@I@std@@@std@@@2@@std@@QBEIXZ 0042b650 f i fluidsim.obj
 0002:00013680       ?capacity@?$vector@V?$vector@NV?$allocator@N@std@@@std@@V?$allocator@V?$vector@NV?$allocator@N@std@@@std@@@2@@std@@QBEIXZ 0042b680 f i fluidsim.obj
 0002:000136b0       ?category@error_code@std@@QBEABVerror_category@2@XZ 0042b6b0 f i fluidsim.obj
 0002:000136d0       ?category@error_condition@std@@QBEABVerror_category@2@XZ 0042b6d0 f i fluidsim.obj
 0002:000136f0       ?cfl@FluidSim@@AAEMXZ      0042b6f0 f   fluidsim.obj
 0002:000138a0       ?clear@?$vector@IV?$allocator@I@std@@@std@@QAEXXZ 0042b8a0 f i fluidsim.obj
 0002:000138f0       ?clear@?$vector@NV?$allocator@N@std@@@std@@QAEXXZ 0042b8f0 f i fluidsim.obj
 0002:00013940       ?clear@?$vector@V?$vector@IV?$allocator@I@std@@@std@@V?$allocator@V?$vector@IV?$allocator@I@std@@@std@@@2@@std@@QAEXXZ 0042b940 f i fluidsim.obj
 0002:00013990       ?clear@?$vector@V?$vector@NV?$allocator@N@std@@@std@@V?$allocator@V?$vector@NV?$allocator@N@std@@@std@@@2@@std@@QAEXXZ 0042b990 f i fluidsim.obj
 0002:000139e0       ?close@?$basic_filebuf@DU?$char_traits@D@std@@@std@@QAEPAV12@XZ 0042b9e0 f i fluidsim.obj
 0002:00013a70       ?close@?$basic_ifstream@DU?$char_traits@D@std@@@std@@QAEXXZ 0042ba70 f i fluidsim.obj
 0002:00013ac0       ?compare@?$basic_string@DU?$char_traits@D@std@@V?$allocator@D@2@@std@@QBEHABV12@@Z 0042bac0 f i fluidsim.obj
 0002:00013b10       ?compare@?$basic_string@DU?$char_traits@D@std@@V?$allocator@D@2@@std@@QBEHIIPBDI@Z 0042bb10 f i fluidsim.obj
 0002:00013c00       ?compare@?$char_traits@D@std@@SAHPBD0I@Z 0042bc00 f i fluidsim.obj
 0002:00013c50       ?compute_phi@FluidSim@@AAEXXZ 0042bc50 f   fluidsim.obj
 0002:000143f0       ?compute_weights@FluidSim@@AAEXXZ 0042c3f0 f   fluidsim.obj
 0002:00014a90       ?constrain_velocity@FluidSim@@AAEXXZ 0042ca90 f   fluidsim.obj
 0002:00015290       ?construct@?$_Wrap_alloc@V?$allocator@V?$vector@IV?$allocator@I@std@@@std@@@std@@@std@@QAEXPAV?$vector@IV?$allocator@I@std@@@2@@Z 0042d290 f i fluidsim.obj
 0002:000152c0       ?construct@?$_Wrap_alloc@V?$allocator@V?$vector@NV?$allocator@N@std@@@std@@@std@@@std@@QAEXPAV?$vector@NV?$allocator@N@std@@@2@@Z 0042d2c0 f i fluidsim.obj
 0002:000152f0       ?construct@?$allocator@I@std@@QAEXPAIABI@Z 0042d2f0 f i fluidsim.obj
 0002:00015350       ?construct@?$allocator@N@std@@QAEXPANABN@Z 0042d350 f i fluidsim.obj
 0002:000153b0       ?construct@?$allocator@U?$Vec@$02M@@@std@@QAEXPAU?$Vec@$02M@@ABU3@@Z 0042d3b0 f i fluidsim.obj
 0002:00015420       ?construct@?$allocator@V?$vector@IV?$allocator@I@std@@@std@@@std@@QAEXPAV?$vector@IV?$allocator@I@std@@@2@@Z 0042d420 f i fluidsim.obj
 0002:000154c0       ?construct@?$allocator@V?$vector@NV?$allocator@N@std@@@std@@@std@@QAEXPAV?$vector@NV?$allocator@N@std@@@2@@Z 0042d4c0 f i fluidsim.obj
 0002:00015560       ?construct_from_matrix@?$FixedSparseMatrix@N@@QAEXABU?$SparseMatrix@N@@@Z 0042d560 f i fluidsim.obj
 0002:00015760       ?copy@?$char_traits@D@std@@SAPADPADPBDI@Z 0042d760 f i fluidsim.obj
 0002:000157b0       ?deallocate@?$_Wrap_alloc@V?$allocator@D@std@@@std@@QAEXPADI@Z 0042d7b0 f i fluidsim.obj
 0002:000157e0       ?deallocate@?$_Wrap_alloc@V?$allocator@I@std@@@std@@QAEXPAII@Z 0042d7e0 f i fluidsim.obj
 0002:00015810       ?deallocate@?$_Wrap_alloc@V?$allocator@N@std@@@std@@QAEXPANI@Z 0042d810 f i fluidsim.obj
 0002:00015840       ?deallocate@?$_Wrap_alloc@V?$allocator@U?$Vec@$02I@@@std@@@std@@QAEXPAU?$Vec@$02I@@I@Z 0042d840 f i fluidsim.obj
 0002:00015870       ?deallocate@?$_Wrap_alloc@V?$allocator@U?$Vec@$02M@@@std@@@std@@QAEXPAU?$Vec@$02M@@I@Z 0042d870 f i fluidsim.obj
 0002:000158a0       ?deallocate@?$_Wrap_alloc@V?$allocator@V?$vector@IV?$allocator@I@std@@@std@@@std@@@std@@QAEXPAV?$vector@IV?$allocator@I@std@@@2@I@Z 0042d8a0 f i fluidsim.obj
 0002:000158d0       ?deallocate@?$_Wrap_alloc@V?$allocator@V?$vector@NV?$allocator@N@std@@@std@@@std@@@std@@QAEXPAV?$vector@NV?$allocator@N@std@@@2@I@Z 0042d8d0 f i fluidsim.obj
 0002:00015900       ?deallocate@?$allocator@D@std@@QAEXPADI@Z 0042d900 f i fluidsim.obj
 0002:00015930       ?deallocate@?$allocator@I@std@@QAEXPAII@Z 0042d930 f i fluidsim.obj
 0002:00015960       ?deallocate@?$allocator@N@std@@QAEXPANI@Z 0042d960 f i fluidsim.obj
 0002:00015990       ?deallocate@?$allocator@U?$Vec@$02I@@@std@@QAEXPAU?$Vec@$02I@@I@Z 0042d990 f i fluidsim.obj
 0002:000159c0       ?deallocate@?$allocator@U?$Vec@$02M@@@std@@QAEXPAU?$Vec@$02M@@I@Z 0042d9c0 f i fluidsim.obj
 0002:000159f0       ?deallocate@?$allocator@V?$vector@IV?$allocator@I@std@@@std@@@std@@QAEXPAV?$vector@IV?$allocator@I@std@@@2@I@Z 0042d9f0 f i fluidsim.obj
 0002:00015a20       ?deallocate@?$allocator@V?$vector@NV?$allocator@N@std@@@std@@@std@@QAEXPAV?$vector@NV?$allocator@N@std@@@2@I@Z 0042da20 f i fluidsim.obj
 0002:00015a50       ?default_error_condition@_System_error_category@std@@UBE?AVerror_condition@2@H@Z 0042da50 f i fluidsim.obj
 0002:00015ac0       ?default_error_condition@error_category@std@@UBE?AVerror_condition@2@H@Z 0042dac0 f i fluidsim.obj
 0002:00015b00       ?dot@BLAS@@YANABV?$vector@NV?$allocator@N@std@@@std@@0@Z 0042db00 f i fluidsim.obj
 0002:00015b90       ?empty@?$vector@NV?$allocator@N@std@@@std@@QBE_NXZ 0042db90 f i fluidsim.obj
 0002:00015bd0       ?end@?$vector@IV?$allocator@I@std@@@std@@QAE?AV?$_Vector_iterator@V?$_Vector_val@U?$_Simple_types@I@std@@@std@@@2@XZ 0042dbd0 f i fluidsim.obj
 0002:00015c10       ?end@?$vector@NV?$allocator@N@std@@@std@@QAE?AV?$_Vector_iterator@V?$_Vector_val@U?$_Simple_types@N@std@@@std@@@2@XZ 0042dc10 f i fluidsim.obj
 0002:00015c50       ?end@?$vector@V?$vector@IV?$allocator@I@std@@@std@@V?$allocator@V?$vector@IV?$allocator@I@std@@@std@@@2@@std@@QAE?AV?$_Vector_iterator@V?$_Vector_val@U?$_Simple_types@V?$vector@IV?$allocator@I@std@@@std@@@std@@@std@@@2@XZ 0042dc50 f i fluidsim.obj
 0002:00015c90       ?end@?$vector@V?$vector@NV?$allocator@N@std@@@std@@V?$allocator@V?$vector@NV?$allocator@N@std@@@std@@@2@@std@@QAE?AV?$_Vector_iterator@V?$_Vector_val@U?$_Simple_types@V?$vector@NV?$allocator@N@std@@@std@@@std@@@std@@@2@XZ 0042dc90 f i fluidsim.obj
 0002:00015cd0       ?eof@?$char_traits@D@std@@SAHXZ 0042dcd0 f i fluidsim.obj
 0002:00015cf0       ?eq@?$char_traits@D@std@@SA_NABD0@Z 0042dcf0 f i fluidsim.obj
 0002:00015d30       ?eq_int_type@?$char_traits@D@std@@SA_NABH0@Z 0042dd30 f i fluidsim.obj
 0002:00015d70       ?equivalent@error_category@std@@UBE_NABVerror_code@2@H@Z 0042dd70 f i fluidsim.obj
 0002:00015dd0       ?equivalent@error_category@std@@UBE_NHABVerror_condition@2@@Z 0042ddd0 f i fluidsim.obj
 0002:00015e20       ?erase@?$basic_string@DU?$char_traits@D@std@@V?$allocator@D@2@@std@@QAEAAV12@I@Z 0042de20 f i fluidsim.obj
 0002:00015e70       ?erase@?$basic_string@DU?$char_traits@D@std@@V?$allocator@D@2@@std@@QAEAAV12@II@Z 0042de70 f i fluidsim.obj
 0002:00015f20       ?erase@?$vector@IV?$allocator@I@std@@@std@@QAE?AV?$_Vector_iterator@V?$_Vector_val@U?$_Simple_types@I@std@@@std@@@2@V?$_Vector_const_iterator@V?$_Vector_val@U?$_Simple_types@I@std@@@std@@@2@0@Z 0042df20 f i fluidsim.obj
 0002:00016040       ?erase@?$vector@NV?$allocator@N@std@@@std@@QAE?AV?$_Vector_iterator@V?$_Vector_val@U?$_Simple_types@N@std@@@std@@@2@V?$_Vector_const_iterator@V?$_Vector_val@U?$_Simple_types@N@std@@@std@@@2@0@Z 0042e040 f i fluidsim.obj
 0002:00016160       ?erase@?$vector@V?$vector@IV?$allocator@I@std@@@std@@V?$allocator@V?$vector@IV?$allocator@I@std@@@std@@@2@@std@@QAE?AV?$_Vector_iterator@V?$_Vector_val@U?$_Simple_types@V?$vector@IV?$allocator@I@std@@@std@@@std@@@std@@@2@V?$_Vector_const_iterator@V?$_Vector_val@U?$_Simple_types@V?$vector@IV?$allocator@I@std@@@std@@@std@@@std@@@2@0@Z 0042e160 f i fluidsim.obj
 0002:00016280       ?erase@?$vector@V?$vector@NV?$allocator@N@std@@@std@@V?$allocator@V?$vector@NV?$allocator@N@std@@@std@@@2@@std@@QAE?AV?$_Vector_iterator@V?$_Vector_val@U?$_Simple_types@V?$vector@NV?$allocator@N@std@@@std@@@std@@@std@@@2@V?$_Vector_const_iterator@V?$_Vector_val@U?$_Simple_types@V?$vector@NV?$allocator@N@std@@@std@@@std@@@std@@@2@0@Z 0042e280 f i fluidsim.obj
 0002:000163a0       ?extrapolate@@YAXAAU?$Array3@MU?$Array1@M@@@@AAU?$Array3@DU?$Array1@D@@@@@Z 0042e3a0 f   fluidsim.obj
 0002:00016810       ?fabs@@YAMM@Z              0042e810 f i fluidsim.obj
 0002:00016840       ?floor@@YAMM@Z             0042e840 f i fluidsim.obj
 0002:00016870       ?form_preconditioner@?$PCGSolver@N@@IAEXABU?$SparseMatrix@N@@@Z 0042e870 f i fluidsim.obj
 0002:000168d0       ?generic_category@std@@YAABVerror_category@1@XZ 0042e8d0 f i fluidsim.obj
 0002:000168f0       ?get_allocator@?$basic_string@DU?$char_traits@D@std@@V?$allocator@D@2@@std@@QBE?AV?$allocator@D@2@XZ 0042e8f0 f i fluidsim.obj
 0002:00016930       ?get_velocity@FluidSim@@QAE?AU?$Vec@$02M@@ABU2@@Z 0042e930 f   fluidsim.obj
 0002:00016b50       ?imbue@?$basic_filebuf@DU?$char_traits@D@std@@@std@@MAEXABVlocale@2@@Z 0042eb50 f i fluidsim.obj
 0002:00016b90       ?index_abs_max@BLAS@@YAHABV?$vector@NV?$allocator@N@std@@@std@@@Z 0042eb90 f i fluidsim.obj
 0002:00016c60       ?initialize@FluidSim@@QAEXMHHH@Z 0042ec60 f   fluidsim.obj
 0002:00017030       ?initialize_phi@FluidSim@@AAEXV?$basic_string@DU?$char_traits@D@std@@V?$allocator@D@2@@std@@AAU?$Array3@MU?$Array1@M@@@@_N@Z 0042f030 f   fluidsim.obj
 0002:00017f90       ?insert@?$vector@NV?$allocator@N@std@@@std@@QAE?AV?$_Vector_iterator@V?$_Vector_val@U?$_Simple_types@N@std@@@std@@@2@V?$_Vector_const_iterator@V?$_Vector_val@U?$_Simple_types@N@std@@@std@@@2@IABN@Z 0042ff90 f i fluidsim.obj
 0002:00017fd0       ?length@?$char_traits@D@std@@SAIPBD@Z 0042ffd0 f i fluidsim.obj
 0002:00018020       ?max@?$numeric_limits@M@std@@SAMXZ 00430020 f i fluidsim.obj
 0002:00018040       ?max_size@?$_Wrap_alloc@V?$allocator@D@std@@@std@@QBEIXZ 00430040 f i fluidsim.obj
 0002:00018070       ?max_size@?$_Wrap_alloc@V?$allocator@I@std@@@std@@QBEIXZ 00430070 f i fluidsim.obj
 0002:000180a0       ?max_size@?$_Wrap_alloc@V?$allocator@N@std@@@std@@QBEIXZ 004300a0 f i fluidsim.obj
 0002:000180d0       ?max_size@?$_Wrap_alloc@V?$allocator@U?$Vec@$02I@@@std@@@std@@QBEIXZ 004300d0 f i fluidsim.obj
 0002:00018100       ?max_size@?$_Wrap_alloc@V?$allocator@U?$Vec@$02M@@@std@@@std@@QBEIXZ 00430100 f i fluidsim.obj
 0002:00018130       ?max_size@?$_Wrap_alloc@V?$allocator@V?$vector@IV?$allocator@I@std@@@std@@@std@@@std@@QBEIXZ 00430130 f i fluidsim.obj
 0002:00018160       ?max_size@?$_Wrap_alloc@V?$allocator@V?$vector@NV?$allocator@N@std@@@std@@@std@@@std@@QBEIXZ 00430160 f i fluidsim.obj
 0002:00018190       ?max_size@?$allocator@D@std@@QBEIXZ 00430190 f i fluidsim.obj
 0002:000181b0       ?max_size@?$allocator@I@std@@QBEIXZ 004301b0 f i fluidsim.obj
 0002:000181d0       ?max_size@?$allocator@N@std@@QBEIXZ 004301d0 f i fluidsim.obj
 0002:000181f0       ?max_size@?$allocator@U?$Vec@$02I@@@std@@QBEIXZ 004301f0 f i fluidsim.obj
 0002:00018210       ?max_size@?$allocator@U?$Vec@$02M@@@std@@QBEIXZ 00430210 f i fluidsim.obj
 0002:00018230       ?max_size@?$allocator@V?$vector@IV?$allocator@I@std@@@std@@@std@@QBEIXZ 00430230 f i fluidsim.obj
 0002:00018250       ?max_size@?$allocator@V?$vector@NV?$allocator@N@std@@@std@@@std@@QBEIXZ 00430250 f i fluidsim.obj
 0002:00018270       ?max_size@?$allocator_traits@V?$allocator@D@std@@@std@@SAIABV?$allocator@D@2@@Z 00430270 f i fluidsim.obj
 0002:00018290       ?max_size@?$allocator_traits@V?$allocator@I@std@@@std@@SAIABV?$allocator@I@2@@Z 00430290 f i fluidsim.obj
 0002:000182b0       ?max_size@?$allocator_traits@V?$allocator@N@std@@@std@@SAIABV?$allocator@N@2@@Z 004302b0 f i fluidsim.obj
 0002:000182d0       ?max_size@?$allocator_traits@V?$allocator@U?$Vec@$02I@@@std@@@std@@SAIABV?$allocator@U?$Vec@$02I@@@2@@Z 004302d0 f i fluidsim.obj
 0002:000182f0       ?max_size@?$allocator_traits@V?$allocator@U?$Vec@$02M@@@std@@@std@@SAIABV?$allocator@U?$Vec@$02M@@@2@@Z 004302f0 f i fluidsim.obj
 0002:00018310       ?max_size@?$allocator_traits@V?$allocator@V?$vector@IV?$allocator@I@std@@@std@@@std@@@std@@SAIABV?$allocator@V?$vector@IV?$allocator@I@std@@@std@@@2@@Z 00430310 f i fluidsim.obj
 0002:00018330       ?max_size@?$allocator_traits@V?$allocator@V?$vector@NV?$allocator@N@std@@@std@@@std@@@std@@SAIABV?$allocator@V?$vector@NV?$allocator@N@std@@@std@@@2@@Z 00430330 f i fluidsim.obj
 0002:00018350       ?max_size@?$basic_string@DU?$char_traits@D@std@@V?$allocator@D@2@@std@@QBEIXZ 00430350 f i fluidsim.obj
 0002:000183b0       ?max_size@?$vector@IV?$allocator@I@std@@@std@@QBEIXZ 004303b0 f i fluidsim.obj
 0002:000183e0       ?max_size@?$vector@NV?$allocator@N@std@@@std@@QBEIXZ 004303e0 f i fluidsim.obj
 0002:00018410       ?max_size@?$vector@U?$Vec@$02I@@V?$allocator@U?$Vec@$02I@@@std@@@std@@QBEIXZ 00430410 f i fluidsim.obj
 0002:00018440       ?max_size@?$vector@U?$Vec@$02M@@V?$allocator@U?$Vec@$02M@@@std@@@std@@QBEIXZ 00430440 f i fluidsim.obj
 0002:00018470       ?max_size@?$vector@V?$vector@IV?$allocator@I@std@@@std@@V?$allocator@V?$vector@IV?$allocator@I@std@@@std@@@2@@std@@QBEIXZ 00430470 f i fluidsim.obj
 0002:000184a0       ?max_size@?$vector@V?$vector@NV?$allocator@N@std@@@std@@V?$allocator@V?$vector@NV?$allocator@N@std@@@std@@@2@@std@@QBEIXZ 004304a0 f i fluidsim.obj
 0002:000184d0       ?message@_Generic_error_category@std@@UBE?AV?$basic_string@DU?$char_traits@D@std@@V?$allocator@D@2@@2@H@Z 004304d0 f i fluidsim.obj
 0002:00018540       ?message@_Iostream_error_category@std@@UBE?AV?$basic_string@DU?$char_traits@D@std@@V?$allocator@D@2@@2@H@Z 00430540 f i fluidsim.obj
 0002:000185c0       ?message@_System_error_category@std@@UBE?AV?$basic_string@DU?$char_traits@D@std@@V?$allocator@D@2@@2@H@Z 004305c0 f i fluidsim.obj
 0002:00018630       ?move@?$char_traits@D@std@@SAPADPADPBDI@Z 00430630 f i fluidsim.obj
 0002:00018680       ?name@_Generic_error_category@std@@UBEPBDXZ 00430680 f i fluidsim.obj
 0002:000186a0       ?name@_Iostream_error_category@std@@UBEPBDXZ 004306a0 f i fluidsim.obj
 0002:000186c0       ?name@_System_error_category@std@@UBEPBDXZ 004306c0 f i fluidsim.obj
 0002:000186e0       ?not_eof@?$char_traits@D@std@@SAHABH@Z 004306e0 f i fluidsim.obj
 0002:00018740       ?open@?$basic_filebuf@DU?$char_traits@D@std@@@std@@QAEPAV12@PBDHH@Z 00430740 f i fluidsim.obj
 0002:00018830       ?overflow@?$basic_filebuf@DU?$char_traits@D@std@@@std@@MAEHH@Z 00430830 f i fluidsim.obj
 0002:00018c80       ?overflow@?$basic_stringbuf@DU?$char_traits@D@std@@V?$allocator@D@2@@std@@MAEHH@Z 00430c80 f i fluidsim.obj
 0002:00019030       ?pbackfail@?$basic_filebuf@DU?$char_traits@D@std@@@std@@MAEHH@Z 00431030 f i fluidsim.obj
 0002:000191e0       ?pbackfail@?$basic_stringbuf@DU?$char_traits@D@std@@V?$allocator@D@2@@std@@MAEHH@Z 004311e0 f i fluidsim.obj
 0002:00019310       ?project@FluidSim@@AAEXM@Z 00431310 f   fluidsim.obj
 0002:00019360       ?push_back@?$vector@IV?$allocator@I@std@@@std@@QAEXABI@Z 00431360 f i fluidsim.obj
 0002:000194b0       ?push_back@?$vector@NV?$allocator@N@std@@@std@@QAEXABN@Z 004314b0 f i fluidsim.obj
 0002:00019600       ?push_back@?$vector@U?$Vec@$02I@@V?$allocator@U?$Vec@$02I@@@std@@@std@@QAEX$$QAU?$Vec@$02I@@@Z 00431600 f i fluidsim.obj
 0002:00019770       ?push_back@?$vector@U?$Vec@$02M@@V?$allocator@U?$Vec@$02M@@@std@@@std@@QAEXABU?$Vec@$02M@@@Z 00431770 f i fluidsim.obj
 0002:000198d0       ?randhash@@YAII@Z          004318d0 f i fluidsim.obj
 0002:00019940       ?randhashf@@YAMI@Z         00431940 f i fluidsim.obj
 0002:000199a0       ?reserve@?$Array1@D@@QAEXK@Z 004319a0 f i fluidsim.obj
 0002:00019a40       ?reserve@?$Array1@M@@QAEXK@Z 00431a40 f i fluidsim.obj
 0002:00019ae0       ?resize@?$Array1@D@@QAEXK@Z 00431ae0 f i fluidsim.obj
 0002:00019b30       ?resize@?$Array1@M@@QAEXK@Z 00431b30 f i fluidsim.obj
 0002:00019b80       ?resize@?$Array3@DU?$Array1@D@@@@QAEXHHH@Z 00431b80 f i fluidsim.obj
 0002:00019c10       ?resize@?$Array3@MU?$Array1@M@@@@QAEXHHH@Z 00431c10 f i fluidsim.obj
 0002:00019ca0       ?resize@?$FixedSparseMatrix@N@@QAEXH@Z 00431ca0 f i fluidsim.obj
 0002:00019ce0       ?resize@?$SparseColumnLowerFactor@N@@QAEXI@Z 00431ce0 f i fluidsim.obj
 0002:00019d50       ?resize@?$SparseMatrix@N@@QAEXH@Z 00431d50 f i fluidsim.obj
 0002:00019da0       ?resize@?$vector@IV?$allocator@I@std@@@std@@QAEXI@Z 00431da0 f i fluidsim.obj
 0002:00019f30       ?resize@?$vector@NV?$allocator@N@std@@@std@@QAEXI@Z 00431f30 f i fluidsim.obj
 0002:0001a0c0       ?resize@?$vector@V?$vector@IV?$allocator@I@std@@@std@@V?$allocator@V?$vector@IV?$allocator@I@std@@@std@@@2@@std@@QAEXI@Z 004320c0 f i fluidsim.obj
 0002:0001a250       ?resize@?$vector@V?$vector@NV?$allocator@N@std@@@std@@V?$allocator@V?$vector@NV?$allocator@N@std@@@std@@@2@@std@@QAEXI@Z 00432250 f i fluidsim.obj
 0002:0001a3e0       ?seekoff@?$basic_filebuf@DU?$char_traits@D@std@@@std@@MAE?AV?$fpos@H@2@_JHH@Z 004323e0 f i fluidsim.obj
 0002:0001a500       ?seekoff@?$basic_stringbuf@DU?$char_traits@D@std@@V?$allocator@D@2@@std@@MAE?AV?$fpos@H@2@_JHH@Z 00432500 f i fluidsim.obj
 0002:0001a870       ?seekpos@?$basic_filebuf@DU?$char_traits@D@std@@@std@@MAE?AV?$fpos@H@2@V32@H@Z 00432870 f i fluidsim.obj
 0002:0001a9a0       ?seekpos@?$basic_stringbuf@DU?$char_traits@D@std@@V?$allocator@D@2@@std@@MAE?AV?$fpos@H@2@V32@H@Z 004329a0 f i fluidsim.obj
 0002:0001ac20       ?seekpos@?$fpos@H@std@@QBE_JXZ 00432c20 f i fluidsim.obj
 0002:0001ac50       ?select_on_container_copy_construction@?$_Wrap_alloc@V?$allocator@D@std@@@std@@QBE?AU12@XZ 00432c50 f i fluidsim.obj
 0002:0001ac90       ?select_on_container_copy_construction@?$allocator@D@std@@QBE?AV12@XZ 00432c90 f i fluidsim.obj
 0002:0001acc0       ?select_on_container_copy_construction@?$allocator_traits@V?$allocator@D@std@@@std@@SA?AV?$allocator@D@2@ABV32@@Z 00432cc0 f i fluidsim.obj
 0002:0001acf0       ?set_boundary@FluidSim@@QAEXP6AMABU?$Vec@$02M@@@Z@Z 00432cf0 f   fluidsim.obj
 0002:0001ae40       ?set_boundary@FluidSim@@QAEXV?$basic_string@DU?$char_traits@D@std@@V?$allocator@D@2@@std@@@Z 00432e40 f   fluidsim.obj
 0002:0001aee0       ?set_liquid@FluidSim@@QAEXP6AMABU?$Vec@$02M@@@Z@Z 00432ee0 f   fluidsim.obj
 0002:0001b190       ?set_liquid@FluidSim@@QAEXV?$basic_string@DU?$char_traits@D@std@@V?$allocator@D@2@@std@@@Z 00433190 f   fluidsim.obj
 0002:0001b4f0       ?set_solver_parameters@?$PCGSolver@N@@QAEXNHNN@Z 004334f0 f i fluidsim.obj
 0002:0001b590       ?set_zero@?$Array1@M@@QAEXXZ 00433590 f i fluidsim.obj
 0002:0001b5d0       ?set_zero@?$Array3@MU?$Array1@M@@@@QAEXXZ 004335d0 f i fluidsim.obj
 0002:0001b600       ?setbuf@?$basic_filebuf@DU?$char_traits@D@std@@@std@@MAEPAV?$basic_streambuf@DU?$char_traits@D@std@@@2@PAD_J@Z 00433600 f i fluidsim.obj
 0002:0001b6a0       ?size@?$Array1@D@@QBEKXZ   004336a0 f i fluidsim.obj
 0002:0001b6c0       ?size@?$Array1@M@@QBEKXZ   004336c0 f i fluidsim.obj
 0002:0001b6e0       ?size@?$basic_string@DU?$char_traits@D@std@@V?$allocator@D@2@@std@@QBEIXZ 004336e0 f i fluidsim.obj
 0002:0001b700       ?size@?$vector@IV?$allocator@I@std@@@std@@QBEIXZ 00433700 f i fluidsim.obj
 0002:0001b730       ?size@?$vector@NV?$allocator@N@std@@@std@@QBEIXZ 00433730 f i fluidsim.obj
 0002:0001b760       ?size@?$vector@U?$Vec@$02I@@V?$allocator@U?$Vec@$02I@@@std@@@std@@QBEIXZ 00433760 f i fluidsim.obj
 0002:0001b790       ?size@?$vector@U?$Vec@$02M@@V?$allocator@U?$Vec@$02M@@@std@@@std@@QBEIXZ 00433790 f i fluidsim.obj
 0002:0001b7c0       ?size@?$vector@V?$vector@IV?$allocator@I@std@@@std@@V?$allocator@V?$vector@IV?$allocator@I@std@@@std@@@2@@std@@QBEIXZ 004337c0 f i fluidsim.obj
 0002:0001b7f0       ?size@?$vector@V?$vector@NV?$allocator@N@std@@@std@@V?$allocator@V?$vector@NV?$allocator@N@std@@@std@@@2@@std@@QBEIXZ 004337f0 f i fluidsim.obj
 0002:0001b820       ?solve@?$PCGSolver@N@@QAE_NABU?$SparseMatrix@N@@ABV?$vector@NV?$allocator@N@std@@@std@@AAV34@AANAAH@Z 00433820 f i fluidsim.obj
 0002:0001bbb0       ?solve_pressure@FluidSim@@AAEXM@Z 00433bb0 f   fluidsim.obj
 0002:0001d8d0       ?sqrt@@YAMM@Z              004358d0 f i fluidsim.obj
 0002:0001d900       ?state@?$fpos@H@std@@QBEHXZ 00435900 f i fluidsim.obj
 0002:0001d920       ?substr@?$basic_string@DU?$char_traits@D@std@@V?$allocator@D@2@@std@@QBE?AV12@II@Z 00435920 f i fluidsim.obj
 0002:0001d980       ?swap@?$vector@NV?$allocator@N@std@@@std@@QAEXAAV12@@Z 00435980 f i fluidsim.obj
 0002:0001db40       ?sync@?$basic_filebuf@DU?$char_traits@D@std@@@std@@MAEHXZ 00435b40 f i fluidsim.obj
 0002:0001dbe0       ?system_category@std@@YAABVerror_category@1@XZ 00435be0 f i fluidsim.obj
 0002:0001dc00       ?to_char_type@?$char_traits@D@std@@SADABH@Z 00435c00 f i fluidsim.obj
 0002:0001dc20       ?to_int_type@?$char_traits@D@std@@SAHABD@Z 00435c20 f i fluidsim.obj
 0002:0001dc40       ?trace_rk2@FluidSim@@AAE?AU?$Vec@$02M@@ABU2@M@Z 00435c40 f   fluidsim.obj
 0002:0001dd60       ?uflow@?$basic_filebuf@DU?$char_traits@D@std@@@std@@MAEHXZ 00435d60 f i fluidsim.obj
 0002:0001e160       ?underflow@?$basic_filebuf@DU?$char_traits@D@std@@@std@@MAEHXZ 00436160 f i fluidsim.obj
 0002:0001e220       ?underflow@?$basic_stringbuf@DU?$char_traits@D@std@@V?$allocator@D@2@@std@@MAEHXZ 00436220 f i fluidsim.obj
 0002:0001e370       ?value@error_code@std@@QBEHXZ 00436370 f i fluidsim.obj
 0002:0001e390       ?value@error_condition@std@@QBEHXZ 00436390 f i fluidsim.obj
 0002:0001e3b0       ?zero@?$SparseMatrix@N@@QAEXXZ 004363b0 f i fluidsim.obj
 0002:0001e430       _fabsf                     00436430 f i fluidsim.obj
 0002:0001e480       _floorf                    00436480 f i fluidsim.obj
 0002:0001e4d0       _sqrtf                     004364d0 f i fluidsim.obj
 0002:0001e5b0       ?fraction_inside@@YAMMM@Z  004365b0 f   levelset_util.obj
 0002:0001e680       ?fraction_inside@@YAMMMMM@Z 00436680 f   levelset_util.obj
 0002:0001ef10       ??$?0M@?$Vec@$02M@@QAE@PBM@Z 00436f10 f i main.obj
 0002:0001ef70       ??$_Allocate@PAUWidget@Gluvi@@@std@@YAPAPAUWidget@Gluvi@@IPAPAU12@@Z 00436f70 f i main.obj
 0002:0001efd0       ??$_Destroy_range@U?$_Wrap_alloc@V?$allocator@PAUWidget@Gluvi@@@std@@@std@@@std@@YAXPAPAUWidget@Gluvi@@0AAU?$_Wrap_alloc@V?$allocator@PAUWidget@Gluvi@@@std@@@0@@Z 00436fd0 f i main.obj
 0002:0001f020       ??$_Destroy_range@U?$_Wrap_alloc@V?$allocator@PAUWidget@Gluvi@@@std@@@std@@@std@@YAXPAPAUWidget@Gluvi@@0AAU?$_Wrap_alloc@V?$allocator@PAUWidget@Gluvi@@@std@@@0@U_Scalar_ptr_iterator_tag@0@@Z 00437020 f i main.obj
 0002:0001f040       ??$_Ptr_cat@PAUWidget@Gluvi@@PAU12@@std@@YA?AU_Scalar_ptr_iterator_tag@0@PAPAUWidget@Gluvi@@0@Z 00437040 f i main.obj
 0002:0001f060       ??$_Umove@PAPAUWidget@Gluvi@@@?$vector@PAUWidget@Gluvi@@V?$allocator@PAUWidget@Gluvi@@@std@@@std@@IAEPAPAUWidget@Gluvi@@PAPAU23@00@Z 00437060 f i main.obj
 0002:0001f0b0       ??$_Uninit_move@PAUWidget@Gluvi@@PAU12@PAU12@@std@@YAPAPAUWidget@Gluvi@@PAPAU12@00AAU?$_Wrap_alloc@V?$allocator@PAUWidget@Gluvi@@@std@@@0@0U_Scalar_ptr_iterator_tag@0@@Z 004370b0 f i main.obj
 0002:0001f100       ??$_Uninitialized_move@PAPAUWidget@Gluvi@@PAPAU12@U?$_Wrap_alloc@V?$allocator@PAUWidget@Gluvi@@@std@@@std@@@std@@YAPAPAUWidget@Gluvi@@PAPAU12@00AAU?$_Wrap_alloc@V?$allocator@PAUWidget@Gluvi@@@std@@@0@@Z 00437100 f i main.obj
 0002:0001f160       ??$_Val_type@PAPAUWidget@Gluvi@@@std@@YAPAPAUWidget@Gluvi@@PAPAU12@@Z 00437160 f i main.obj
 0002:0001f180       ??$addressof@PAUWidget@Gluvi@@@std@@YAPAPAUWidget@Gluvi@@AAPAU12@@Z 00437180 f i main.obj
 0002:0001f1a0       ??$construct@PAUWidget@Gluvi@@PAU12@@?$_Wrap_alloc@V?$allocator@PAUWidget@Gluvi@@@std@@@std@@QAEXPAPAUWidget@Gluvi@@$$QAPAU23@@Z 004371a0 f i main.obj
 0002:0001f1e0       ??$construct@PAUWidget@Gluvi@@PAU12@@?$allocator@PAUWidget@Gluvi@@@std@@QAEXPAPAUWidget@Gluvi@@$$QAPAU23@@Z 004371e0 f i main.obj
 0002:0001f290       ??$construct@PAUWidget@Gluvi@@PAU12@@?$allocator_traits@V?$allocator@PAUWidget@Gluvi@@@std@@@std@@SAXAAV?$allocator@PAUWidget@Gluvi@@@1@PAPAUWidget@Gluvi@@$$QAPAU34@@Z 00437290 f i main.obj
 0002:0001f2d0       ??$forward@PAUWidget@Gluvi@@@std@@YA$$QAPAUWidget@Gluvi@@AAPAU12@@Z 004372d0 f i main.obj
 0002:0001f2f0       ??$forward@V?$basic_string@DU?$char_traits@D@std@@V?$allocator@D@2@@std@@@std@@YA$$QAV?$basic_string@DU?$char_traits@D@std@@V?$allocator@D@2@@0@AAV10@@Z 004372f0 f i main.obj
 0002:0001f310       ??0?$Array1@D@@QAE@XZ      00437310 f i main.obj
 0002:0001f350       ??0?$Array1@M@@QAE@XZ      00437350 f i main.obj
 0002:0001f390       ??0?$Array3@DU?$Array1@D@@@@QAE@XZ 00437390 f i main.obj
 0002:0001f3e0       ??0?$Array3@MU?$Array1@M@@@@QAE@XZ 004373e0 f i main.obj
 0002:0001f430       ??0?$FixedSparseMatrix@N@@QAE@I@Z 00437430 f i main.obj
 0002:0001f4e0       ??0?$PCGSolver@N@@QAE@XZ   004374e0 f i main.obj
 0002:0001f600       ??0?$SparseColumnLowerFactor@N@@QAE@I@Z 00437600 f i main.obj
 0002:0001f6e0       ??0?$SparseMatrix@N@@QAE@II@Z 004376e0 f i main.obj
 0002:0001f7e0       ??0?$_Vector_alloc@$0A@U?$_Vec_base_types@V?$vector@IV?$allocator@I@std@@@std@@V?$allocator@V?$vector@IV?$allocator@I@std@@@std@@@2@@std@@@std@@QAE@ABV?$allocator@V?$vector@IV?$allocator@I@std@@@std@@@1@@Z 004377e0 f i main.obj
 0002:0001f810       ??0?$_Vector_alloc@$0A@U?$_Vec_base_types@V?$vector@NV?$allocator@N@std@@@std@@V?$allocator@V?$vector@NV?$allocator@N@std@@@std@@@2@@std@@@std@@QAE@ABV?$allocator@V?$vector@NV?$allocator@N@std@@@std@@@1@@Z 00437810 f i main.obj
 0002:0001f840       ??0?$_Vector_val@U?$_Simple_types@V?$vector@IV?$allocator@I@std@@@std@@@std@@@std@@QAE@XZ 00437840 f i main.obj
 0002:0001f880       ??0?$_Vector_val@U?$_Simple_types@V?$vector@NV?$allocator@N@std@@@std@@@std@@@std@@QAE@XZ 00437880 f i main.obj
 0002:0001f8c0       ??0?$_Wrap_alloc@V?$allocator@PAUWidget@Gluvi@@@std@@@std@@QAE@XZ 004378c0 f i main.obj
 0002:0001f8f0       ??0?$allocator@PAUWidget@Gluvi@@@std@@QAE@XZ 004378f0 f i main.obj
 0002:0001f910       ??0?$basic_ofstream@DU?$char_traits@D@std@@@std@@QAE@PBDHH@Z 00437910 f i main.obj
 0002:0001fa60       ??0?$basic_string@DU?$char_traits@D@std@@V?$allocator@D@2@@std@@QAE@$$QAV01@@Z 00437a60 f i main.obj
 0002:0001fad0       ??0?$basic_string@DU?$char_traits@D@std@@V?$allocator@D@2@@std@@QAE@PBDI@Z 00437ad0 f i main.obj
 0002:0001fb30       ??0?$basic_stringbuf@DU?$char_traits@D@std@@V?$allocator@D@2@@std@@QAE@H@Z 00437b30 f i main.obj
 0002:0001fbe0       ??0?$basic_stringstream@DU?$char_traits@D@std@@V?$allocator@D@2@@std@@QAE@H@Z 00437be0 f i main.obj
 0002:0001fcf0       ??0?$vector@IV?$allocator@I@std@@@std@@QAE@I@Z 00437cf0 f i main.obj
 0002:0001fd40       ??0?$vector@NV?$allocator@N@std@@@std@@QAE@I@Z 00437d40 f i main.obj
 0002:0001fd90       ??0?$vector@V?$vector@IV?$allocator@I@std@@@std@@V?$allocator@V?$vector@IV?$allocator@I@std@@@std@@@2@@std@@QAE@I@Z 00437d90 f i main.obj
 0002:0001fde0       ??0?$vector@V?$vector@NV?$allocator@N@std@@@std@@V?$allocator@V?$vector@NV?$allocator@N@std@@@std@@@2@@std@@QAE@I@Z 00437de0 f i main.obj
 0002:0001fe30       ??0FluidSim@@QAE@XZ        00437e30 f i main.obj
 0002:00020060       ??0MovieButton@@QAE@PBD0@Z 00438060 f i main.obj
 0002:000200b0       ??0RunButton@@QAE@PBD@Z    004380b0 f i main.obj
 0002:000200f0       ??0ScreenShotButton@@QAE@PBD0@Z 004380f0 f i main.obj
 0002:00020140       ??1?$FixedSparseMatrix@N@@QAE@XZ 00438140 f i main.obj
 0002:00020190       ??1?$PCGSolver@N@@QAE@XZ   00438190 f i main.obj
 0002:00020200       ??1?$SparseColumnLowerFactor@N@@QAE@XZ 00438200 f i main.obj
 0002:00020260       ??1?$SparseMatrix@N@@QAE@XZ 00438260 f i main.obj
 0002:000202a0       ??1?$basic_ofstream@DU?$char_traits@D@std@@@std@@UAE@XZ 004382a0 f i main.obj
 0002:00020310       ??1?$vector@V?$vector@IV?$allocator@I@std@@@std@@V?$allocator@V?$vector@IV?$allocator@I@std@@@std@@@2@@std@@QAE@XZ 00438310 f i main.obj
 0002:00020340       ??1?$vector@V?$vector@NV?$allocator@N@std@@@std@@V?$allocator@V?$vector@NV?$allocator@N@std@@@std@@@2@@std@@QAE@XZ 00438340 f i main.obj
 0002:00020370       ??1Button@Gluvi@@UAE@XZ    00438370 f i main.obj
 0002:000203a0       ??1Camera@Gluvi@@UAE@XZ    004383a0 f i main.obj
 0002:000203d0       ??1FluidSim@@QAE@XZ        004383d0 f i main.obj
 0002:000205e0       ??1MovieButton@@UAE@XZ     004385e0 f i main.obj
 0002:00020610       ??1RunButton@@UAE@XZ       00438610 f i main.obj
 0002:00020640       ??1ScreenShotButton@@UAE@XZ 00438640 f i main.obj
 0002:00020670       ??1StaticText@Gluvi@@UAE@XZ 00438670 f i main.obj
 0002:000206a0       ??1Target3D@Gluvi@@UAE@XZ  004386a0 f i main.obj
 0002:000206d0       ??1Widget@Gluvi@@UAE@XZ    004386d0 f i main.obj
 0002:00020700       ??A?$vector@U?$Vec@$02M@@V?$allocator@U?$Vec@$02M@@@std@@@std@@QBEABU?$Vec@$02M@@I@Z 00438700 f i main.obj
 0002:00020730       ??_D?$basic_ofstream@DU?$char_traits@D@std@@@std@@QAEXXZ 00438730 f i main.obj
 0002:00020764       ??_E?$basic_ofstream@DU?$char_traits@D@std@@@std@@$4PPPPPPPM@A@AEPAXI@Z 00438764 f i main.obj
 0002:00020770       ??_G?$basic_ofstream@DU?$char_traits@D@std@@@std@@UAEPAXI@Z 00438770 f i main.obj
 0002:00020770       ??_E?$basic_ofstream@DU?$char_traits@D@std@@@std@@UAEPAXI@Z 00438770 f i main.obj
 0002:000207c0       ??_GCamera@Gluvi@@UAEPAXI@Z 004387c0 f i main.obj
 0002:000207c0       ??_ECamera@Gluvi@@UAEPAXI@Z 004387c0 f i main.obj
 0002:00020810       ??_GMovieButton@@UAEPAXI@Z 00438810 f i main.obj
 0002:00020810       ??_EMovieButton@@UAEPAXI@Z 00438810 f i main.obj
 0002:00020860       ??_GRunButton@@UAEPAXI@Z   00438860 f i main.obj
 0002:00020860       ??_ERunButton@@UAEPAXI@Z   00438860 f i main.obj
 0002:000208b0       ??_GScreenShotButton@@UAEPAXI@Z 004388b0 f i main.obj
 0002:000208b0       ??_EScreenShotButton@@UAEPAXI@Z 004388b0 f i main.obj
 0002:00020900       ??_EWidget@Gluvi@@UAEPAXI@Z 00438900 f i main.obj
 0002:00020900       ??_GWidget@Gluvi@@UAEPAXI@Z 00438900 f i main.obj
 0002:00020941       ?_Add_vtordisp2@?$basic_ostream@DU?$char_traits@D@std@@@std@@$4PPPPPPPM@FI@AEXXZ 00438941 f i main.obj
 0002:00020950       ?_Assign_rv@?$basic_string@DU?$char_traits@D@std@@V?$allocator@D@2@@std@@QAEX$$QAV12@@Z 00438950 f i main.obj
 0002:00020a00       ?_Destroy@?$vector@PAUWidget@Gluvi@@V?$allocator@PAUWidget@Gluvi@@@std@@@std@@IAEXPAPAUWidget@Gluvi@@0@Z 00438a00 f i main.obj
 0002:00020a50       ?_Getal@?$_Vector_alloc@$0A@U?$_Vec_base_types@PAUWidget@Gluvi@@V?$allocator@PAUWidget@Gluvi@@@std@@@std@@@std@@QBE?AU?$_Wrap_alloc@V?$allocator@PAUWidget@Gluvi@@@std@@@2@XZ 00438a50 f i main.obj
 0002:00020a80       ?_Grow_to@?$vector@PAUWidget@Gluvi@@V?$allocator@PAUWidget@Gluvi@@@std@@@std@@IBEII@Z 00438a80 f i main.obj
 0002:00020b00       ?_Inside@?$vector@PAUWidget@Gluvi@@V?$allocator@PAUWidget@Gluvi@@@std@@@std@@IBE_NPBQAUWidget@Gluvi@@@Z 00438b00 f i main.obj
 0002:00020b50       ?_Orphan_range@?$vector@PAUWidget@Gluvi@@V?$allocator@PAUWidget@Gluvi@@@std@@@std@@IBEXPAPAUWidget@Gluvi@@0@Z 00438b50 f i main.obj
 0002:00020b70       ?_Reallocate@?$vector@PAUWidget@Gluvi@@V?$allocator@PAUWidget@Gluvi@@@std@@@std@@IAEXI@Z 00438b70 f i main.obj
 0002:00020d00       ?_Reserve@?$vector@PAUWidget@Gluvi@@V?$allocator@PAUWidget@Gluvi@@@std@@@std@@IAEXI@Z 00438d00 f i main.obj
 0002:00020d80       ?_Unused_capacity@?$vector@PAUWidget@Gluvi@@V?$allocator@PAUWidget@Gluvi@@@std@@@std@@QBEIXZ 00438d80 f i main.obj
 0002:00020db0       ?_Xlen@?$vector@PAUWidget@Gluvi@@V?$allocator@PAUWidget@Gluvi@@@std@@@std@@IBEXXZ 00438db0 f i main.obj
 0002:00020de0       ?action@MovieButton@@UAEXXZ 00438de0 f i main.obj
 0002:00020e40       ?action@RunButton@@UAEXXZ  00438e40 f i main.obj
 0002:00020ea0       ?action@ScreenShotButton@@UAEXXZ 00438ea0 f i main.obj
 0002:00020ee0       ?allocate@?$_Wrap_alloc@V?$allocator@PAUWidget@Gluvi@@@std@@@std@@QAEPAPAUWidget@Gluvi@@I@Z 00438ee0 f i main.obj
 0002:00020f10       ?allocate@?$allocator@PAUWidget@Gluvi@@@std@@QAEPAPAUWidget@Gluvi@@I@Z 00438f10 f i main.obj
 0002:00020f40       ?boundary_phi@@YAMABU?$Vec@$02M@@@Z 00438f40 f   main.obj
 0002:00020fa0       ?capacity@?$vector@PAUWidget@Gluvi@@V?$allocator@PAUWidget@Gluvi@@@std@@@std@@QBEIXZ 00438fa0 f i main.obj
 0002:00020fd0       ?click@Widget@Gluvi@@UAE_NHHH@Z 00438fd0 f i main.obj
 0002:00020ff0       ?close@?$basic_ofstream@DU?$char_traits@D@std@@@std@@QAEXXZ 00438ff0 f i main.obj
 0002:00021040       ?deallocate@?$_Wrap_alloc@V?$allocator@PAUWidget@Gluvi@@@std@@@std@@QAEXPAPAUWidget@Gluvi@@I@Z 00439040 f i main.obj
 0002:00021070       ?deallocate@?$allocator@PAUWidget@Gluvi@@@std@@QAEXPAPAUWidget@Gluvi@@I@Z 00439070 f i main.obj
 0002:000210a0       ?display@@YAXXZ            004390a0 f   main.obj
 0002:00021b60       ?display_screen@Camera@Gluvi@@UAEXXZ 00439b60 f i main.obj
 0002:00021b80       ?drag@Widget@Gluvi@@UAEXHH@Z 00439b80 f i main.obj
 0002:00021ba0       ?export_particles@@YAXV?$basic_string@DU?$char_traits@D@std@@V?$allocator@D@2@@std@@HABV?$vector@U?$Vec@$02M@@V?$allocator@U?$Vec@$02M@@@std@@@2@M@Z 00439ba0 f   main.obj
 0002:00021ea0       ?keyPress@@YAXEHH@Z        00439ea0 f   main.obj
 0002:00021f50       ?liquid_phi@@YAMABU?$Vec@$02M@@@Z 00439f50 f   main.obj
 0002:00021fe0       ?max_size@?$_Wrap_alloc@V?$allocator@PAUWidget@Gluvi@@@std@@@std@@QBEIXZ 00439fe0 f i main.obj
 0002:00022010       ?max_size@?$allocator@PAUWidget@Gluvi@@@std@@QBEIXZ 0043a010 f i main.obj
 0002:00022030       ?max_size@?$allocator_traits@V?$allocator@PAUWidget@Gluvi@@@std@@@std@@SAIABV?$allocator@PAUWidget@Gluvi@@@2@@Z 0043a030 f i main.obj
 0002:00022050       ?max_size@?$vector@PAUWidget@Gluvi@@V?$allocator@PAUWidget@Gluvi@@@std@@@std@@QBEIXZ 0043a050 f i main.obj
 0002:00022080       ?push_back@?$vector@PAUWidget@Gluvi@@V?$allocator@PAUWidget@Gluvi@@@std@@@std@@QAEX$$QAPAUWidget@Gluvi@@@Z 0043a080 f i main.obj
 0002:000221f0       ?reserve@?$vector@IV?$allocator@I@std@@@std@@QAEXI@Z 0043a1f0 f i main.obj
 0002:00022250       ?reserve@?$vector@NV?$allocator@N@std@@@std@@QAEXI@Z 0043a250 f i main.obj
 0002:000222b0       ?set_lights_and_material@@YAXH@Z 0043a2b0 f   main.obj
 0002:00022380       ?set_view@@YAXAAUTarget3D@Gluvi@@@Z 0043a380 f   main.obj
 0002:00022410       ?setupDisplay@@YAXHPAPAD@Z 0043a410 f   main.obj
 0002:000226a0       ?simulate_frame@@YAXH@Z    0043a6a0 f   main.obj
 0002:00022700       ?size@?$vector@PAUWidget@Gluvi@@V?$allocator@PAUWidget@Gluvi@@@std@@@std@@QBEIXZ 0043a700 f i main.obj
 0002:00022730       ?sphere_phi@@YAMABU?$Vec@$02M@@0M@Z 0043a730 f   main.obj
 0002:00022780       ?str@?$basic_stringbuf@DU?$char_traits@D@std@@V?$allocator@D@2@@std@@QBE?AV?$basic_string@DU?$char_traits@D@std@@V?$allocator@D@2@@2@XZ 0043a780 f i main.obj
 0002:00022950       ?str@?$basic_stringstream@DU?$char_traits@D@std@@V?$allocator@D@2@@std@@QBE?AV?$basic_string@DU?$char_traits@D@std@@V?$allocator@D@2@@2@XZ 0043a950 f i main.obj
 0002:000229a0       ?timer@@YAXH@Z             0043a9a0 f   main.obj
 0002:00022a50       _main                      0043aa50 f   main.obj
 0002:00022c80       ??$assign@$02I@@YAXABU?$Vec@$02I@@AAI11@Z 0043ac80 f i makelevelset3.obj
 0002:00022ce0       ??$clamp@H@@YAHHHH@Z       0043ace0 f i makelevelset3.obj
 0002:00022d20       ??$max@N@@YANNNN@Z         0043ad20 f i makelevelset3.obj
 0002:00022d60       ??$max@N@std@@YAABNABN0@Z  0043ad60 f i makelevelset3.obj
 0002:00022db0       ??$min@M@std@@YAABMABM0@Z  0043adb0 f i makelevelset3.obj
 0002:00022e00       ??$min@N@@YANNNN@Z         0043ae00 f i makelevelset3.obj
 0002:00022e40       ??$min@N@std@@YAABNABN0@Z  0043ae40 f i makelevelset3.obj
 0002:00022e90       ??0?$Array1@H@@QAE@KABH@Z  0043ae90 f i makelevelset3.obj
 0002:00022f90       ??0?$Array3@HU?$Array1@H@@@@QAE@HHHABH@Z 0043af90 f i makelevelset3.obj
 0002:00023030       ??1?$Array1@H@@QAE@XZ      0043b030 f i makelevelset3.obj
 0002:00023080       ??1?$Array3@HU?$Array1@H@@@@QAE@XZ 0043b080 f i makelevelset3.obj
 0002:000230c0       ??A?$Array1@H@@QAEAAHK@Z   0043b0c0 f i makelevelset3.obj
 0002:000230f0       ??A?$vector@U?$Vec@$02I@@V?$allocator@U?$Vec@$02I@@@std@@@std@@QBEABU?$Vec@$02I@@I@Z 0043b0f0 f i makelevelset3.obj
 0002:00023120       ??R?$Array3@HU?$Array1@H@@@@QAEAAHHHH@Z 0043b120 f i makelevelset3.obj
 0002:00023300       ?make_level_set3@@YAXABV?$vector@U?$Vec@$02I@@V?$allocator@U?$Vec@$02I@@@std@@@std@@ABV?$vector@U?$Vec@$02M@@V?$allocator@U?$Vec@$02M@@@std@@@2@ABU?$Vec@$02M@@MHHHAAU?$Array3@MU?$Array1@M@@@@H@Z 0043b300 f   makelevelset3.obj
 0002:00025190       ??$?D$01M@@YA?AU?$Vec@$01M@@MABU0@@Z 0043d190 f i gluvi.obj
 0002:00025200       ??$_Pow_int@N@@YANNH@Z     0043d200 f i gluvi.obj
 0002:000252c0       ??$cross@M@@YA?AU?$Vec@$02M@@ABU0@0@Z 0043d2c0 f i gluvi.obj
 0002:00025400       ??$mag2@$01M@@YAMABU?$Vec@$01M@@@Z 0043d400 f i gluvi.obj
 0002:00025490       ??$mag@$01M@@YAMABU?$Vec@$01M@@@Z 0043d490 f i gluvi.obj
 0002:000254c0       ??0?$Vec@$01M@@QAE@MM@Z    0043d4c0 f i gluvi.obj
 0002:00025520       ??0?$Vec@$01M@@QAE@XZ      0043d520 f i gluvi.obj
 0002:00025540       ??0?$_Vector_alloc@$0A@U?$_Vec_base_types@PAUWidget@Gluvi@@V?$allocator@PAUWidget@Gluvi@@@std@@@std@@@std@@QAE@ABV?$allocator@PAUWidget@Gluvi@@@1@@Z 0043d540 f i gluvi.obj
 0002:00025570       ??0?$_Vector_val@U?$_Simple_types@PAUWidget@Gluvi@@@std@@@std@@QAE@XZ 0043d570 f i gluvi.obj
 0002:000255b0       ??0?$vector@PAUWidget@Gluvi@@V?$allocator@PAUWidget@Gluvi@@@std@@@std@@QAE@XZ 0043d5b0 f i gluvi.obj
 0002:000255e0       ??0Button@Gluvi@@QAE@PBDH@Z 0043d5e0 f   gluvi.obj
 0002:00025640       ??0Camera@Gluvi@@QAE@XZ    0043d640 f i gluvi.obj
 0002:00025670       ??0PanZoom2D@Gluvi@@QAE@MMM@Z 0043d670 f   gluvi.obj
 0002:00025710       ??0Slider@Gluvi@@QAE@PBDHHH@Z 0043d710 f   gluvi.obj
 0002:00025780       ??0StaticText@Gluvi@@QAE@PBD@Z 0043d780 f   gluvi.obj
 0002:000257c0       ??0Target3D@Gluvi@@QAE@QAMMMMMMM@Z 0043d7c0 f   gluvi.obj
 0002:000259d0       ??0TargetOrtho3D@Gluvi@@QAE@QAMMMMMMM@Z 0043d9d0 f   gluvi.obj
 0002:00025be0       ??0Widget@Gluvi@@QAE@XZ    0043dbe0 f i gluvi.obj
 0002:00025c10       ??0WidgetList@Gluvi@@QAE@H_N@Z 0043dc10 f   gluvi.obj
 0002:00025cc0       ??1?$vector@PAUWidget@Gluvi@@V?$allocator@PAUWidget@Gluvi@@@std@@@std@@QAE@XZ 0043dcc0 f i gluvi.obj
 0002:00025cf0       ??1PanZoom2D@Gluvi@@UAE@XZ 0043dcf0 f i gluvi.obj
 0002:00025d20       ??1Slider@Gluvi@@UAE@XZ    0043dd20 f i gluvi.obj
 0002:00025d50       ??1TargetOrtho3D@Gluvi@@UAE@XZ 0043dd50 f i gluvi.obj
 0002:00025d80       ??1WidgetList@Gluvi@@UAE@XZ 0043dd80 f i gluvi.obj
 0002:00025db0       ??A?$Vec@$01M@@QAEAAMH@Z   0043ddb0 f i gluvi.obj
 0002:00025e00       ??A?$Vec@$01M@@QBEABMH@Z   0043de00 f i gluvi.obj
 0002:00025e50       ??A?$vector@PAUWidget@Gluvi@@V?$allocator@PAUWidget@Gluvi@@@std@@@std@@QAEAAPAUWidget@Gluvi@@I@Z 0043de50 f i gluvi.obj
 0002:00025e80       ??G?$Vec@$01M@@QBE?AU0@ABU0@@Z 0043de80 f i gluvi.obj
 0002:00025ef0       ??H?$Vec@$01M@@QBE?AU0@ABU0@@Z 0043def0 f i gluvi.obj
 0002:00025f60       ??K?$Vec@$01M@@QBE?AU0@M@Z 0043df60 f i gluvi.obj
 0002:00025fe0       ??X?$Vec@$01M@@QAE?AU0@M@Z 0043dfe0 f i gluvi.obj
 0002:00026060       ??Y?$Vec@$01M@@QAE?AU0@ABU0@@Z 0043e060 f i gluvi.obj
 0002:000260f0       ??Z?$Vec@$01M@@QAE?AU0@ABU0@@Z 0043e0f0 f i gluvi.obj
 0002:00026180       ??_0?$Vec@$01M@@QAE?AU0@M@Z 0043e180 f i gluvi.obj
 0002:00026200       ??_GButton@Gluvi@@UAEPAXI@Z 0043e200 f i gluvi.obj
 0002:00026200       ??_EButton@Gluvi@@UAEPAXI@Z 0043e200 f i gluvi.obj
 0002:00026250       ??_GPanZoom2D@Gluvi@@UAEPAXI@Z 0043e250 f i gluvi.obj
 0002:00026250       ??_EPanZoom2D@Gluvi@@UAEPAXI@Z 0043e250 f i gluvi.obj
 0002:000262a0       ??_GSlider@Gluvi@@UAEPAXI@Z 0043e2a0 f i gluvi.obj
 0002:000262a0       ??_ESlider@Gluvi@@UAEPAXI@Z 0043e2a0 f i gluvi.obj
 0002:000262f0       ??_EStaticText@Gluvi@@UAEPAXI@Z 0043e2f0 f i gluvi.obj
 0002:000262f0       ??_GStaticText@Gluvi@@UAEPAXI@Z 0043e2f0 f i gluvi.obj
 0002:00026340       ??_ETarget3D@Gluvi@@UAEPAXI@Z 0043e340 f i gluvi.obj
 0002:00026340       ??_GTarget3D@Gluvi@@UAEPAXI@Z 0043e340 f i gluvi.obj
 0002:00026390       ??_ETargetOrtho3D@Gluvi@@UAEPAXI@Z 0043e390 f i gluvi.obj
 0002:00026390       ??_GTargetOrtho3D@Gluvi@@UAEPAXI@Z 0043e390 f i gluvi.obj
 0002:000263e0       ??_EWidgetList@Gluvi@@UAEPAXI@Z 0043e3e0 f i gluvi.obj
 0002:000263e0       ??_GWidgetList@Gluvi@@UAEPAXI@Z 0043e3e0 f i gluvi.obj
 0002:00026430       ?_Tidy@?$vector@PAUWidget@Gluvi@@V?$allocator@PAUWidget@Gluvi@@@std@@@std@@IAEXXZ 0043e430 f i gluvi.obj
 0002:000264d0       ?action@Button@Gluvi@@UAEXXZ 0043e4d0 f i gluvi.obj
 0002:000264f0       ?action@Slider@Gluvi@@UAEXXZ 0043e4f0 f i gluvi.obj
 0002:00026510       ?click@Button@Gluvi@@UAE_NHHH@Z 0043e510 f   gluvi.obj
 0002:00026620       ?click@PanZoom2D@Gluvi@@UAEXHHHH@Z 0043e620 f   gluvi.obj
 0002:00026bc0       ?click@Slider@Gluvi@@UAE_NHHH@Z 0043ebc0 f   gluvi.obj
 0002:00026c90       ?click@Target3D@Gluvi@@UAEXHHHH@Z 0043ec90 f   gluvi.obj
 0002:00026d20       ?click@TargetOrtho3D@Gluvi@@UAEXHHHH@Z 0043ed20 f   gluvi.obj
 0002:00026db0       ?click@WidgetList@Gluvi@@UAE_NHHH@Z 0043edb0 f   gluvi.obj
 0002:00026eb0       ?cos@@YAMM@Z               0043eeb0 f i gluvi.obj
 0002:00026ee0       ?display@Button@Gluvi@@UAEXHH@Z 0043eee0 f   gluvi.obj
 0002:000272f0       ?display@Slider@Gluvi@@UAEXHH@Z 0043f2f0 f   gluvi.obj
 0002:00027970       ?display@StaticText@Gluvi@@UAEXHH@Z 0043f970 f   gluvi.obj
 0002:00027b10       ?display@WidgetList@Gluvi@@UAEXHH@Z 0043fb10 f   gluvi.obj
 0002:00027c90       ?display_screen@PanZoom2D@Gluvi@@UAEXXZ 0043fc90 f   gluvi.obj
 0002:00027dc0       ?drag@Button@Gluvi@@UAEXHH@Z 0043fdc0 f   gluvi.obj
 0002:00027eb0       ?drag@PanZoom2D@Gluvi@@UAEXHH@Z 0043feb0 f   gluvi.obj
 0002:00027fb0       ?drag@Slider@Gluvi@@UAEXHH@Z 0043ffb0 f   gluvi.obj
 0002:00028090       ?drag@Target3D@Gluvi@@UAEXHH@Z 00440090 f   gluvi.obj
 0002:00028430       ?drag@TargetOrtho3D@Gluvi@@UAEXHH@Z 00440430 f   gluvi.obj
 0002:000287d0       ?drag@WidgetList@Gluvi@@UAEXHH@Z 004407d0 f   gluvi.obj
 0002:00028830       ?draw_2d_arrow@Gluvi@@YAXU?$Vec@$01M@@0M@Z 00440830 f   gluvi.obj
 0002:00028c90       ?draw_3d_arrow@Gluvi@@YAXQBM0M@Z 00440c90 f   gluvi.obj
 0002:00029470       ?draw_coordinate_grid@Gluvi@@YAXMH@Z 00441470 f   gluvi.obj
 0002:000298c0       ?draw_text@Gluvi@@YAXQBMPBDH@Z 004418c0 f   gluvi.obj
 0002:000298e0       ?export_rib@PanZoom2D@Gluvi@@UAEXAAV?$basic_ostream@DU?$char_traits@D@std@@@std@@@Z 004418e0 f   gluvi.obj
 0002:00029b50       ?export_rib@Target3D@Gluvi@@UAEXAAV?$basic_ostream@DU?$char_traits@D@std@@@std@@@Z 00441b50 f   gluvi.obj
 0002:00029e60       ?export_rib@TargetOrtho3D@Gluvi@@UAEXAAV?$basic_ostream@DU?$char_traits@D@std@@@std@@@Z 00441e60 f   gluvi.obj
 0002:0002a150       ?get_viewing_direction@Target3D@Gluvi@@QAEXQAM@Z 00442150 f   gluvi.obj
 0002:0002a260       ?get_viewing_direction@TargetOrtho3D@Gluvi@@QAEXQAM@Z 00442260 f   gluvi.obj
 0002:0002a370       ?gl_transform@PanZoom2D@Gluvi@@UAEXXZ 00442370 f   gluvi.obj
 0002:0002a490       ?gl_transform@Target3D@Gluvi@@UAEXXZ 00442490 f   gluvi.obj
 0002:0002a870       ?gl_transform@TargetOrtho3D@Gluvi@@UAEXXZ 00442870 f   gluvi.obj
 0002:0002b0b0       ?init@Gluvi@@YAXPBDPAHPAPAD@Z 004430b0 f   gluvi.obj
 0002:0002b1d0       ?pow@@YANNH@Z              004431d0 f i gluvi.obj
 0002:0002b210       ?ppm_screenshot@Gluvi@@YAXPBDZZ 00443210 f   gluvi.obj
 0002:0002b490       ?return_to_default@PanZoom2D@Gluvi@@UAEXXZ 00443490 f   gluvi.obj
 0002:0002b4e0       ?return_to_default@Target3D@Gluvi@@UAEXXZ 004434e0 f   gluvi.obj
 0002:0002b5a0       ?return_to_default@TargetOrtho3D@Gluvi@@UAEXXZ 004435a0 f   gluvi.obj
 0002:0002b660       ?run@Gluvi@@YAXXZ          00443660 f   gluvi.obj
 0002:0002b680       ?set_generic_lights@Gluvi@@YAXXZ 00443680 f   gluvi.obj
 0002:0002b8a0       ?set_generic_material@Gluvi@@YAXMMMI@Z 004438a0 f   gluvi.obj
 0002:0002bb20       ?set_matte_material@Gluvi@@YAXMMMI@Z 00443b20 f   gluvi.obj
 0002:0002bd40       ?sgi_screenshot@Gluvi@@YAXPBDZZ 00443d40 f   gluvi.obj
 0002:0002c1a0       ?sin@@YAMM@Z               004441a0 f i gluvi.obj
 0002:0002c1d0       ?tan@@YAMM@Z               004441d0 f i gluvi.obj
 0002:0002c200       ?transform_mouse@PanZoom2D@Gluvi@@QAEXHHQAM@Z 00444200 f   gluvi.obj
 0002:0002c2a0       ?transform_mouse@Target3D@Gluvi@@QAEXHHQAM0@Z 004442a0 f   gluvi.obj
 0002:0002c7b0       ?transform_mouse@TargetOrtho3D@Gluvi@@QAEXHHQAM0@Z 004447b0 f   gluvi.obj
 0002:0002c8c0       _cosf                      004448c0 f i gluvi.obj
 0002:0002c910       _sinf                      00444910 f i gluvi.obj
 0002:0002c960       _tanf                      00444960 f i gluvi.obj
 0002:0002c9a8       _glBegin@4                 004449a8 f   opengl32:OPENGL32.dll
 0002:0002c9ae       _glBlendFunc@8             004449ae f   opengl32:OPENGL32.dll
 0002:0002c9b4       _glClearColor@16           004449b4 f   opengl32:OPENGL32.dll
 0002:0002c9ba       _glColor3f@12              004449ba f   opengl32:OPENGL32.dll
 0002:0002c9c0       _glColor4f@16              004449c0 f   opengl32:OPENGL32.dll
 0002:0002c9c6       _glDepthFunc@4             004449c6 f   opengl32:OPENGL32.dll
 0002:0002c9cc       _glDisable@4               004449cc f   opengl32:OPENGL32.dll
 0002:0002c9d2       _glEnable@4                004449d2 f   opengl32:OPENGL32.dll
 0002:0002c9d8       _glEnd@0                   004449d8 f   opengl32:OPENGL32.dll
 0002:0002c9de       _glPolygonMode@8           004449de f   opengl32:OPENGL32.dll
 0002:0002c9e4       _glPopMatrix@0             004449e4 f   opengl32:OPENGL32.dll
 0002:0002c9ea       _glPushMatrix@0            004449ea f   opengl32:OPENGL32.dll
 0002:0002c9f0       _glShadeModel@4            004449f0 f   opengl32:OPENGL32.dll
 0002:0002c9f6       _glTranslatef@12           004449f6 f   opengl32:OPENGL32.dll
 0002:0002c9fc       _glVertex3f@12             004449fc f   opengl32:OPENGL32.dll
 0002:0002ca02       _glClear@4                 00444a02 f   opengl32:OPENGL32.dll
 0002:0002ca08       _glClearDepth@8            00444a08 f   opengl32:OPENGL32.dll
 0002:0002ca0e       _glLightModelfv@8          00444a0e f   opengl32:OPENGL32.dll
 0002:0002ca14       _glLightfv@12              00444a14 f   opengl32:OPENGL32.dll
 0002:0002ca1a       _glLineWidth@4             00444a1a f   opengl32:OPENGL32.dll
 0002:0002ca20       _glLoadIdentity@0          00444a20 f   opengl32:OPENGL32.dll
 0002:0002ca26       _glMaterialf@12            00444a26 f   opengl32:OPENGL32.dll
 0002:0002ca2c       _glMaterialfv@12           00444a2c f   opengl32:OPENGL32.dll
 0002:0002ca32       _glMatrixMode@4            00444a32 f   opengl32:OPENGL32.dll
 0002:0002ca38       _glOrtho@48                00444a38 f   opengl32:OPENGL32.dll
 0002:0002ca3e       _glPixelStorei@8           00444a3e f   opengl32:OPENGL32.dll
 0002:0002ca44       _glPopAttrib@0             00444a44 f   opengl32:OPENGL32.dll
 0002:0002ca4a       _glPushAttrib@4            00444a4a f   opengl32:OPENGL32.dll
 0002:0002ca50       _glRasterPos2i@8           00444a50 f   opengl32:OPENGL32.dll
 0002:0002ca56       _glReadBuffer@4            00444a56 f   opengl32:OPENGL32.dll
 0002:0002ca5c       _glReadPixels@28           00444a5c f   opengl32:OPENGL32.dll
 0002:0002ca62       _glRotatef@16              00444a62 f   opengl32:OPENGL32.dll
 0002:0002ca68       _glVertex2f@8              00444a68 f   opengl32:OPENGL32.dll
 0002:0002ca6e       _glVertex2i@8              00444a6e f   opengl32:OPENGL32.dll
 0002:0002ca74       _glViewport@16             00444a74 f   opengl32:OPENGL32.dll
 0002:0002ca7a       _gluNewQuadric@0           00444a7a f   glu32:GLU32.dll
 0002:0002ca80       _gluQuadricDrawStyle@8     00444a80 f   glu32:GLU32.dll
 0002:0002ca86       _gluSphere@20              00444a86 f   glu32:GLU32.dll
 0002:0002ca8c       _gluOrtho2D@32             00444a8c f   glu32:GLU32.dll
 0002:0002ca92       _gluPerspective@32         00444a92 f   glu32:GLU32.dll
 0002:0002ca98       _glutPostRedisplay@0       00444a98 f   glut32:glut32.dll
 0002:0002ca9e       _glutKeyboardFunc@4        00444a9e f   glut32:glut32.dll
 0002:0002caa4       _glutTimerFunc@12          00444aa4 f   glut32:glut32.dll
 0002:0002caaa       _glutInit@8                00444aaa f   glut32:glut32.dll
 0002:0002cab0       _glutInitDisplayMode@4     00444ab0 f   glut32:glut32.dll
 0002:0002cab6       _glutInitWindowSize@8      00444ab6 f   glut32:glut32.dll
 0002:0002cabc       _glutMainLoop@0            00444abc f   glut32:glut32.dll
 0002:0002cac2       _glutCreateWindow@4        00444ac2 f   glut32:glut32.dll
 0002:0002cac8       _glutSwapBuffers@0         00444ac8 f   glut32:glut32.dll
 0002:0002cace       _glutDisplayFunc@4         00444ace f   glut32:glut32.dll
 0002:0002cad4       _glutReshapeFunc@4         00444ad4 f   glut32:glut32.dll
 0002:0002cada       _glutMouseFunc@4           00444ada f   glut32:glut32.dll
 0002:0002cae0       _glutMotionFunc@4          00444ae0 f   glut32:glut32.dll
 0002:0002cae6       _glutGetModifiers@0        00444ae6 f   glut32:glut32.dll
 0002:0002caec       _glutBitmapCharacter@8     00444aec f   glut32:glut32.dll
 0002:0002caf2       _glutBitmapLength@8        00444af2 f   glut32:glut32.dll
 0002:0002caf8       ??0_Lockit@std@@QAE@H@Z    00444af8 f   msvcprt:MSVCP110.dll
 0002:0002cafe       ??1_Lockit@std@@QAE@XZ     00444afe f   msvcprt:MSVCP110.dll
 0002:0002cb04       ?uncaught_exception@std@@YA_NXZ 00444b04 f   msvcprt:MSVCP110.dll
 0002:0002cb0a       ?_Orphan_all@_Container_base0@std@@QAEXXZ 00444b0a f   msvcprt:MSVCP110.dll
 0002:0002cb10       ?_Swap_all@_Container_base0@std@@QAEXAAU12@@Z 00444b10 f   msvcprt:MSVCP110.dll
 0002:0002cb16       ?_Xbad_alloc@std@@YAXXZ    00444b16 f   msvcprt:MSVCP110.dll
 0002:0002cb1c       ?_Xlength_error@std@@YAXPBD@Z 00444b1c f   msvcprt:MSVCP110.dll
 0002:0002cb22       ?_Xout_of_range@std@@YAXPBD@Z 00444b22 f   msvcprt:MSVCP110.dll
 0002:0002cb28       ??0_Fac_node@std@@QAE@PAU01@PAV_Facet_base@1@@Z 00444b28 f i msvcprt:locale0_implib.obj
 0002:0002cb41       ??1_Fac_node@std@@QAE@XZ   00444b41 f i msvcprt:locale0_implib.obj
 0002:0002cb5b       ??1_Fac_tidy_reg_t@std@@QAE@XZ 00444b5b f i msvcprt:locale0_implib.obj
 0002:0002cb88       ??_G_Fac_node@std@@QAEPAXI@Z 00444b88 f i msvcprt:locale0_implib.obj
 0002:0002cbae       ?_Facet_Register@std@@YAXPAV_Facet_base@1@@Z 00444bae f   msvcprt:locale0_implib.obj
 0002:0002cbe0       ??0id@locale@std@@QAE@I@Z  00444be0 f   msvcprt:MSVCP110.dll
 0002:0002cbe6       ??Bid@locale@std@@QAEIXZ   00444be6 f   msvcprt:MSVCP110.dll
 0002:0002cbec       ?_Getgloballocale@locale@std@@CAPAV_Locimp@12@XZ 00444bec f   msvcprt:MSVCP110.dll
 0002:0002cbf2       ?always_noconv@codecvt_base@std@@QBE_NXZ 00444bf2 f   msvcprt:MSVCP110.dll
 0002:0002cbf8       ?in@?$codecvt@DDH@std@@QBEHAAHPBD1AAPBDPAD3AAPAD@Z 00444bf8 f   msvcprt:MSVCP110.dll
 0002:0002cbfe       ?out@?$codecvt@DDH@std@@QBEHAAHPBD1AAPBDPAD3AAPAD@Z 00444bfe f   msvcprt:MSVCP110.dll
 0002:0002cc04       ?unshift@?$codecvt@DDH@std@@QBEHAAHPAD1AAPAD@Z 00444c04 f   msvcprt:MSVCP110.dll
 0002:0002cc0a       ?_Getcat@?$codecvt@DDH@std@@SAIPAPBVfacet@locale@2@PBV42@@Z 00444c0a f   msvcprt:MSVCP110.dll
 0002:0002cc10       ?_Syserror_map@std@@YAPBDH@Z 00444c10 f   msvcprt:MSVCP110.dll
 0002:0002cc16       ?_Winerror_map@std@@YAPBDH@Z 00444c16 f   msvcprt:MSVCP110.dll
 0002:0002cc1c       ??7ios_base@std@@QBE_NXZ   00444c1c f   msvcprt:MSVCP110.dll
 0002:0002cc22       ?good@ios_base@std@@QBE_NXZ 00444c22 f   msvcprt:MSVCP110.dll
 0002:0002cc28       ?eof@ios_base@std@@QBE_NXZ 00444c28 f   msvcprt:MSVCP110.dll
 0002:0002cc2e       ?flags@ios_base@std@@QBEHXZ 00444c2e f   msvcprt:MSVCP110.dll
 0002:0002cc34       ?width@ios_base@std@@QBE_JXZ 00444c34 f   msvcprt:MSVCP110.dll
 0002:0002cc3a       ?width@ios_base@std@@QAE_J_J@Z 00444c3a f   msvcprt:MSVCP110.dll
 0002:0002cc40       ??0?$basic_streambuf@DU?$char_traits@D@std@@@std@@IAE@XZ 00444c40 f   msvcprt:MSVCP110.dll
 0002:0002cc46       ??1?$basic_streambuf@DU?$char_traits@D@std@@@std@@UAE@XZ 00444c46 f   msvcprt:MSVCP110.dll
 0002:0002cc4c       ?getloc@?$basic_streambuf@DU?$char_traits@D@std@@@std@@QBE?AVlocale@2@XZ 00444c4c f   msvcprt:MSVCP110.dll
 0002:0002cc52       ?sbumpc@?$basic_streambuf@DU?$char_traits@D@std@@@std@@QAEHXZ 00444c52 f   msvcprt:MSVCP110.dll
 0002:0002cc58       ?sgetc@?$basic_streambuf@DU?$char_traits@D@std@@@std@@QAEHXZ 00444c58 f   msvcprt:MSVCP110.dll
 0002:0002cc5e       ?snextc@?$basic_streambuf@DU?$char_traits@D@std@@@std@@QAEHXZ 00444c5e f   msvcprt:MSVCP110.dll
 0002:0002cc64       ?sputc@?$basic_streambuf@DU?$char_traits@D@std@@@std@@QAEHD@Z 00444c64 f   msvcprt:MSVCP110.dll
 0002:0002cc6a       ?sputn@?$basic_streambuf@DU?$char_traits@D@std@@@std@@QAE_JPBD_J@Z 00444c6a f   msvcprt:MSVCP110.dll
 0002:0002cc70       ?eback@?$basic_streambuf@DU?$char_traits@D@std@@@std@@IBEPADXZ 00444c70 f   msvcprt:MSVCP110.dll
 0002:0002cc76       ?gptr@?$basic_streambuf@DU?$char_traits@D@std@@@std@@IBEPADXZ 00444c76 f   msvcprt:MSVCP110.dll
 0002:0002cc7c       ?pbase@?$basic_streambuf@DU?$char_traits@D@std@@@std@@IBEPADXZ 00444c7c f   msvcprt:MSVCP110.dll
 0002:0002cc82       ?pptr@?$basic_streambuf@DU?$char_traits@D@std@@@std@@IBEPADXZ 00444c82 f   msvcprt:MSVCP110.dll
 0002:0002cc88       ?egptr@?$basic_streambuf@DU?$char_traits@D@std@@@std@@IBEPADXZ 00444c88 f   msvcprt:MSVCP110.dll
 0002:0002cc8e       ?gbump@?$basic_streambuf@DU?$char_traits@D@std@@@std@@IAEXH@Z 00444c8e f   msvcprt:MSVCP110.dll
 0002:0002cc94       ?setg@?$basic_streambuf@DU?$char_traits@D@std@@@std@@IAEXPAD00@Z 00444c94 f   msvcprt:MSVCP110.dll
 0002:0002cc9a       ?epptr@?$basic_streambuf@DU?$char_traits@D@std@@@std@@IBEPADXZ 00444c9a f   msvcprt:MSVCP110.dll
 0002:0002cca0       ?_Gndec@?$basic_streambuf@DU?$char_traits@D@std@@@std@@IAEPADXZ 00444ca0 f   msvcprt:MSVCP110.dll
 0002:0002cca6       ?_Gninc@?$basic_streambuf@DU?$char_traits@D@std@@@std@@IAEPADXZ 00444ca6 f   msvcprt:MSVCP110.dll
 0002:0002ccac       ?pbump@?$basic_streambuf@DU?$char_traits@D@std@@@std@@IAEXH@Z 00444cac f   msvcprt:MSVCP110.dll
 0002:0002ccb2       ?setp@?$basic_streambuf@DU?$char_traits@D@std@@@std@@IAEXPAD0@Z 00444cb2 f   msvcprt:MSVCP110.dll
 0002:0002ccb8       ?setp@?$basic_streambuf@DU?$char_traits@D@std@@@std@@IAEXPAD00@Z 00444cb8 f   msvcprt:MSVCP110.dll
 0002:0002ccbe       ?_Pninc@?$basic_streambuf@DU?$char_traits@D@std@@@std@@IAEPADXZ 00444cbe f   msvcprt:MSVCP110.dll
 0002:0002ccc4       ?_Init@?$basic_streambuf@DU?$char_traits@D@std@@@std@@IAEXXZ 00444cc4 f   msvcprt:MSVCP110.dll
 0002:0002ccca       ?_Init@?$basic_streambuf@DU?$char_traits@D@std@@@std@@IAEXPAPAD0PAH001@Z 00444cca f   msvcprt:MSVCP110.dll
 0002:0002ccd0       ??1?$basic_ios@DU?$char_traits@D@std@@@std@@UAE@XZ 00444cd0 f   msvcprt:MSVCP110.dll
 0002:0002ccd6       ?setstate@?$basic_ios@DU?$char_traits@D@std@@@std@@QAEXH_N@Z 00444cd6 f   msvcprt:MSVCP110.dll
 0002:0002ccdc       ?tie@?$basic_ios@DU?$char_traits@D@std@@@std@@QBEPAV?$basic_ostream@DU?$char_traits@D@std@@@2@XZ 00444cdc f   msvcprt:MSVCP110.dll
 0002:0002cce2       ?rdbuf@?$basic_ios@DU?$char_traits@D@std@@@std@@QBEPAV?$basic_streambuf@DU?$char_traits@D@std@@@2@XZ 00444ce2 f   msvcprt:MSVCP110.dll
 0002:0002cce8       ?fill@?$basic_ios@DU?$char_traits@D@std@@@std@@QBEDXZ 00444ce8 f   msvcprt:MSVCP110.dll
 0002:0002ccee       ?widen@?$basic_ios@DU?$char_traits@D@std@@@std@@QBEDD@Z 00444cee f   msvcprt:MSVCP110.dll
 0002:0002ccf4       ??0?$basic_ios@DU?$char_traits@D@std@@@std@@IAE@XZ 00444cf4 f   msvcprt:MSVCP110.dll
 0002:0002ccfa       ?_Add_vtordisp2@?$basic_ostream@DU?$char_traits@D@std@@@std@@UAEXXZ 00444cfa f   msvcprt:MSVCP110.dll
 0002:0002cd00       ?_Osfx@?$basic_ostream@DU?$char_traits@D@std@@@std@@QAEXXZ 00444d00 f   msvcprt:MSVCP110.dll
 0002:0002cd06       ??6?$basic_ostream@DU?$char_traits@D@std@@@std@@QAEAAV01@P6AAAV01@AAV01@@Z@Z 00444d06 f   msvcprt:MSVCP110.dll
 0002:0002cd0c       ??6?$basic_ostream@DU?$char_traits@D@std@@@std@@QAEAAV01@H@Z 00444d0c f   msvcprt:MSVCP110.dll
 0002:0002cd12       ??6?$basic_ostream@DU?$char_traits@D@std@@@std@@QAEAAV01@M@Z 00444d12 f   msvcprt:MSVCP110.dll
 0002:0002cd18       ?flush@?$basic_ostream@DU?$char_traits@D@std@@@std@@QAEAAV12@XZ 00444d18 f   msvcprt:MSVCP110.dll
 0002:0002cd1e       ?endl@std@@YAAAV?$basic_ostream@DU?$char_traits@D@std@@@1@AAV21@@Z 00444d1e f   msvcprt:MSVCP110.dll
 0002:0002cd24       ??0?$basic_istream@DU?$char_traits@D@std@@@std@@QAE@PAV?$basic_streambuf@DU?$char_traits@D@std@@@1@_N@Z 00444d24 f   msvcprt:MSVCP110.dll
 0002:0002cd2a       ??1?$basic_istream@DU?$char_traits@D@std@@@std@@UAE@XZ 00444d2a f   msvcprt:MSVCP110.dll
 0002:0002cd30       ?_Add_vtordisp1@?$basic_istream@DU?$char_traits@D@std@@@std@@UAEXXZ 00444d30 f   msvcprt:MSVCP110.dll
 0002:0002cd36       ?_Ipfx@?$basic_istream@DU?$char_traits@D@std@@@std@@QAE_N_N@Z 00444d36 f   msvcprt:MSVCP110.dll
 0002:0002cd3c       ??5?$basic_istream@DU?$char_traits@D@std@@@std@@QAEAAV01@AAM@Z 00444d3c f   msvcprt:MSVCP110.dll
 0002:0002cd42       ??0?$basic_iostream@DU?$char_traits@D@std@@@std@@QAE@PAV?$basic_streambuf@DU?$char_traits@D@std@@@1@@Z 00444d42 f   msvcprt:MSVCP110.dll
 0002:0002cd48       ??1?$basic_iostream@DU?$char_traits@D@std@@@std@@UAE@XZ 00444d48 f   msvcprt:MSVCP110.dll
 0002:0002cd4e       ?_Fiopen@std@@YAPAU_iobuf@@PBDHH@Z 00444d4e f   msvcprt:MSVCP110.dll
 0002:0002cd54       ?_Add_vtordisp2@?$basic_ios@DU?$char_traits@D@std@@@std@@UAEXXZ 00444d54 f   msvcprt:MSVCP110.dll
 0002:0002cd5a       ?_Lock@?$basic_streambuf@DU?$char_traits@D@std@@@std@@UAEXXZ 00444d5a f   msvcprt:MSVCP110.dll
 0002:0002cd60       ?_Unlock@?$basic_streambuf@DU?$char_traits@D@std@@@std@@UAEXXZ 00444d60 f   msvcprt:MSVCP110.dll
 0002:0002cd66       ?imbue@?$basic_streambuf@DU?$char_traits@D@std@@@std@@MAEXABVlocale@2@@Z 00444d66 f   msvcprt:MSVCP110.dll
 0002:0002cd6c       ?setbuf@?$basic_streambuf@DU?$char_traits@D@std@@@std@@MAEPAV12@PAD_J@Z 00444d6c f   msvcprt:MSVCP110.dll
 0002:0002cd72       ?showmanyc@?$basic_streambuf@DU?$char_traits@D@std@@@std@@MAE_JXZ 00444d72 f   msvcprt:MSVCP110.dll
 0002:0002cd78       ?sync@?$basic_streambuf@DU?$char_traits@D@std@@@std@@MAEHXZ 00444d78 f   msvcprt:MSVCP110.dll
 0002:0002cd7e       ?uflow@?$basic_streambuf@DU?$char_traits@D@std@@@std@@MAEHXZ 00444d7e f   msvcprt:MSVCP110.dll
 0002:0002cd84       ?xsgetn@?$basic_streambuf@DU?$char_traits@D@std@@@std@@MAE_JPAD_J@Z 00444d84 f   msvcprt:MSVCP110.dll
 0002:0002cd8a       ?xsputn@?$basic_streambuf@DU?$char_traits@D@std@@@std@@MAE_JPBD_J@Z 00444d8a f   msvcprt:MSVCP110.dll
 0002:0002cd90       ??0?$basic_ostream@DU?$char_traits@D@std@@@std@@QAE@PAV?$basic_streambuf@DU?$char_traits@D@std@@@1@_N@Z 00444d90 f   msvcprt:MSVCP110.dll
 0002:0002cd96       ??1?$basic_ostream@DU?$char_traits@D@std@@@std@@UAE@XZ 00444d96 f   msvcprt:MSVCP110.dll
 0002:0002cd9c       ??6?$basic_ostream@DU?$char_traits@D@std@@@std@@QAEAAV01@I@Z 00444d9c f   msvcprt:MSVCP110.dll
 0002:0002cda2       ?_Add_vtordisp1@?$basic_ios@DU?$char_traits@D@std@@@std@@UAEXXZ 00444da2 f   msvcprt:MSVCP110.dll
 0002:0002cda8       ??_U@YAPAXI@Z              00444da8 f   msvcprt:newaop_s.obj
 0002:0002cdb4       ??6?$basic_ostream@DU?$char_traits@D@std@@@std@@QAEAAV01@N@Z 00444db4 f   msvcprt:MSVCP110.dll
 0002:0002cdba       ?put@?$basic_ostream@DU?$char_traits@D@std@@@std@@QAEAAV12@D@Z 00444dba f   msvcprt:MSVCP110.dll
 0002:0002cdc0       ?write@?$basic_ostream@DU?$char_traits@D@std@@@std@@QAEAAV12@PBD_J@Z 00444dc0 f   msvcprt:MSVCP110.dll
 0002:0002cdc6       __purecall                 00444dc6 f   MSVCRT:MSVCR110.dll
 0002:0002cdcc       ??2@YAPAXI@Z               00444dcc f   MSVCRT:MSVCR110.dll
 0002:0002cdd2       ??3@YAXPAX@Z               00444dd2 f   MSVCRT:MSVCR110.dll
 0002:0002cdd8       ___atonexitinit            00444dd8 f   MSVCRT:atonexit.obj
 0002:0002ce23       __onexit                   00444e23 f   MSVCRT:atonexit.obj
 0002:0002cef1       _atexit                    00444ef1 f   MSVCRT:atonexit.obj
 0002:0002cf0c       _atoi                      00444f0c f   MSVCRT:MSVCR110.dll
 0002:0002cf12       _calloc                    00444f12 f   MSVCRT:MSVCR110.dll
 0002:0002cf18       _free                      00444f18 f   MSVCRT:MSVCR110.dll
 0002:0002cf1e       _malloc                    00444f1e f   MSVCRT:MSVCR110.dll
 0002:0002cf24       _realloc                   00444f24 f   MSVCRT:MSVCR110.dll
 0002:0002cf2a       _fabs                      00444f2a f   MSVCRT:MSVCR110.dll
 0002:0002cf30       _sqrt                      00444f30 f   MSVCRT:MSVCR110.dll
 0002:0002cf36       _floor                     00444f36 f   MSVCRT:MSVCR110.dll
 0002:0002cf3c       _memmove                   00444f3c f   MSVCRT:MSVCR110.dll
 0002:0002cf42       _memcpy                    00444f42 f   MSVCRT:MSVCR110.dll
 0002:0002cf48       _memcpy_s                  00444f48 f   MSVCRT:MSVCR110.dll
 0002:0002cf4e       _memcmp                    00444f4e f   MSVCRT:MSVCR110.dll
 0002:0002cf54       _memset                    00444f54 f   MSVCRT:MSVCR110.dll
 0002:0002cf5a       _strlen                    00444f5a f   MSVCRT:MSVCR110.dll
 0002:0002cf60       _strtok                    00444f60 f   MSVCRT:MSVCR110.dll
 0002:0002cf66       ??0exception@std@@QAE@ABQBDH@Z 00444f66 f   MSVCRT:MSVCR110.dll
 0002:0002cf6c       ??0exception@std@@QAE@ABV01@@Z 00444f6c f   MSVCRT:MSVCR110.dll
 0002:0002cf72       ??1exception@std@@UAE@XZ   00444f72 f   MSVCRT:MSVCR110.dll
 0002:0002cf78       _fclose                    00444f78 f   MSVCRT:MSVCR110.dll
 0002:0002cf7e       _fflush                    00444f7e f   MSVCRT:MSVCR110.dll
 0002:0002cf84       _fgetc                     00444f84 f   MSVCRT:MSVCR110.dll
 0002:0002cf8a       _fgetpos                   00444f8a f   MSVCRT:MSVCR110.dll
 0002:0002cf90       _fputc                     00444f90 f   MSVCRT:MSVCR110.dll
 0002:0002cf96       _fsetpos                   00444f96 f   MSVCRT:MSVCR110.dll
 0002:0002cf9c       __fseeki64                 00444f9c f   MSVCRT:MSVCR110.dll
 0002:0002cfa2       _fwrite                    00444fa2 f   MSVCRT:MSVCR110.dll
 0002:0002cfa8       _printf                    00444fa8 f   MSVCRT:MSVCR110.dll
 0002:0002cfae       _setvbuf                   00444fae f   MSVCRT:MSVCR110.dll
 0002:0002cfb4       _ungetc                    00444fb4 f   MSVCRT:MSVCR110.dll
 0002:0002cfba       __lock_file                00444fba f   MSVCRT:MSVCR110.dll
 0002:0002cfc0       __unlock_file              00444fc0 f   MSVCRT:MSVCR110.dll
 0002:0002cfc6       __wassert                  00444fc6 f   MSVCRT:MSVCR110.dll
 0002:0002cfcc       ??0bad_cast@std@@QAE@PBD@Z 00444fcc f   MSVCRT:MSVCR110.dll
 0002:0002cfd2       ??0bad_cast@std@@QAE@ABV01@@Z 00444fd2 f   MSVCRT:MSVCR110.dll
 0002:0002cfd8       ??1bad_cast@std@@UAE@XZ    00444fd8 f   MSVCRT:MSVCR110.dll
 0002:0002cfde       ?what@exception@std@@UBEPBDXZ 00444fde f   MSVCRT:MSVCR110.dll
 0002:0002cfe4       @__security_check_cookie@4 00444fe4 f   MSVCRT:secchk.obj
 0002:0002cff6       __CxxThrowException@8      00444ff6 f   MSVCRT:MSVCR110.dll
 0002:0002cffc       ___CxxFrameHandler3        00444ffc f   MSVCRT:MSVCR110.dll
 0002:0002d002       ??0type_info@@AAE@ABV0@@Z  00445002 f   MSVCRT:ti_inst.obj
 0002:0002d00f       ??4type_info@@AAEAAV0@ABV0@@Z 0044500f f   MSVCRT:ti_inst.obj
 0002:0002d014       ??_Etype_info@@UAEPAXI@Z   00445014 f i MSVCRT:ti_inst.obj
 0002:0002d070       _ceil                      00445070 f   MSVCRT:MSVCR110.dll
 0002:0002d080       __ftol2_sse                00445080 f   MSVCRT:ftol2.obj
 0002:0002d089       __ftol2_pentium4           00445089 f   MSVCRT:ftol2.obj
 0002:0002d09c       __ftol2_sse_excpt          0044509c f   MSVCRT:ftol2.obj
 0002:0002d0b6       __ftol2                    004450b6 f   MSVCRT:ftol2.obj
 0002:0002d156       _cos                       00445156 f   MSVCRT:MSVCR110.dll
 0002:0002d15c       _sin                       0044515c f   MSVCRT:MSVCR110.dll
 0002:0002d162       _tan                       00445162 f   MSVCRT:MSVCR110.dll
 0002:0002d168       __vsnprintf                00445168 f   MSVCRT:MSVCR110.dll
 0002:0002d16e       ??_V@YAXPAX@Z              0044516e f   MSVCRT:MSVCR110.dll
 0002:0002d2b8       _NtCurrentTeb              004452b8 f i MSVCRT:crtexe.obj
 0002:0002d4d4       _mainCRTStartup            004454d4 f   MSVCRT:crtexe.obj
 0002:0002d4e0       __lock                     004454e0 f   MSVCRT:MSVCR110.dll
 0002:0002d4e6       __unlock                   004454e6 f   MSVCRT:MSVCR110.dll
 0002:0002d4ec       __calloc_crt               004454ec f   MSVCRT:MSVCR110.dll
 0002:0002d4f2       ___dllonexit               004454f2 f   MSVCRT:MSVCR110.dll
 0002:0002d500       __SEH_prolog4              00445500 f   MSVCRT:sehprolg4.obj
 0002:0002d545       __SEH_epilog4              00445545 f   MSVCRT:sehprolg4.obj
 0002:0002d56f       __except_handler4          0044556f f   MSVCRT:chandler4gs.obj
 0002:0002d59a       ___raise_securityfailure   0044559a f   MSVCRT:gs_report.obj
 0002:0002d5e6       ___report_gsfailure        004455e6 f   MSVCRT:gs_report.obj
 0002:0002d71d       ___report_rangecheckfailure 0044571d f   MSVCRT:gs_report.obj
 0002:0002d72c       ___report_securityfailure  0044572c f   MSVCRT:gs_report.obj
 0002:0002d82d       ___report_securityfailureEx 0044582d f   MSVCRT:gs_report.obj
 0002:0002d986       ??_M@YGXPAXIHP6EX0@Z@Z     00445986 f   MSVCRT:ehvecdtr.obj
 0002:0002da2f       ?__ArrayUnwind@@YGXPAXIHP6EX0@Z@Z 00445a2f f   MSVCRT:ehvecdtr.obj
 0002:0002daa4       ??1type_info@@UAE@XZ       00445aa4 f   MSVCRT:MSVCR110.dll
 0002:0002daaa       ___isa_available_init      00445aaa f   MSVCRT:cpu_disp.obj
 0002:0002dc31       ?__CxxUnhandledExceptionFilter@@YGJPAU_EXCEPTION_POINTERS@@@Z 00445c31 f   MSVCRT:unhandld.obj
 0002:0002dc82       ___CxxSetUnhandledExceptionFilter 00445c82 f   MSVCRT:unhandld.obj
 0002:0002dc94       __XcptFilter               00445c94 f   MSVCRT:MSVCR110.dll
 0002:0002dc9a       __amsg_exit                00445c9a f   MSVCRT:MSVCR110.dll
 0002:0002dca0       __setargv                  00445ca0 f   MSVCRT:dllargv.obj
 0002:0002dca4       ___getmainargs             00445ca4 f   MSVCRT:MSVCR110.dll
 0002:0002dcaa       ___set_app_type            00445caa f   MSVCRT:MSVCR110.dll
 0002:0002dcb0       __FindPESection            00445cb0 f   MSVCRT:pesect.obj
 0002:0002dd10       __IsNonwritableInCurrentImage 00445d10 f   MSVCRT:pesect.obj
 0002:0002de00       __ValidateImageBase        00445e00 f   MSVCRT:pesect.obj
 0002:0002de3e       _exit                      00445e3e f   MSVCRT:MSVCR110.dll
 0002:0002de44       __exit                     00445e44 f   MSVCRT:MSVCR110.dll
 0002:0002de4a       __cexit                    00445e4a f   MSVCRT:MSVCR110.dll
 0002:0002de50       ___security_init_cookie    00445e50 f   MSVCRT:gs_support.obj
 0002:0002df10       __matherr                  00445f10 f   MSVCRT:merr.obj
 0002:0002df13       __RTC_Initialize           00445f13 f   MSVCRT:initsect.obj
 0002:0002df3b       __RTC_Terminate            00445f3b f   MSVCRT:initsect.obj
 0002:0002df64       __configthreadlocale       00445f64 f   MSVCRT:MSVCR110.dll
 0002:0002df6a       __invoke_watson_if_error   00445f6a f i MSVCRT:fp8.obj
 0002:0002df92       __setdefaultprecision      00445f92 f   MSVCRT:fp8.obj
 0002:0002dfc2       ___setusermatherr          00445fc2 f   MSVCRT:MSVCR110.dll
 0002:0002dfc8       __initterm_e               00445fc8 f   MSVCRT:MSVCR110.dll
 0002:0002dfce       __initterm                 00445fce f   MSVCRT:MSVCR110.dll
 0002:0002dfd4       __except_handler4_common   00445fd4 f   MSVCRT:MSVCR110.dll
 0002:0002dfda       __crt_debugger_hook        00445fda f   MSVCRT:MSVCR110.dll
 0002:0002dfe0       ___crtUnhandledException   00445fe0 f   MSVCRT:MSVCR110.dll
 0002:0002dfe6       ___crtTerminateProcess     00445fe6 f   MSVCRT:MSVCR110.dll
 0002:0002dfec       ?terminate@@YAXXZ          00445fec f   MSVCRT:MSVCR110.dll
 0002:0002dff2       ___crtSetUnhandledExceptionFilter 00445ff2 f   MSVCRT:MSVCR110.dll
 0002:0002dff8       __invoke_watson            00445ff8 f   MSVCRT:MSVCR110.dll
 0002:0002dffe       __controlfp_s              00445ffe f   MSVCRT:MSVCR110.dll
 0002:0002e004       _EncodePointer@4           00446004 f   kernel32:KERNEL32.dll
 0002:0002e00a       _DecodePointer@4           0044600a f   kernel32:KERNEL32.dll
 0002:0002e010       _IsDebuggerPresent@0       00446010 f   kernel32:KERNEL32.dll
 0002:0002e016       _IsProcessorFeaturePresent@4 00446016 f   kernel32:KERNEL32.dll
 0002:0002e01c       _QueryPerformanceCounter@4 0044601c f   kernel32:KERNEL32.dll
 0002:0002e022       _GetCurrentProcessId@0     00446022 f   kernel32:KERNEL32.dll
 0002:0002e028       _GetCurrentThreadId@0      00446028 f   kernel32:KERNEL32.dll
 0002:0002e02e       _GetSystemTimeAsFileTime@4 0044602e f   kernel32:KERNEL32.dll
 0003:00000000       ___xc_a                    0044c000     MSVCRT:cinitexe.obj
 0003:00000474       ___xc_z                    0044c474     MSVCRT:cinitexe.obj
 0003:00000578       ___xi_a                    0044c578     MSVCRT:cinitexe.obj
 0003:00000990       ___xi_z                    0044c990     MSVCRT:cinitexe.obj
 0003:00000ad8       ?is_modulo@_Num_base@std@@2_NB 0044cad8     fluidsim.obj
 0003:00000ad9       ?is_signed@_Num_base@std@@2_NB 0044cad9     fluidsim.obj
 0003:00000ada       ?is_specialized@_Num_base@std@@2_NB 0044cada     fluidsim.obj
 0003:00000adb       ?tinyness_before@_Num_base@std@@2_NB 0044cadb     fluidsim.obj
 0003:00000adc       ?traps@_Num_base@std@@2_NB 0044cadc     fluidsim.obj
 0003:00000ae0       ?round_style@_Num_base@std@@2W4float_round_style@2@B 0044cae0     fluidsim.obj
 0003:00000ae4       ?digits@_Num_base@std@@2HB 0044cae4     fluidsim.obj
 0003:00000ae8       ?digits10@_Num_base@std@@2HB 0044cae8     fluidsim.obj
 0003:00000aec       ?max_digits10@_Num_base@std@@2HB 0044caec     fluidsim.obj
 0003:00000af0       ?max_exponent@_Num_base@std@@2HB 0044caf0     fluidsim.obj
 0003:00000af4       ?max_exponent10@_Num_base@std@@2HB 0044caf4     fluidsim.obj
 0003:00000af8       ?min_exponent@_Num_base@std@@2HB 0044caf8     fluidsim.obj
 0003:00000afc       ?min_exponent10@_Num_base@std@@2HB 0044cafc     fluidsim.obj
 0003:00000b00       ?radix@_Num_base@std@@2HB  0044cb00     fluidsim.obj
 0003:00000b04       ?is_bounded@_Num_int_base@std@@2_NB 0044cb04     fluidsim.obj
 0003:00000b05       ?is_exact@_Num_int_base@std@@2_NB 0044cb05     fluidsim.obj
 0003:00000b06       ?is_integer@_Num_int_base@std@@2_NB 0044cb06     fluidsim.obj
 0003:00000b07       ?is_modulo@_Num_int_base@std@@2_NB 0044cb07     fluidsim.obj
 0003:00000b08       ?is_specialized@_Num_int_base@std@@2_NB 0044cb08     fluidsim.obj
 0003:00000b0c       ?radix@_Num_int_base@std@@2HB 0044cb0c     fluidsim.obj
 0003:00000b10       ?has_denorm@_Num_float_base@std@@2W4float_denorm_style@2@B 0044cb10     fluidsim.obj
 0003:00000b14       ?has_denorm_loss@_Num_float_base@std@@2_NB 0044cb14     fluidsim.obj
 0003:00000b15       ?has_infinity@_Num_float_base@std@@2_NB 0044cb15     fluidsim.obj
 0003:00000b16       ?has_quiet_NaN@_Num_float_base@std@@2_NB 0044cb16     fluidsim.obj
 0003:00000b17       ?has_signaling_NaN@_Num_float_base@std@@2_NB 0044cb17     fluidsim.obj
 0003:00000b18       ?is_bounded@_Num_float_base@std@@2_NB 0044cb18     fluidsim.obj
 0003:00000b19       ?is_exact@_Num_float_base@std@@2_NB 0044cb19     fluidsim.obj
 0003:00000b1a       ?is_iec559@_Num_float_base@std@@2_NB 0044cb1a     fluidsim.obj
 0003:00000b1b       ?is_integer@_Num_float_base@std@@2_NB 0044cb1b     fluidsim.obj
 0003:00000b1c       ?is_modulo@_Num_float_base@std@@2_NB 0044cb1c     fluidsim.obj
 0003:00000b1d       ?is_signed@_Num_float_base@std@@2_NB 0044cb1d     fluidsim.obj
 0003:00000b1e       ?is_specialized@_Num_float_base@std@@2_NB 0044cb1e     fluidsim.obj
 0003:00000b1f       ?tinyness_before@_Num_float_base@std@@2_NB 0044cb1f     fluidsim.obj
 0003:00000b20       ?traps@_Num_float_base@std@@2_NB 0044cb20     fluidsim.obj
 0003:00000b24       ?round_style@_Num_float_base@std@@2W4float_round_style@2@B 0044cb24     fluidsim.obj
 0003:00000b28       ?radix@_Num_float_base@std@@2HB 0044cb28     fluidsim.obj
 0003:00000b2c       ?is_signed@?$numeric_limits@D@std@@2_NB 0044cb2c     fluidsim.obj
 0003:00000b30       ?digits@?$numeric_limits@D@std@@2HB 0044cb30     fluidsim.obj
 0003:00000b34       ?digits10@?$numeric_limits@D@std@@2HB 0044cb34     fluidsim.obj
 0003:00000b38       ?is_signed@?$numeric_limits@_W@std@@2_NB 0044cb38     fluidsim.obj
 0003:00000b3c       ?digits@?$numeric_limits@_W@std@@2HB 0044cb3c     fluidsim.obj
 0003:00000b40       ?digits10@?$numeric_limits@_W@std@@2HB 0044cb40     fluidsim.obj
 0003:00000b44       ?is_modulo@?$numeric_limits@_N@std@@2_NB 0044cb44     fluidsim.obj
 0003:00000b45       ?is_signed@?$numeric_limits@_N@std@@2_NB 0044cb45     fluidsim.obj
 0003:00000b48       ?digits@?$numeric_limits@_N@std@@2HB 0044cb48     fluidsim.obj
 0003:00000b4c       ?digits10@?$numeric_limits@_N@std@@2HB 0044cb4c     fluidsim.obj
 0003:00000b50       ?is_signed@?$numeric_limits@C@std@@2_NB 0044cb50     fluidsim.obj
 0003:00000b54       ?digits@?$numeric_limits@C@std@@2HB 0044cb54     fluidsim.obj
 0003:00000b58       ?digits10@?$numeric_limits@C@std@@2HB 0044cb58     fluidsim.obj
 0003:00000b5c       ?is_signed@?$numeric_limits@E@std@@2_NB 0044cb5c     fluidsim.obj
 0003:00000b60       ?digits@?$numeric_limits@E@std@@2HB 0044cb60     fluidsim.obj
 0003:00000b64       ?digits10@?$numeric_limits@E@std@@2HB 0044cb64     fluidsim.obj
 0003:00000b68       ?value@?$integral_constant@_N$0A@@std@@2_NB 0044cb68     fluidsim.obj
 0003:00000b69       ?value@?$integral_constant@_N$00@std@@2_NB 0044cb69     fluidsim.obj
 0003:00000b6a       ?is_signed@?$numeric_limits@F@std@@2_NB 0044cb6a     fluidsim.obj
 0003:00000b6c       ?digits@?$numeric_limits@F@std@@2HB 0044cb6c     fluidsim.obj
 0003:00000b70       ?digits10@?$numeric_limits@F@std@@2HB 0044cb70     fluidsim.obj
 0003:00000b74       ?value@?$_Sizeof@HU_Nil@std@@U12@U12@U12@U12@U12@U12@@std@@2IB 0044cb74     fluidsim.obj
 0003:00000b78       ?is_signed@?$numeric_limits@G@std@@2_NB 0044cb78     fluidsim.obj
 0003:00000b7c       ?digits@?$numeric_limits@G@std@@2HB 0044cb7c     fluidsim.obj
 0003:00000b80       ?digits10@?$numeric_limits@G@std@@2HB 0044cb80     fluidsim.obj
 0003:00000b84       ?skipws@?$_Iosb@H@std@@2W4_Fmtflags@12@B 0044cb84     fluidsim.obj
 0003:00000b88       ?unitbuf@?$_Iosb@H@std@@2W4_Fmtflags@12@B 0044cb88     fluidsim.obj
 0003:00000b8c       ?uppercase@?$_Iosb@H@std@@2W4_Fmtflags@12@B 0044cb8c     fluidsim.obj
 0003:00000b90       ?showbase@?$_Iosb@H@std@@2W4_Fmtflags@12@B 0044cb90     fluidsim.obj
 0003:00000b94       ?showpoint@?$_Iosb@H@std@@2W4_Fmtflags@12@B 0044cb94     fluidsim.obj
 0003:00000b98       ?showpos@?$_Iosb@H@std@@2W4_Fmtflags@12@B 0044cb98     fluidsim.obj
 0003:00000b9c       ?left@?$_Iosb@H@std@@2W4_Fmtflags@12@B 0044cb9c     fluidsim.obj
 0003:00000ba0       ?is_signed@?$numeric_limits@H@std@@2_NB 0044cba0     fluidsim.obj
 0003:00000ba4       ?right@?$_Iosb@H@std@@2W4_Fmtflags@12@B 0044cba4     fluidsim.obj
 0003:00000ba8       ?internal@?$_Iosb@H@std@@2W4_Fmtflags@12@B 0044cba8     fluidsim.obj
 0003:00000bac       ?digits@?$numeric_limits@H@std@@2HB 0044cbac     fluidsim.obj
 0003:00000bb0       ?dec@?$_Iosb@H@std@@2W4_Fmtflags@12@B 0044cbb0     fluidsim.obj
 0003:00000bb4       ?digits10@?$numeric_limits@H@std@@2HB 0044cbb4     fluidsim.obj
 0003:00000bb8       ?oct@?$_Iosb@H@std@@2W4_Fmtflags@12@B 0044cbb8     fluidsim.obj
 0003:00000bbc       ?hex@?$_Iosb@H@std@@2W4_Fmtflags@12@B 0044cbbc     fluidsim.obj
 0003:00000bc0       ?scientific@?$_Iosb@H@std@@2W4_Fmtflags@12@B 0044cbc0     fluidsim.obj
 0003:00000bc4       ?fixed@?$_Iosb@H@std@@2W4_Fmtflags@12@B 0044cbc4     fluidsim.obj
 0003:00000bc8       ?hexfloat@?$_Iosb@H@std@@2W4_Fmtflags@12@B 0044cbc8     fluidsim.obj
 0003:00000bcc       ?boolalpha@?$_Iosb@H@std@@2W4_Fmtflags@12@B 0044cbcc     fluidsim.obj
 0003:00000bd0       ?_Stdio@?$_Iosb@H@std@@2W4_Fmtflags@12@B 0044cbd0     fluidsim.obj
 0003:00000bd4       ?adjustfield@?$_Iosb@H@std@@2W4_Fmtflags@12@B 0044cbd4     fluidsim.obj
 0003:00000bd8       ?basefield@?$_Iosb@H@std@@2W4_Fmtflags@12@B 0044cbd8     fluidsim.obj
 0003:00000bdc       ?floatfield@?$_Iosb@H@std@@2W4_Fmtflags@12@B 0044cbdc     fluidsim.obj
 0003:00000be0       ?is_signed@?$numeric_limits@I@std@@2_NB 0044cbe0     fluidsim.obj
 0003:00000be4       ?digits@?$numeric_limits@I@std@@2HB 0044cbe4     fluidsim.obj
 0003:00000be8       ?goodbit@?$_Iosb@H@std@@2W4_Iostate@12@B 0044cbe8     fluidsim.obj
 0003:00000bec       ?eofbit@?$_Iosb@H@std@@2W4_Iostate@12@B 0044cbec     fluidsim.obj
 0003:00000bf0       ?digits10@?$numeric_limits@I@std@@2HB 0044cbf0     fluidsim.obj
 0003:00000bf4       ?failbit@?$_Iosb@H@std@@2W4_Iostate@12@B 0044cbf4     fluidsim.obj
 0003:00000bf8       ?badbit@?$_Iosb@H@std@@2W4_Iostate@12@B 0044cbf8     fluidsim.obj
 0003:00000bfc       ?_Hardfail@?$_Iosb@H@std@@2W4_Iostate@12@B 0044cbfc     fluidsim.obj
 0003:00000c00       ?in@?$_Iosb@H@std@@2W4_Openmode@12@B 0044cc00     fluidsim.obj
 0003:00000c04       ?out@?$_Iosb@H@std@@2W4_Openmode@12@B 0044cc04     fluidsim.obj
 0003:00000c08       ?ate@?$_Iosb@H@std@@2W4_Openmode@12@B 0044cc08     fluidsim.obj
 0003:00000c0c       ?app@?$_Iosb@H@std@@2W4_Openmode@12@B 0044cc0c     fluidsim.obj
 0003:00000c10       ?trunc@?$_Iosb@H@std@@2W4_Openmode@12@B 0044cc10     fluidsim.obj
 0003:00000c14       ?_Nocreate@?$_Iosb@H@std@@2W4_Openmode@12@B 0044cc14     fluidsim.obj
 0003:00000c18       ?is_signed@?$numeric_limits@J@std@@2_NB 0044cc18     fluidsim.obj
 0003:00000c1c       ?_Noreplace@?$_Iosb@H@std@@2W4_Openmode@12@B 0044cc1c     fluidsim.obj
 0003:00000c20       ?digits@?$numeric_limits@J@std@@2HB 0044cc20     fluidsim.obj
 0003:00000c24       ?binary@?$_Iosb@H@std@@2W4_Openmode@12@B 0044cc24     fluidsim.obj
 0003:00000c28       ?digits10@?$numeric_limits@J@std@@2HB 0044cc28     fluidsim.obj
 0003:00000c2c       ?beg@?$_Iosb@H@std@@2W4_Seekdir@12@B 0044cc2c     fluidsim.obj
 0003:00000c30       ?cur@?$_Iosb@H@std@@2W4_Seekdir@12@B 0044cc30     fluidsim.obj
 0003:00000c34       ?end@?$_Iosb@H@std@@2W4_Seekdir@12@B 0044cc34     fluidsim.obj
 0003:00000c38       ?is_signed@?$numeric_limits@K@std@@2_NB 0044cc38     fluidsim.obj
 0003:00000c3c       ?digits@?$numeric_limits@K@std@@2HB 0044cc3c     fluidsim.obj
 0003:00000c40       ?_Stream_err@failure@ios_base@std@@0W4io_errc@43@B 0044cc40     fluidsim.obj
 0003:00000c44       ?digits10@?$numeric_limits@K@std@@2HB 0044cc44     fluidsim.obj
 0003:00000c48       ?is_signed@?$numeric_limits@_J@std@@2_NB 0044cc48     fluidsim.obj
 0003:00000c4c       ?digits@?$numeric_limits@_J@std@@2HB 0044cc4c     fluidsim.obj
 0003:00000c50       ?digits10@?$numeric_limits@_J@std@@2HB 0044cc50     fluidsim.obj
 0003:00000c54       ?is_signed@?$numeric_limits@_K@std@@2_NB 0044cc54     fluidsim.obj
 0003:00000c58       ?digits@?$numeric_limits@_K@std@@2HB 0044cc58     fluidsim.obj
 0003:00000c5c       ?digits10@?$numeric_limits@_K@std@@2HB 0044cc5c     fluidsim.obj
 0003:00000c60       ?digits@?$numeric_limits@M@std@@2HB 0044cc60     fluidsim.obj
 0003:00000c64       ?digits10@?$numeric_limits@M@std@@2HB 0044cc64     fluidsim.obj
 0003:00000c68       ?value@?$integral_constant@I$0A@@std@@2IB 0044cc68     fluidsim.obj
 0003:00000c6c       ?max_digits10@?$numeric_limits@M@std@@2HB 0044cc6c     fluidsim.obj
 0003:00000c70       ?max_exponent@?$numeric_limits@M@std@@2HB 0044cc70     fluidsim.obj
 0003:00000c74       ?max_exponent10@?$numeric_limits@M@std@@2HB 0044cc74     fluidsim.obj
 0003:00000c78       ?min_exponent@?$numeric_limits@M@std@@2HB 0044cc78     fluidsim.obj
 0003:00000c7c       ?min_exponent10@?$numeric_limits@M@std@@2HB 0044cc7c     fluidsim.obj
 0003:00000c80       ?digits@?$numeric_limits@N@std@@2HB 0044cc80     fluidsim.obj
 0003:00000c84       ?digits10@?$numeric_limits@N@std@@2HB 0044cc84     fluidsim.obj
 0003:00000c88       ?max_digits10@?$numeric_limits@N@std@@2HB 0044cc88     fluidsim.obj
 0003:00000c8c       ?max_exponent@?$numeric_limits@N@std@@2HB 0044cc8c     fluidsim.obj
 0003:00000c90       ?max_exponent10@?$numeric_limits@N@std@@2HB 0044cc90     fluidsim.obj
 0003:00000c94       ?min_exponent@?$numeric_limits@N@std@@2HB 0044cc94     fluidsim.obj
 0003:00000c98       ?min_exponent10@?$numeric_limits@N@std@@2HB 0044cc98     fluidsim.obj
 0003:00000c9c       ?collate@?$_Locbase@H@std@@2HB 0044cc9c     fluidsim.obj
 0003:00000ca0       ?ctype@?$_Locbase@H@std@@2HB 0044cca0     fluidsim.obj
 0003:00000ca4       ?monetary@?$_Locbase@H@std@@2HB 0044cca4     fluidsim.obj
 0003:00000ca8       ?numeric@?$_Locbase@H@std@@2HB 0044cca8     fluidsim.obj
 0003:00000cac       ?time@?$_Locbase@H@std@@2HB 0044ccac     fluidsim.obj
 0003:00000cb0       ?messages@?$_Locbase@H@std@@2HB 0044ccb0     fluidsim.obj
 0003:00000cb4       ?all@?$_Locbase@H@std@@2HB 0044ccb4     fluidsim.obj
 0003:00000cb8       ?none@?$_Locbase@H@std@@2HB 0044ccb8     fluidsim.obj
 0003:00000cbc       ?digits@?$numeric_limits@O@std@@2HB 0044ccbc     fluidsim.obj
 0003:00000cc0       ?digits10@?$numeric_limits@O@std@@2HB 0044ccc0     fluidsim.obj
 0003:00000cc4       ?max_digits10@?$numeric_limits@O@std@@2HB 0044ccc4     fluidsim.obj
 0003:00000cc8       ?max_exponent@?$numeric_limits@O@std@@2HB 0044ccc8     fluidsim.obj
 0003:00000ccc       ?max_exponent10@?$numeric_limits@O@std@@2HB 0044cccc     fluidsim.obj
 0003:00000cd0       ?min_exponent@?$numeric_limits@O@std@@2HB 0044ccd0     fluidsim.obj
 0003:00000cd4       ?min_exponent10@?$numeric_limits@O@std@@2HB 0044ccd4     fluidsim.obj
 0003:00000cd8       ?value@?$_Sizeof@U_Nil@std@@U12@U12@U12@U12@U12@U12@U12@@std@@2IB 0044ccd8     fluidsim.obj
 0003:00000cdc       ?has_denorm@_Num_base@std@@2W4float_denorm_style@2@B 0044ccdc     fluidsim.obj
 0003:00000ce0       ?has_denorm_loss@_Num_base@std@@2_NB 0044cce0     fluidsim.obj
 0003:00000ce1       ?has_infinity@_Num_base@std@@2_NB 0044cce1     fluidsim.obj
 0003:00000ce2       ?has_quiet_NaN@_Num_base@std@@2_NB 0044cce2     fluidsim.obj
 0003:00000ce3       ?has_signaling_NaN@_Num_base@std@@2_NB 0044cce3     fluidsim.obj
 0003:00000ce4       ?is_bounded@_Num_base@std@@2_NB 0044cce4     fluidsim.obj
 0003:00000ce5       ?is_exact@_Num_base@std@@2_NB 0044cce5     fluidsim.obj
 0003:00000ce6       ?is_iec559@_Num_base@std@@2_NB 0044cce6     fluidsim.obj
 0003:00000ce7       ?is_integer@_Num_base@std@@2_NB 0044cce7     fluidsim.obj
 0003:00000cec       ??_7bad_alloc@std@@6B@     0044ccec     fluidsim.obj
 0003:00000cf8       ??_C@_0P@GHFPNOJB@bad?5allocation?$AA@ 0044ccf8     fluidsim.obj
 0003:00000d0c       ?npos@?$basic_string@DU?$char_traits@D@std@@V?$allocator@D@2@@std@@2IB 0044cd0c     fluidsim.obj
 0003:00000d14       ??_7error_category@std@@6B@ 0044cd14     fluidsim.obj
 0003:00000d38       ??_7_Generic_error_category@std@@6B@ 0044cd38     fluidsim.obj
 0003:00000d58       ??_C@_07DCLBNMLN@generic?$AA@ 0044cd58     fluidsim.obj
 0003:00000d64       ??_C@_0O@BFJCFAAK@unknown?5error?$AA@ 0044cd64     fluidsim.obj
 0003:00000d78       ??_7_Iostream_error_category@std@@6B@ 0044cd78     fluidsim.obj
 0003:00000d98       ??_C@_08LLGCOLLL@iostream?$AA@ 0044cd98     fluidsim.obj
 0003:00000da4       ??_C@_0BG@PADBLCHM@iostream?5stream?5error?$AA@ 0044cda4     fluidsim.obj
 0003:00000dc4       ??_7_System_error_category@std@@6B@ 0044cdc4     fluidsim.obj
 0003:00000de4       ??_C@_06FHFOAHML@system?$AA@ 0044cde4     fluidsim.obj
 0003:00000dec       ??_C@_04PACIOCLB@?4obj?$AA@ 0044cdec     fluidsim.obj
 0003:00000df8       ??_C@_0EA@LCDCKDBF@Error?3?5Expected?5OBJ?5file?5with?5fi@ 0044cdf8     fluidsim.obj
 0003:00000e4c       ??_7?$basic_filebuf@DU?$char_traits@D@std@@@std@@6B@ 0044ce4c     fluidsim.obj
 0003:00000e98       ??_7?$basic_ifstream@DU?$char_traits@D@std@@@std@@6B@ 0044ce98     fluidsim.obj
 0003:00000ea8       ??_8?$basic_ifstream@DU?$char_traits@D@std@@@std@@7B@ 0044cea8     fluidsim.obj
 0003:00000eb4       ??_C@_0BO@MBIHIIHN@Failed?5to?5open?4?5Terminating?4?6?$AA@ 0044ceb4     fluidsim.obj
 0003:00000ed8       ??_C@_01MHEDDDHA@v?$AA@    0044ced8     fluidsim.obj
 0003:00000edc       ??_C@_01PFHFFBPC@t?$AA@    0044cedc     fluidsim.obj
 0003:00000ee0       ??_C@_01EFFIKLCJ@n?$AA@    0044cee0     fluidsim.obj
 0003:00000eec       ??_7?$basic_stringbuf@DU?$char_traits@D@std@@V?$allocator@D@2@@std@@6B@ 0044ceec     fluidsim.obj
 0003:00000f38       ??_7?$basic_stringstream@DU?$char_traits@D@std@@V?$allocator@D@2@@std@@6B@ 0044cf38     fluidsim.obj
 0003:00000f48       ??_8?$basic_stringstream@DU?$char_traits@D@std@@V?$allocator@D@2@@std@@7B?$basic_istream@DU?$char_traits@D@std@@@1@@ 0044cf48     fluidsim.obj
 0003:00000f54       ??_8?$basic_stringstream@DU?$char_traits@D@std@@V?$allocator@D@2@@std@@7B?$basic_ostream@DU?$char_traits@D@std@@@1@@ 0044cf54     fluidsim.obj
 0003:00000f60       ??_C@_01INIBCBCB@f?$AA@    0044cf60     fluidsim.obj
 0003:00000f64       ??_C@_02KNHHEEKP@?5?5?$AA@ 0044cf64     fluidsim.obj
 0003:00000f68       ??_C@_01LFCBOECM@?4?$AA@   0044cf68     fluidsim.obj
 0003:00000f6c       ??_C@_0BD@KGCCDBGG@?$CJ?5with?5dimensions?5?$AA@ 0044cf6c     fluidsim.obj
 0003:00000f84       ??_C@_06DFBNBAOI@?$CJ?5to?5?$CI?$AA@ 0044cf84     fluidsim.obj
 0003:00000f8c       ??_C@_0BC@ODJBFJCC@Bound?5box?5size?3?5?$CI?$AA@ 0044cf8c     fluidsim.obj
 0003:00000fa4       ??_C@_0CC@MKLLFEIH@Computing?5signed?5distance?5field?4@ 0044cfa4     fluidsim.obj
 0003:00000fcc       ??_C@_0BG@INDCFGHJ@Processing?5complete?4?6?$AA@ 0044cfcc     fluidsim.obj
 0003:00000fe8       ??_C@_0DF@BLMAHAKF@Taking?5substep?5of?5size?5?$CFf?5?$CIto?5?$CF0@ 0044cfe8     fluidsim.obj
 0003:00001028       ??_C@_0BP@GFGELKPP@?5Surface?5?$CIparticle?$CJ?5advection?6?$AA@ 0044d028     fluidsim.obj
 0003:00001050       ??_C@_0BF@KGODKNGK@?5Velocity?5advection?6?$AA@ 0044d050     fluidsim.obj
 0003:0000106c       ??_C@_0BG@COBLPBF@?5Pressure?5projection?6?$AA@ 0044d06c     fluidsim.obj
 0003:00001088       ??_C@_0BA@HDDGNIF@?5Extrapolation?6?$AA@ 0044d088     fluidsim.obj
 0003:0000109c       ??_C@_0CA@BPJFHIGA@?5Constrain?5boundary?5velocities?6?$AA@ 0044d09c     fluidsim.obj
 0003:000010c8       ??_C@_0FB@EENBKCIM@WARNING?3?5Pressure?5solve?5failed?$CB?$CK@ 0044d0c8     fluidsim.obj
 0003:00001130       ??_C@_1JC@CMPJEP@?$AAc?$AA?3?$AA?2?$AAu?$AAs?$AAe?$AAr?$AAs?$AA?2?$AAl?$AAu?$AAc?$AAy?$AA?2?$AAd?$AAo?$AAc?$AAu?$AAm?$AAe?$AAn?$AAt?$AAs?$AA?2?$AAs?$AAc?$AAh?$AAo?$AAo?$AAl?$AA?2?$AA2@ 0044d130     fluidsim.obj
 0003:000011e0       ??_C@_1FK@PGIJLBAI@?$AAi?$AA?$DO?$AA?$DN?$AA0?$AA?5?$AA?$CG?$AA?$CG?$AA?5?$AAi?$AA?$DM?$AAn?$AAi?$AA?5?$AA?$CG?$AA?$CG?$AA?5?$AAj?$AA?$DO?$AA?$DN?$AA0?$AA?5?$AA?$CG?$AA?$CG?$AA?5?$AAj?$AA?$DM?$AAn?$AAj?$AA?5?$AA?$CG?$AA?$CG?$AA?5@ 0044d1e0     fluidsim.obj
 0003:0000124c       ??_C@_1DG@HHNMHAGH@?$AAn?$AAi?$AA_?$AA?$DO?$AA?$DN?$AA0?$AA?5?$AA?$CG?$AA?$CG?$AA?5?$AAn?$AAj?$AA_?$AA?$DO?$AA?$DN?$AA0?$AA?5?$AA?$CG?$AA?$CG?$AA?5?$AAn?$AAk?$AA_?$AA?$DO?$AA?$DN?$AA0?$AA?$AA@ 0044d24c     fluidsim.obj
 0003:00001290       ??_C@_1IM@GKDKOBBK@?$AAc?$AA?3?$AA?2?$AAu?$AAs?$AAe?$AAr?$AAs?$AA?2?$AAl?$AAu?$AAc?$AAy?$AA?2?$AAd?$AAo?$AAc?$AAu?$AAm?$AAe?$AAn?$AAt?$AAs?$AA?2?$AAs?$AAc?$AAh?$AAo?$AAo?$AAl?$AA?2?$AA2@ 0044d290     fluidsim.obj
 0003:00001338       ??_C@_1EE@DLOGJCN@?$AA0?$AA?$DM?$AA?$DN?$AAi?$AAn?$AAd?$AAe?$AAx?$AA?5?$AA?$CG?$AA?$CG?$AA?5?$AA?$CI?$AAu?$AAn?$AAs?$AAi?$AAg?$AAn?$AAe?$AAd?$AA?5?$AAi?$AAn?$AAt?$AA?$CJ?$AAi?$AAn?$AAd?$AAe?$AAx?$AA?$DM@ 0044d338     fluidsim.obj
 0003:0000138c       ??_C@_0BA@JFNIOLAK@string?5too?5long?$AA@ 0044d38c     fluidsim.obj
 0003:000013a0       ??_C@_0BI@CFPLBAOH@invalid?5string?5position?$AA@ 0044d3a0     fluidsim.obj
 0003:000013bc       ??_C@_0BD@OLBABOEK@vector?$DMT?$DO?5too?5long?$AA@ 0044d3bc     fluidsim.obj
 0003:000013d4       ??_C@_08EPJLHIJG@bad?5cast?$AA@ 0044d3d4     fluidsim.obj
 0003:000013e0       ??_C@_1LE@ENEPKILH@?$AAc?$AA?3?$AA?2?$AAu?$AAs?$AAe?$AAr?$AAs?$AA?2?$AAl?$AAu?$AAc?$AAy?$AA?2?$AAd?$AAo?$AAc?$AAu?$AAm?$AAe?$AAn?$AAt?$AAs?$AA?2?$AAs?$AAc?$AAh?$AAo?$AAo?$AAl?$AA?2?$AA2@ 0044d3e0     fluidsim.obj
 0003:000014b8       ??_C@_1CG@EHANPMAO@?$AAm?$AAa?$AAt?$AAr?$AAi?$AAx?$AA?4?$AAn?$AA?$DN?$AA?$DN?$AAx?$AA?4?$AAs?$AAi?$AAz?$AAe?$AA?$CI?$AA?$CJ?$AA?$AA@ 0044d4b8     fluidsim.obj
 0003:000014e8       ??_C@_1KO@LIPKMLDC@?$AAc?$AA?3?$AA?2?$AAu?$AAs?$AAe?$AAr?$AAs?$AA?2?$AAl?$AAu?$AAc?$AAy?$AA?2?$AAd?$AAo?$AAc?$AAu?$AAm?$AAe?$AAn?$AAt?$AAs?$AA?2?$AAs?$AAc?$AAh?$AAo?$AAo?$AAl?$AA?2?$AA2@ 0044d4e8     fluidsim.obj
 0003:000015b8       ??_C@_1CK@PBEEEGEA@?$AAf?$AAa?$AAc?$AAt?$AAo?$AAr?$AA?4?$AAn?$AA?$DN?$AA?$DN?$AAr?$AAh?$AAs?$AA?4?$AAs?$AAi?$AAz?$AAe?$AA?$CI?$AA?$CJ?$AA?$AA@ 0044d5b8     fluidsim.obj
 0003:000015ec       ??_C@_1DA@JHNLDKBB@?$AAf?$AAa?$AAc?$AAt?$AAo?$AAr?$AA?4?$AAn?$AA?$DN?$AA?$DN?$AAr?$AAe?$AAs?$AAu?$AAl?$AAt?$AA?4?$AAs?$AAi?$AAz?$AAe?$AA?$CI?$AA?$CJ?$AA?$AA@ 0044d5ec     fluidsim.obj
 0003:00001628       ??_C@_1CG@KJHEOHAD@?$AAf?$AAa?$AAc?$AAt?$AAo?$AAr?$AA?4?$AAn?$AA?$DN?$AA?$DN?$AAx?$AA?4?$AAs?$AAi?$AAz?$AAe?$AA?$CI?$AA?$CJ?$AA?$AA@ 0044d628     fluidsim.obj
 0003:00001658       ??_C@_1BG@GDBJLPEO@?$AAf?$AAa?$AAc?$AAt?$AAo?$AAr?$AA?4?$AAn?$AA?$DO?$AA0?$AA?$AA@ 0044d658     fluidsim.obj
 0003:00001674       __real@00000000            0044d674     fluidsim.obj
 0003:00001678       __real@0000000000000000    0044d678     fluidsim.obj
 0003:00001688       __real@39b4484bfeebc2a0    0044d688     fluidsim.obj
 0003:00001694       __real@3c23d70a            0044d694     fluidsim.obj
 0003:00001698       __real@3c32725dd1d243ac    0044d698     fluidsim.obj
 0003:000016a4       __real@3e000000            0044d6a4     fluidsim.obj
 0003:000016a8       __real@3f000000            0044d6a8     fluidsim.obj
 0003:000016ac       __real@3f800000            0044d6ac     fluidsim.obj
 0003:000016b0       __real@3fb999999999999a    0044d6b0     fluidsim.obj
 0003:000016c0       __real@3fd0000000000000    0044d6c0     fluidsim.obj
 0003:000016d0       __real@3fe0000000000000    0044d6d0     fluidsim.obj
 0003:000016e0       __real@3fe999999999999a    0044d6e0     fluidsim.obj
 0003:000016f0       __real@3fef0a3d70a3d70a    0044d6f0     fluidsim.obj
 0003:00001700       __real@3ff0000000000000    0044d700     fluidsim.obj
 0003:00001710       __real@3ff028f5c28f5c29    0044d710     fluidsim.obj
 0003:00001720       __real@4000000000000000    0044d720     fluidsim.obj
 0003:00001730       __real@4008000000000000    0044d730     fluidsim.obj
 0003:0000173c       __real@40400000            0044d73c     fluidsim.obj
 0003:00001740       __real@411cf5c3            0044d740     fluidsim.obj
 0003:00001744       __real@42c80000            0044d744     fluidsim.obj
 0003:00001748       __real@4f800000            0044d748     fluidsim.obj
 0003:0000174c       __real@7f7fffff            0044d74c     fluidsim.obj
 0003:00001750       __real@bf000000            0044d750     fluidsim.obj
 0003:00001760       __xmm@41f00000000000000000000000000000 0044d760     fluidsim.obj
 0003:00001780       __xmm@80000000000000008000000000000000 0044d780     fluidsim.obj
 0003:000017a0       __xmm@80000000800000008000000080000000 0044d7a0     fluidsim.obj
 0003:000017b4       __real@3e800000            0044d7b4     levelset_util.obj
 0003:000017bc       ??_7Camera@Gluvi@@6B@      0044d7bc     main.obj
 0003:000017e4       ??_7Widget@Gluvi@@6B@      0044d7e4     main.obj
 0003:000017f8       ??_C@_07LOFHFAIJ@frame?50?$AA@ 0044d7f8     main.obj
 0003:00001808       ??_7ScreenShotButton@@6B@  0044d808     main.obj
 0003:00001824       ??_7MovieButton@@6B@       0044d824     main.obj
 0003:00001840       ??_7RunButton@@6B@         0044d840     main.obj
 0003:00001858       ??_C@_0BD@LHLCIPIK@Liquid?5Data?5Viewer?$AA@ 0044d858     main.obj
 0003:00001870       ??_C@_0L@KKOCHHLN@Screenshot?$AA@ 0044d870     main.obj
 0003:00001880       ??_C@_05PHEBDHHP@Movie?$AA@ 0044d880     main.obj
 0003:00001888       ??_C@_03BGPLALFI@Run?$AA@  0044d888     main.obj
 0003:0000188c       ??_C@_0BF@NGLLGBDB@Not?5enough?5arguments?$AA@ 0044d88c     main.obj
 0003:000018a8       ??_C@_0BD@IFKPDKDM@Initializing?5data?6?$AA@ 0044d8a8     main.obj
 0003:000018c0       ??_C@_0BH@COCHMIOB@Initializing?5boundary?6?$AA@ 0044d8c0     main.obj
 0003:000018dc       ??_C@_0BF@MPKADFK@Initializing?5liquid?6?$AA@ 0044d8dc     main.obj
 0003:000018f8       ??_C@_0BI@MGPMMHAG@Exporting?5initial?5data?6?$AA@ 0044d8f8     main.obj
 0003:00001914       ??_C@_0BP@KEBFBCKB@?9?9?9?9?9?9?9?9?9?9?9?9?9?9?9?9?9?9?9?9?6Frame?5?$CFd?6?$AA@ 0044d914     main.obj
 0003:0000193c       ??_C@_0BD@PCLJPBBE@Simulating?5liquid?6?$AA@ 0044d93c     main.obj
 0003:00001954       ??_C@_04LCMACLFG@?4txt?$AA@ 0044d954     main.obj
 0003:0000195c       ??_C@_0L@JNAHJLK@particles_?$AA@ 0044d95c     main.obj
 0003:00001970       ??_7?$basic_ofstream@DU?$char_traits@D@std@@@std@@6B@ 0044d970     main.obj
 0003:00001980       ??_8?$basic_ofstream@DU?$char_traits@D@std@@@std@@7B@ 0044d980     main.obj
 0003:0000198c       ??_C@_01CLKCMJKC@?5?$AA@   0044d98c     main.obj
 0003:00001990       __real@3d719799812dea11    0044d990     main.obj
 0003:0000199c       __real@3dcccccd            0044d99c     main.obj
 0003:000019a0       __real@3e6b851f            0044d9a0     main.obj
 0003:000019a4       __real@3e99999a            0044d9a4     main.obj
 0003:000019a8       __real@3ecccccd            0044d9a8     main.obj
 0003:000019ac       __real@3f0ccccd            0044d9ac     main.obj
 0003:000019b0       __real@3f333333            0044d9b0     main.obj
 0003:000019b8       __real@3fd6666666666666    0044d9b8     main.obj
 0003:000019c4       __real@40000000            0044d9c4     main.obj
 0003:000019c8       __real@42340000            0044d9c8     main.obj
 0003:000019d0       ??_C@_1KE@OKPDEJKI@?$AAc?$AA?3?$AA?2?$AAu?$AAs?$AAe?$AAr?$AAs?$AA?2?$AAl?$AAu?$AAc?$AAy?$AA?2?$AAd?$AAo?$AAc?$AAu?$AAm?$AAe?$AAn?$AAt?$AAs?$AA?2?$AAs?$AAc?$AAh?$AAo?$AAo?$AAl?$AA?2?$AA2@ 0044d9d0     makelevelset3.obj
 0003:00001a94       ??_C@_1O@FNKJOHJI@?$AAs?$AAu?$AAm?$AA?$CB?$AA?$DN?$AA0?$AA?$AA@ 0044da94     makelevelset3.obj
 0003:00001aa4       __real@0da24260            0044daa4     makelevelset3.obj
 0003:00001aac       ??_7Target3D@Gluvi@@6B@    0044daac     gluvi.obj
 0003:00001ad4       ??_7TargetOrtho3D@Gluvi@@6B@ 0044dad4     gluvi.obj
 0003:00001afc       ??_7PanZoom2D@Gluvi@@6B@   0044dafc     gluvi.obj
 0003:00001b24       ??_7StaticText@Gluvi@@6B@  0044db24     gluvi.obj
 0003:00001b3c       ??_7Button@Gluvi@@6B@      0044db3c     gluvi.obj
 0003:00001b58       ??_7Slider@Gluvi@@6B@      0044db58     gluvi.obj
 0003:00001b74       ??_7WidgetList@Gluvi@@6B@  0044db74     gluvi.obj
 0003:00001b88       ??_C@_09GMIGFDOL@Clipping?5?$AA@ 0044db88     gluvi.obj
 0003:00001b94       ??_C@_0CA@KCJKHBLK@Projection?5?$CCperspective?$CC?5?$CCfov?$CC?5?$AA@ 0044db94     gluvi.obj
 0003:00001bbc       ??_C@_0BD@JEHAHFOO@ReverseOrientation?$AA@ 0044dbbc     gluvi.obj
 0003:00001bd4       ??_C@_0N@GNAHBAFI@Scale?51?51?5?91?$AA@ 0044dbd4     gluvi.obj
 0003:00001be4       ??_C@_0P@JEAJNMBD@Translate?50?50?5?$AA@ 0044dbe4     gluvi.obj
 0003:00001bf8       ??_C@_06LEOJGKKD@?51?50?50?$AA@ 0044dbf8     gluvi.obj
 0003:00001c00       ??_C@_07PLAEODKJ@Rotate?5?$AA@ 0044dc00     gluvi.obj
 0003:00001c0c       ??_C@_06MHAJNOGD@?50?51?50?$AA@ 0044dc0c     gluvi.obj
 0003:00001c14       ??_C@_0L@BJPLNDLG@Translate?5?$AA@ 0044dc14     gluvi.obj
 0003:00001c24       ??_C@_0BK@CPNOIOK@Projection?5?$CCorthographic?$CC?$AA@ 0044dc24     gluvi.obj
 0003:00001c44       ??_C@_0BA@FDJAOOAN@Clipping?51?52000?$AA@ 0044dc44     gluvi.obj
 0003:00001c58       ??_C@_02POKOGHLP@?51?$AA@  0044dc58     gluvi.obj
 0003:00001c5c       ??_C@_06PAPEJFHA@Scale?5?$AA@ 0044dc5c     gluvi.obj
 0003:00001c64       ??_C@_05NONGOBJO@?51000?$AA@ 0044dc64     gluvi.obj
 0003:00001c6c       ??_C@_05INMKHHOO@?5255?6?$AA@ 0044dc6c     gluvi.obj
 0003:00001c74       ??_C@_03MPLPFOOJ@P6?6?$AA@ 0044dc74     gluvi.obj
 0003:00001c78       ??_C@_1KA@NDMKEPJN@?$AAc?$AA?3?$AA?2?$AAu?$AAs?$AAe?$AAr?$AAs?$AA?2?$AAl?$AAu?$AAc?$AAy?$AA?2?$AAd?$AAo?$AAc?$AAu?$AAm?$AAe?$AAn?$AAt?$AAs?$AA?2?$AAs?$AAc?$AAh?$AAo?$AAo?$AAl?$AA?2?$AA2@ 0044dc78     gluvi.obj
 0003:00001d38       __real@3e4ccccd            0044dd38     gluvi.obj
 0003:00001d3c       __real@3f3504f3            0044dd3c     gluvi.obj
 0003:00001d40       __real@3f4ccccd            0044dd40     gluvi.obj
 0003:00001d48       __real@3f60624dd2f1a9fc    0044dd48     gluvi.obj
 0003:00001d58       __real@3f7cac083126e979    0044dd58     gluvi.obj
 0003:00001d68       __real@3f9eb851eb851eb8    0044dd68     gluvi.obj
 0003:00001d74       __real@3fb504f3            0044dd74     gluvi.obj
 0003:00001d78       __real@3fc90fdb            0044dd78     gluvi.obj
 0003:00001d80       __real@3fe6666666666666    0044dd80     gluvi.obj
 0003:00001d90       __real@3feccccccccccccd    0044dd90     gluvi.obj
 0003:00001da0       __real@3ff921fb60000000    0044dda0     gluvi.obj
 0003:00001dac       __real@40490fdb            0044ddac     gluvi.obj
 0003:00001db0       __real@40c90fdb            0044ddb0     gluvi.obj
 0003:00001db4       __real@42000000            0044ddb4     gluvi.obj
 0003:00001db8       __real@bf800000            0044ddb8     gluvi.obj
 0003:00001dbc       __real@bfc90fdb            0044ddbc     gluvi.obj
 0003:00001dc0       __real@bff921fb60000000    0044ddc0     gluvi.obj
 0003:00001dcc       __real@c0490fdb            0044ddcc     gluvi.obj
 0003:00001dd0       __real@c2652ee0            0044ddd0     gluvi.obj
 0003:00001dd8       ??_7type_info@@6B@         0044ddd8     MSVCRT:ti_inst.obj
 0003:00001dec       ?ProcessDetach@NativeDll@<CrtImplementationDetails>@@0IB 0044ddec     MSVCRT:unhandld.obj
 0003:00001df0       ?ProcessAttach@NativeDll@<CrtImplementationDetails>@@0IB 0044ddf0     MSVCRT:unhandld.obj
 0003:00001df4       ?ThreadAttach@NativeDll@<CrtImplementationDetails>@@0IB 0044ddf4     MSVCRT:unhandld.obj
 0003:00001df8       ?ThreadDetach@NativeDll@<CrtImplementationDetails>@@0IB 0044ddf8     MSVCRT:unhandld.obj
 0003:00001dfc       ?ProcessVerifier@NativeDll@<CrtImplementationDetails>@@0IB 0044ddfc     MSVCRT:unhandld.obj
 0003:00001e00       __load_config_used         0044de00     MSVCRT:loadcfg.obj
 0003:00002204       ??_R1A@?0A@EA@exception@std@@8 0044e204     fluidsim.obj
 0003:00002228       ??_R3exception@std@@8      0044e228     fluidsim.obj
 0003:0000223c       ??_R2exception@std@@8      0044e23c     fluidsim.obj
 0003:00002244       ??_R4bad_alloc@std@@6B@    0044e244     fluidsim.obj
 0003:0000225c       ??_R3bad_alloc@std@@8      0044e25c     fluidsim.obj
 0003:00002270       ??_R2bad_alloc@std@@8      0044e270     fluidsim.obj
 0003:0000227c       ??_R1A@?0A@EA@bad_alloc@std@@8 0044e27c     fluidsim.obj
 0003:000022a0       ??_R4?$basic_stringbuf@DU?$char_traits@D@std@@V?$allocator@D@2@@std@@6B@ 0044e2a0     fluidsim.obj
 0003:000022b8       ??_R3?$basic_stringbuf@DU?$char_traits@D@std@@V?$allocator@D@2@@std@@8 0044e2b8     fluidsim.obj
 0003:000022cc       ??_R2?$basic_stringbuf@DU?$char_traits@D@std@@V?$allocator@D@2@@std@@8 0044e2cc     fluidsim.obj
 0003:000022d8       ??_R1A@?0A@EA@?$basic_stringbuf@DU?$char_traits@D@std@@V?$allocator@D@2@@std@@8 0044e2d8     fluidsim.obj
 0003:000022fc       ??_R1A@?0A@EA@?$basic_streambuf@DU?$char_traits@D@std@@@std@@8 0044e2fc     fluidsim.obj
 0003:00002320       ??_R3?$basic_streambuf@DU?$char_traits@D@std@@@std@@8 0044e320     fluidsim.obj
 0003:00002334       ??_R2?$basic_streambuf@DU?$char_traits@D@std@@@std@@8 0044e334     fluidsim.obj
 0003:0000233c       ??_R4?$basic_stringstream@DU?$char_traits@D@std@@V?$allocator@D@2@@std@@6B@ 0044e33c     fluidsim.obj
 0003:00002354       ??_R3?$basic_stringstream@DU?$char_traits@D@std@@V?$allocator@D@2@@std@@8 0044e354     fluidsim.obj
 0003:00002368       ??_R2?$basic_stringstream@DU?$char_traits@D@std@@V?$allocator@D@2@@std@@8 0044e368     fluidsim.obj
 0003:0000239c       ??_R1A@?0A@EA@?$basic_stringstream@DU?$char_traits@D@std@@V?$allocator@D@2@@std@@8 0044e39c     fluidsim.obj
 0003:000023c0       ??_R1A@?0A@EA@?$basic_iostream@DU?$char_traits@D@std@@@std@@8 0044e3c0     fluidsim.obj
 0003:000023e4       ??_R3?$basic_iostream@DU?$char_traits@D@std@@@std@@8 0044e3e4     fluidsim.obj
 0003:000023f8       ??_R2?$basic_iostream@DU?$char_traits@D@std@@@std@@8 0044e3f8     fluidsim.obj
 0003:00002424       ??_R1A@?0A@EA@?$basic_istream@DU?$char_traits@D@std@@@std@@8 0044e424     fluidsim.obj
 0003:00002448       ??_R3?$basic_istream@DU?$char_traits@D@std@@@std@@8 0044e448     fluidsim.obj
 0003:0000245c       ??_R2?$basic_istream@DU?$char_traits@D@std@@@std@@8 0044e45c     fluidsim.obj
 0003:00002470       ??_R1A@A@3FA@?$basic_ios@DU?$char_traits@D@std@@@std@@8 0044e470     fluidsim.obj
 0003:00002494       ??_R3?$basic_ios@DU?$char_traits@D@std@@@std@@8 0044e494     fluidsim.obj
 0003:000024a8       ??_R2?$basic_ios@DU?$char_traits@D@std@@@std@@8 0044e4a8     fluidsim.obj
 0003:000024b8       ??_R1A@?0A@EA@?$basic_ios@DU?$char_traits@D@std@@@std@@8 0044e4b8     fluidsim.obj
 0003:000024dc       ??_R1A@?0A@EA@ios_base@std@@8 0044e4dc     fluidsim.obj
 0003:00002500       ??_R3ios_base@std@@8       0044e500     fluidsim.obj
 0003:00002514       ??_R2ios_base@std@@8       0044e514     fluidsim.obj
 0003:00002520       ??_R17?0A@EA@?$_Iosb@H@std@@8 0044e520     fluidsim.obj
 0003:00002544       ??_R3?$_Iosb@H@std@@8      0044e544     fluidsim.obj
 0003:00002558       ??_R2?$_Iosb@H@std@@8      0044e558     fluidsim.obj
 0003:00002560       ??_R1A@?0A@EA@?$_Iosb@H@std@@8 0044e560     fluidsim.obj
 0003:00002584       ??_R1A@A@3EA@ios_base@std@@8 0044e584     fluidsim.obj
 0003:000025a8       ??_R17A@3EA@?$_Iosb@H@std@@8 0044e5a8     fluidsim.obj
 0003:000025cc       ??_R1BA@?0A@EA@?$basic_ostream@DU?$char_traits@D@std@@@std@@8 0044e5cc     fluidsim.obj
 0003:000025f0       ??_R3?$basic_ostream@DU?$char_traits@D@std@@@std@@8 0044e5f0     fluidsim.obj
 0003:00002604       ??_R2?$basic_ostream@DU?$char_traits@D@std@@@std@@8 0044e604     fluidsim.obj
 0003:00002618       ??_R1A@?0A@EA@?$basic_ostream@DU?$char_traits@D@std@@@std@@8 0044e618     fluidsim.obj
 0003:0000263c       ??_R4?$basic_filebuf@DU?$char_traits@D@std@@@std@@6B@ 0044e63c     fluidsim.obj
 0003:00002654       ??_R3?$basic_filebuf@DU?$char_traits@D@std@@@std@@8 0044e654     fluidsim.obj
 0003:00002668       ??_R2?$basic_filebuf@DU?$char_traits@D@std@@@std@@8 0044e668     fluidsim.obj
 0003:00002674       ??_R1A@?0A@EA@?$basic_filebuf@DU?$char_traits@D@std@@@std@@8 0044e674     fluidsim.obj
 0003:00002698       ??_R4?$basic_ifstream@DU?$char_traits@D@std@@@std@@6B@ 0044e698     fluidsim.obj
 0003:000026b0       ??_R3?$basic_ifstream@DU?$char_traits@D@std@@@std@@8 0044e6b0     fluidsim.obj
 0003:000026c4       ??_R2?$basic_ifstream@DU?$char_traits@D@std@@@std@@8 0044e6c4     fluidsim.obj
 0003:000026e0       ??_R1A@?0A@EA@?$basic_ifstream@DU?$char_traits@D@std@@@std@@8 0044e6e0     fluidsim.obj
 0003:00002704       ??_R4error_category@std@@6B@ 0044e704     fluidsim.obj
 0003:0000271c       ??_R3error_category@std@@8 0044e71c     fluidsim.obj
 0003:00002730       ??_R2error_category@std@@8 0044e730     fluidsim.obj
 0003:00002738       ??_R1A@?0A@EA@error_category@std@@8 0044e738     fluidsim.obj
 0003:0000275c       ??_R4_Generic_error_category@std@@6B@ 0044e75c     fluidsim.obj
 0003:00002774       ??_R3_Generic_error_category@std@@8 0044e774     fluidsim.obj
 0003:00002788       ??_R2_Generic_error_category@std@@8 0044e788     fluidsim.obj
 0003:00002794       ??_R1A@?0A@EA@_Generic_error_category@std@@8 0044e794     fluidsim.obj
 0003:000027b8       ??_R4_Iostream_error_category@std@@6B@ 0044e7b8     fluidsim.obj
 0003:000027d0       ??_R3_Iostream_error_category@std@@8 0044e7d0     fluidsim.obj
 0003:000027e4       ??_R2_Iostream_error_category@std@@8 0044e7e4     fluidsim.obj
 0003:000027f4       ??_R1A@?0A@EA@_Iostream_error_category@std@@8 0044e7f4     fluidsim.obj
 0003:00002818       ??_R4_System_error_category@std@@6B@ 0044e818     fluidsim.obj
 0003:00002830       ??_R3_System_error_category@std@@8 0044e830     fluidsim.obj
 0003:00002844       ??_R2_System_error_category@std@@8 0044e844     fluidsim.obj
 0003:00002854       ??_R1A@?0A@EA@_System_error_category@std@@8 0044e854     fluidsim.obj
 0003:00002878       ??_R4?$basic_ofstream@DU?$char_traits@D@std@@@std@@6B@ 0044e878     main.obj
 0003:00002890       ??_R3?$basic_ofstream@DU?$char_traits@D@std@@@std@@8 0044e890     main.obj
 0003:000028a4       ??_R2?$basic_ofstream@DU?$char_traits@D@std@@@std@@8 0044e8a4     main.obj
 0003:000028c0       ??_R1A@?0A@EA@?$basic_ofstream@DU?$char_traits@D@std@@@std@@8 0044e8c0     main.obj
 0003:000028e4       ??_R4Camera@Gluvi@@6B@     0044e8e4     main.obj
 0003:000028fc       ??_R3Camera@Gluvi@@8       0044e8fc     main.obj
 0003:00002910       ??_R2Camera@Gluvi@@8       0044e910     main.obj
 0003:00002918       ??_R1A@?0A@EA@Camera@Gluvi@@8 0044e918     main.obj
 0003:0000293c       ??_R4Widget@Gluvi@@6B@     0044e93c     main.obj
 0003:00002954       ??_R3Widget@Gluvi@@8       0044e954     main.obj
 0003:00002968       ??_R2Widget@Gluvi@@8       0044e968     main.obj
 0003:00002970       ??_R1A@?0A@EA@Widget@Gluvi@@8 0044e970     main.obj
 0003:00002994       ??_R4ScreenShotButton@@6B@ 0044e994     main.obj
 0003:000029ac       ??_R3ScreenShotButton@@8   0044e9ac     main.obj
 0003:000029c0       ??_R2ScreenShotButton@@8   0044e9c0     main.obj
 0003:000029d0       ??_R1A@?0A@EA@ScreenShotButton@@8 0044e9d0     main.obj
 0003:000029f4       ??_R1A@?0A@EA@Button@Gluvi@@8 0044e9f4     main.obj
 0003:00002a18       ??_R3Button@Gluvi@@8       0044ea18     main.obj
 0003:00002a2c       ??_R2Button@Gluvi@@8       0044ea2c     main.obj
 0003:00002a38       ??_R4MovieButton@@6B@      0044ea38     main.obj
 0003:00002a50       ??_R3MovieButton@@8        0044ea50     main.obj
 0003:00002a64       ??_R2MovieButton@@8        0044ea64     main.obj
 0003:00002a74       ??_R1A@?0A@EA@MovieButton@@8 0044ea74     main.obj
 0003:00002a98       ??_R4RunButton@@6B@        0044ea98     main.obj
 0003:00002ab0       ??_R3RunButton@@8          0044eab0     main.obj
 0003:00002ac4       ??_R2RunButton@@8          0044eac4     main.obj
 0003:00002ad4       ??_R1A@?0A@EA@RunButton@@8 0044ead4     main.obj
 0003:00002af8       ??_R4Target3D@Gluvi@@6B@   0044eaf8     gluvi.obj
 0003:00002b10       ??_R3Target3D@Gluvi@@8     0044eb10     gluvi.obj
 0003:00002b24       ??_R2Target3D@Gluvi@@8     0044eb24     gluvi.obj
 0003:00002b30       ??_R1A@?0A@EA@Target3D@Gluvi@@8 0044eb30     gluvi.obj
 0003:00002b54       ??_R4TargetOrtho3D@Gluvi@@6B@ 0044eb54     gluvi.obj
 0003:00002b6c       ??_R3TargetOrtho3D@Gluvi@@8 0044eb6c     gluvi.obj
 0003:00002b80       ??_R2TargetOrtho3D@Gluvi@@8 0044eb80     gluvi.obj
 0003:00002b8c       ??_R1A@?0A@EA@TargetOrtho3D@Gluvi@@8 0044eb8c     gluvi.obj
 0003:00002bb0       ??_R4PanZoom2D@Gluvi@@6B@  0044ebb0     gluvi.obj
 0003:00002bc8       ??_R3PanZoom2D@Gluvi@@8    0044ebc8     gluvi.obj
 0003:00002bdc       ??_R2PanZoom2D@Gluvi@@8    0044ebdc     gluvi.obj
 0003:00002be8       ??_R1A@?0A@EA@PanZoom2D@Gluvi@@8 0044ebe8     gluvi.obj
 0003:00002c0c       ??_R4StaticText@Gluvi@@6B@ 0044ec0c     gluvi.obj
 0003:00002c24       ??_R3StaticText@Gluvi@@8   0044ec24     gluvi.obj
 0003:00002c38       ??_R2StaticText@Gluvi@@8   0044ec38     gluvi.obj
 0003:00002c44       ??_R1A@?0A@EA@StaticText@Gluvi@@8 0044ec44     gluvi.obj
 0003:00002c68       ??_R4Button@Gluvi@@6B@     0044ec68     gluvi.obj
 0003:00002c80       ??_R4Slider@Gluvi@@6B@     0044ec80     gluvi.obj
 0003:00002c98       ??_R3Slider@Gluvi@@8       0044ec98     gluvi.obj
 0003:00002cac       ??_R2Slider@Gluvi@@8       0044ecac     gluvi.obj
 0003:00002cb8       ??_R1A@?0A@EA@Slider@Gluvi@@8 0044ecb8     gluvi.obj
 0003:00002cdc       ??_R4WidgetList@Gluvi@@6B@ 0044ecdc     gluvi.obj
 0003:00002cf4       ??_R3WidgetList@Gluvi@@8   0044ecf4     gluvi.obj
 0003:00002d08       ??_R2WidgetList@Gluvi@@8   0044ed08     gluvi.obj
 0003:00002d14       ??_R1A@?0A@EA@WidgetList@Gluvi@@8 0044ed14     gluvi.obj
 0003:00002d38       ??_R4type_info@@6B@        0044ed38     MSVCRT:ti_inst.obj
 0003:00002d50       ??_R3type_info@@8          0044ed50     MSVCRT:ti_inst.obj
 0003:00002d64       ??_R2type_info@@8          0044ed64     MSVCRT:ti_inst.obj
 0003:00002d6c       ??_R1A@?0A@EA@type_info@@8 0044ed6c     MSVCRT:ti_inst.obj
 0003:00002ee0       ___rtc_iaa                 0044eee0     MSVCRT:initsect.obj
 0003:00002fe4       ___rtc_izz                 0044efe4     MSVCRT:initsect.obj
 0003:000030e8       ___rtc_taa                 0044f0e8     MSVCRT:initsect.obj
 0003:000031ec       ___rtc_tzz                 0044f1ec     MSVCRT:initsect.obj
 0003:00004458       __CT??_R0?AVexception@std@@@8??0exception@std@@QAE@ABV01@@Z12 00450458     fluidsim.obj
 0003:00004478       __TI2?AVbad_alloc@std@@    00450478     fluidsim.obj
 0003:0000448c       __CTA2?AVbad_alloc@std@@   0045048c     fluidsim.obj
 0003:0000449c       __CT??_R0?AVbad_alloc@std@@@8??0bad_alloc@std@@QAE@ABV01@@Z12 0045049c     fluidsim.obj
 0003:000044bc       __TI2?AVbad_cast@std@@     004504bc     fluidsim.obj
 0003:000044d0       __CTA2?AVbad_cast@std@@    004504d0     fluidsim.obj
 0003:000044e0       __CT??_R0?AVbad_cast@std@@@8??0bad_cast@std@@QAE@ABV01@@Z12 004504e0     fluidsim.obj
 0004:00000000       ??_R0?AVexception@std@@@8  00451000     fluidsim.obj
 0004:00000024       ??_R0?AVbad_alloc@std@@@8  00451024     fluidsim.obj
 0004:00000048       ??_R0?AVbad_cast@std@@@8   00451048     fluidsim.obj
 0004:00000068       ??_R0?AV?$basic_stringbuf@DU?$char_traits@D@std@@V?$allocator@D@2@@std@@@8 00451068     fluidsim.obj
 0004:000000c4       ??_R0?AV?$basic_streambuf@DU?$char_traits@D@std@@@std@@@8 004510c4     fluidsim.obj
 0004:00000110       ??_R0?AV?$basic_stringstream@DU?$char_traits@D@std@@V?$allocator@D@2@@std@@@8 00451110     fluidsim.obj
 0004:00000170       ??_R0?AV?$basic_iostream@DU?$char_traits@D@std@@@std@@@8 00451170     fluidsim.obj
 0004:000001b8       ??_R0?AV?$basic_istream@DU?$char_traits@D@std@@@std@@@8 004511b8     fluidsim.obj
 0004:00000200       ??_R0?AV?$basic_ios@DU?$char_traits@D@std@@@std@@@8 00451200     fluidsim.obj
 0004:00000240       ??_R0?AVios_base@std@@@8   00451240     fluidsim.obj
 0004:00000260       ??_R0?AV?$_Iosb@H@std@@@8  00451260     fluidsim.obj
 0004:00000284       ??_R0?AV?$basic_ostream@DU?$char_traits@D@std@@@std@@@8 00451284     fluidsim.obj
 0004:000002cc       ??_R0?AV?$basic_filebuf@DU?$char_traits@D@std@@@std@@@8 004512cc     fluidsim.obj
 0004:00000314       ??_R0?AV?$basic_ifstream@DU?$char_traits@D@std@@@std@@@8 00451314     fluidsim.obj
 0004:0000035c       ??_R0?AVerror_category@std@@@8 0045135c     fluidsim.obj
 0004:00000384       ??_R0?AV_Generic_error_category@std@@@8 00451384     fluidsim.obj
 0004:000003b8       ??_R0?AV_Iostream_error_category@std@@@8 004513b8     fluidsim.obj
 0004:000003ec       ??_R0?AV_System_error_category@std@@@8 004513ec     fluidsim.obj
 0004:00000420       ?rad0@@3MA                 00451420     main.obj
 0004:00000424       ?grid_resolution@@3HA      00451424     main.obj
 0004:00000428       ?timestep@@3MA             00451428     main.obj
 0004:0000042c       ?grid_width@@3MA           0045142c     main.obj
 0004:00000434       ??_R0?AV?$basic_ofstream@DU?$char_traits@D@std@@@std@@@8 00451434     main.obj
 0004:0000047c       ??_R0?AUCamera@Gluvi@@@8   0045147c     main.obj
 0004:0000049c       ??_R0?AUWidget@Gluvi@@@8   0045149c     main.obj
 0004:000004bc       ??_R0?AUScreenShotButton@@@8 004514bc     main.obj
 0004:000004e4       ??_R0?AUButton@Gluvi@@@8   004514e4     main.obj
 0004:00000504       ??_R0?AUMovieButton@@@8    00451504     main.obj
 0004:00000524       ??_R0?AURunButton@@@8      00451524     main.obj
 0004:00000540       ?__LINE__Var@?1??point_in_triangle_2d@@YA_NNNNNNNNNAAN00@Z@4JA@0e8116aa 00451540     makelevelset3.obj
 0004:00000544       ?winwidth@Gluvi@@3HA       00451544     gluvi.obj
 0004:00000548       ?winheight@Gluvi@@3HA      00451548     gluvi.obj
 0004:00000550       ??_R0?AUTarget3D@Gluvi@@@8 00451550     gluvi.obj
 0004:00000574       ??_R0?AUTargetOrtho3D@Gluvi@@@8 00451574     gluvi.obj
 0004:0000059c       ??_R0?AUPanZoom2D@Gluvi@@@8 0045159c     gluvi.obj
 0004:000005c0       ??_R0?AUStaticText@Gluvi@@@8 004515c0     gluvi.obj
 0004:000005e8       ??_R0?AUSlider@Gluvi@@@8   004515e8     gluvi.obj
 0004:00000608       ??_R0?AUWidgetList@Gluvi@@@8 00451608     gluvi.obj
 0004:00000630       ??_R0?AVtype_info@@@8      00451630     MSVCRT:ti_inst.obj
 0004:0000064c       ___security_cookie         0045164c     MSVCRT:gs_cookie.obj
 0004:00000650       ___security_cookie_complement 00451650     MSVCRT:gs_cookie.obj
 0004:00000660       ___isa_enabled             00451660     MSVCRT:cpu_disp.obj
 0004:00000664       ___defaultmatherr          00451664     MSVCRT:merr.obj
 0004:00000668       ___globallocalestatus      00451668     MSVCRT:xthdloc.obj
 0004:0000066c       ___native_dllmain_reason   0045166c     MSVCRT:natstart.obj
 0004:0000079c       ?_Generic_object@?$_Error_objects@H@std@@2V_Generic_error_category@2@A 0045179c     fluidsim.obj
 0004:000007a0       ?_Iostream_object@?$_Error_objects@H@std@@2V_Iostream_error_category@2@A 004517a0     fluidsim.obj
 0004:000007a4       ?_System_object@?$_Error_objects@H@std@@2V_System_error_category@2@A 004517a4     fluidsim.obj
 0004:000007a8       ?id@?$num_put@DV?$back_insert_iterator@V?$basic_string@DU?$char_traits@D@std@@V?$allocator@D@2@@std@@@std@@@std@@2V0locale@2@A 004517a8     fluidsim.obj
 0004:000007ac       ?id@?$num_put@_WV?$back_insert_iterator@V?$basic_string@_WU?$char_traits@_W@std@@V?$allocator@_W@2@@std@@@std@@@std@@2V0locale@2@A 004517ac     fluidsim.obj
 0004:000007b0       ?_Stinit@?1??_Init@?$basic_filebuf@DU?$char_traits@D@std@@@std@@IAEXPAU_iobuf@@W4_Initfl@23@@Z@4HA 004517b0     fluidsim.obj
 0004:000007b4       ?_Psave@?$_Facetptr@V?$codecvt@DDH@std@@@std@@2PBVfacet@locale@2@B 004517b4     fluidsim.obj
 0004:000007b8       ?particle_radius@@3MA      004517b8     main.obj
 0004:000007bc       ?ppmfileformat@@3PADA      004517bc     main.obj
 0004:000007c0       ?frame@@3HA                004517c0     main.obj
 0004:000007c4       ?filming@@3_NA             004517c4     main.obj
 0004:000007c5       ?running@@3_NA             004517c5     main.obj
 0004:000007c8       ?sim@@3VFluidSim@@A        004517c8     main.obj
 0004:00000a58       ?frame_number@@3V?$basic_string@DU?$char_traits@D@std@@V?$allocator@D@2@@std@@A 00451a58     main.obj
 0004:00000a70       ?c0@@3U?$Vec@$02M@@A       00451a70     main.obj
 0004:00000a7c       ?particle_positions@@3V?$vector@U?$Vec@$02M@@V?$allocator@U?$Vec@$02M@@@std@@@std@@A 00451a7c     main.obj
 0004:00000a88       ?outpath@@3V?$basic_string@DU?$char_traits@D@std@@V?$allocator@D@2@@std@@A 00451a88     main.obj
 0004:00000b38       ?camera@Gluvi@@3PAUCamera@1@A 00451b38     gluvi.obj
 0004:00000b40       ?userDisplayFunc@Gluvi@@3P6AXXZA 00451b40     gluvi.obj
 0004:00000b44       ?userMouseFunc@Gluvi@@3P6AXHHHH@ZA 00451b44     gluvi.obj
 0004:00000b48       ?userDragFunc@Gluvi@@3P6AXHH@ZA 00451b48     gluvi.obj
 0004:00000b50       ?root@Gluvi@@3UWidgetList@1@A 00451b50     gluvi.obj
 0004:00000f80       ___isa_available           00451f80     MSVCRT:cpu_disp.obj
 0004:00000f84       ___favor                   00451f84     MSVCRT:cpu_disp.obj
 0004:00000f8c       __commode                  00451f8c     MSVCRT:xncommod.obj
 0004:00000f90       __dowildcard               00451f90     MSVCRT:wildcard.obj
 0004:00000f94       __newmode                  00451f94     MSVCRT:_newmode.obj
 0004:00000f98       __fmode                    00451f98     MSVCRT:xtxtmode.obj
 0004:00000f9c       ___native_startup_lock     00451f9c     <common>
 0004:00000fac       ___native_startup_state    00451fac     <common>
 0004:00000fb0       ___dyn_tls_init_callback   00451fb0     <common>
 0004:00000fc0       ___onexitend               00451fc0     <common>
 0004:00000fd0       ___onexitbegin             00451fd0     <common>
 0005:00000000       __IMPORT_DESCRIPTOR_OPENGL32 00452000     opengl32:OPENGL32.dll
 0005:00000014       __IMPORT_DESCRIPTOR_GLU32  00452014     glu32:GLU32.dll
 0005:00000028       __IMPORT_DESCRIPTOR_glut32 00452028     glut32:glut32.dll
 0005:0000003c       __IMPORT_DESCRIPTOR_MSVCP110 0045203c     msvcprt:MSVCP110.dll
 0005:00000050       __IMPORT_DESCRIPTOR_MSVCR110 00452050     MSVCRT:MSVCR110.dll
 0005:00000064       __IMPORT_DESCRIPTOR_KERNEL32 00452064     kernel32:KERNEL32.dll
 0005:00000078       __NULL_IMPORT_DESCRIPTOR   00452078     opengl32:OPENGL32.dll
 0005:000005e0       __imp__gluQuadricDrawStyle@8 004525e0     glu32:GLU32.dll
 0005:000005e4       __imp__gluSphere@20        004525e4     glu32:GLU32.dll
 0005:000005e8       __imp__gluOrtho2D@32       004525e8     glu32:GLU32.dll
 0005:000005ec       __imp__gluPerspective@32   004525ec     glu32:GLU32.dll
 0005:000005f0       __imp__gluNewQuadric@0     004525f0     glu32:GLU32.dll
 0005:000005f4       \177GLU32_NULL_THUNK_DATA  004525f4     glu32:GLU32.dll
 0005:00000624       __imp__IsProcessorFeaturePresent@4 00452624     kernel32:KERNEL32.dll
 0005:00000628       __imp__EncodePointer@4     00452628     kernel32:KERNEL32.dll
 0005:0000062c       __imp__QueryPerformanceCounter@4 0045262c     kernel32:KERNEL32.dll
 0005:00000630       __imp__GetCurrentProcessId@0 00452630     kernel32:KERNEL32.dll
 0005:00000634       __imp__GetCurrentThreadId@0 00452634     kernel32:KERNEL32.dll
 0005:00000638       __imp__GetSystemTimeAsFileTime@4 00452638     kernel32:KERNEL32.dll
 0005:0000063c       __imp__DecodePointer@4     0045263c     kernel32:KERNEL32.dll
 0005:00000640       __imp__IsDebuggerPresent@0 00452640     kernel32:KERNEL32.dll
 0005:00000644       \177KERNEL32_NULL_THUNK_DATA 00452644     kernel32:KERNEL32.dll
 0005:00000674       __imp_??1?$basic_ostream@DU?$char_traits@D@std@@@std@@UAE@XZ 00452674     msvcprt:MSVCP110.dll
 0005:00000678       __imp_??0?$basic_ostream@DU?$char_traits@D@std@@@std@@QAE@PAV?$basic_streambuf@DU?$char_traits@D@std@@@1@_N@Z 00452678     msvcprt:MSVCP110.dll
 0005:0000067c       __imp_?cerr@std@@3V?$basic_ostream@DU?$char_traits@D@std@@@1@A 0045267c     msvcprt:MSVCP110.dll
 0005:00000680       __imp_?cout@std@@3V?$basic_ostream@DU?$char_traits@D@std@@@1@A 00452680     msvcprt:MSVCP110.dll
 0005:00000684       __imp_?id@?$codecvt@DDH@std@@2V0locale@2@A 00452684     msvcprt:MSVCP110.dll
 0005:00000688       __imp_?_BADOFF@std@@3_JB   00452688     msvcprt:MSVCP110.dll
 0005:0000068c       __imp_??6?$basic_ostream@DU?$char_traits@D@std@@@std@@QAEAAV01@I@Z 0045268c     msvcprt:MSVCP110.dll
 0005:00000690       __imp_?xsgetn@?$basic_streambuf@DU?$char_traits@D@std@@@std@@MAE_JPAD_J@Z 00452690     msvcprt:MSVCP110.dll
 0005:00000694       __imp_?uflow@?$basic_streambuf@DU?$char_traits@D@std@@@std@@MAEHXZ 00452694     msvcprt:MSVCP110.dll
 0005:00000698       __imp_?sync@?$basic_streambuf@DU?$char_traits@D@std@@@std@@MAEHXZ 00452698     msvcprt:MSVCP110.dll
 0005:0000069c       __imp_?showmanyc@?$basic_streambuf@DU?$char_traits@D@std@@@std@@MAE_JXZ 0045269c     msvcprt:MSVCP110.dll
 0005:000006a0       __imp_?setbuf@?$basic_streambuf@DU?$char_traits@D@std@@@std@@MAEPAV12@PAD_J@Z 004526a0     msvcprt:MSVCP110.dll
 0005:000006a4       __imp_?imbue@?$basic_streambuf@DU?$char_traits@D@std@@@std@@MAEXABVlocale@2@@Z 004526a4     msvcprt:MSVCP110.dll
 0005:000006a8       __imp_?_Unlock@?$basic_streambuf@DU?$char_traits@D@std@@@std@@UAEXXZ 004526a8     msvcprt:MSVCP110.dll
 0005:000006ac       __imp_?_Lock@?$basic_streambuf@DU?$char_traits@D@std@@@std@@UAEXXZ 004526ac     msvcprt:MSVCP110.dll
 0005:000006b0       __imp_?_Add_vtordisp2@?$basic_ios@DU?$char_traits@D@std@@@std@@UAEXXZ 004526b0     msvcprt:MSVCP110.dll
 0005:000006b4       __imp_?_Fiopen@std@@YAPAU_iobuf@@PBDHH@Z 004526b4     msvcprt:MSVCP110.dll
 0005:000006b8       __imp_??1?$basic_iostream@DU?$char_traits@D@std@@@std@@UAE@XZ 004526b8     msvcprt:MSVCP110.dll
 0005:000006bc       __imp_??0?$basic_iostream@DU?$char_traits@D@std@@@std@@QAE@PAV?$basic_streambuf@DU?$char_traits@D@std@@@1@@Z 004526bc     msvcprt:MSVCP110.dll
 0005:000006c0       __imp_??5?$basic_istream@DU?$char_traits@D@std@@@std@@QAEAAV01@AAM@Z 004526c0     msvcprt:MSVCP110.dll
 0005:000006c4       __imp_?_Ipfx@?$basic_istream@DU?$char_traits@D@std@@@std@@QAE_N_N@Z 004526c4     msvcprt:MSVCP110.dll
 0005:000006c8       __imp_?_Add_vtordisp1@?$basic_ios@DU?$char_traits@D@std@@@std@@UAEXXZ 004526c8     msvcprt:MSVCP110.dll
 0005:000006cc       __imp_??6?$basic_ostream@DU?$char_traits@D@std@@@std@@QAEAAV01@N@Z 004526cc     msvcprt:MSVCP110.dll
 0005:000006d0       __imp_?put@?$basic_ostream@DU?$char_traits@D@std@@@std@@QAEAAV12@D@Z 004526d0     msvcprt:MSVCP110.dll
 0005:000006d4       __imp_?write@?$basic_ostream@DU?$char_traits@D@std@@@std@@QAEAAV12@PBD_J@Z 004526d4     msvcprt:MSVCP110.dll
 0005:000006d8       __imp_?xsputn@?$basic_streambuf@DU?$char_traits@D@std@@@std@@MAE_JPBD_J@Z 004526d8     msvcprt:MSVCP110.dll
 0005:000006dc       __imp_?_Add_vtordisp1@?$basic_istream@DU?$char_traits@D@std@@@std@@UAEXXZ 004526dc     msvcprt:MSVCP110.dll
 0005:000006e0       __imp_??1?$basic_istream@DU?$char_traits@D@std@@@std@@UAE@XZ 004526e0     msvcprt:MSVCP110.dll
 0005:000006e4       __imp_??0?$basic_istream@DU?$char_traits@D@std@@@std@@QAE@PAV?$basic_streambuf@DU?$char_traits@D@std@@@1@_N@Z 004526e4     msvcprt:MSVCP110.dll
 0005:000006e8       __imp_?endl@std@@YAAAV?$basic_ostream@DU?$char_traits@D@std@@@1@AAV21@@Z 004526e8     msvcprt:MSVCP110.dll
 0005:000006ec       __imp_?flush@?$basic_ostream@DU?$char_traits@D@std@@@std@@QAEAAV12@XZ 004526ec     msvcprt:MSVCP110.dll
 0005:000006f0       __imp_??6?$basic_ostream@DU?$char_traits@D@std@@@std@@QAEAAV01@M@Z 004526f0     msvcprt:MSVCP110.dll
 0005:000006f4       __imp_??6?$basic_ostream@DU?$char_traits@D@std@@@std@@QAEAAV01@H@Z 004526f4     msvcprt:MSVCP110.dll
 0005:000006f8       __imp_??6?$basic_ostream@DU?$char_traits@D@std@@@std@@QAEAAV01@P6AAAV01@AAV01@@Z@Z 004526f8     msvcprt:MSVCP110.dll
 0005:000006fc       __imp_?_Osfx@?$basic_ostream@DU?$char_traits@D@std@@@std@@QAEXXZ 004526fc     msvcprt:MSVCP110.dll
 0005:00000700       __imp_?_Add_vtordisp2@?$basic_ostream@DU?$char_traits@D@std@@@std@@UAEXXZ 00452700     msvcprt:MSVCP110.dll
 0005:00000704       __imp_??0?$basic_ios@DU?$char_traits@D@std@@@std@@IAE@XZ 00452704     msvcprt:MSVCP110.dll
 0005:00000708       __imp_?widen@?$basic_ios@DU?$char_traits@D@std@@@std@@QBEDD@Z 00452708     msvcprt:MSVCP110.dll
 0005:0000070c       __imp_?fill@?$basic_ios@DU?$char_traits@D@std@@@std@@QBEDXZ 0045270c     msvcprt:MSVCP110.dll
 0005:00000710       __imp_?rdbuf@?$basic_ios@DU?$char_traits@D@std@@@std@@QBEPAV?$basic_streambuf@DU?$char_traits@D@std@@@2@XZ 00452710     msvcprt:MSVCP110.dll
 0005:00000714       __imp_?tie@?$basic_ios@DU?$char_traits@D@std@@@std@@QBEPAV?$basic_ostream@DU?$char_traits@D@std@@@2@XZ 00452714     msvcprt:MSVCP110.dll
 0005:00000718       __imp_?setstate@?$basic_ios@DU?$char_traits@D@std@@@std@@QAEXH_N@Z 00452718     msvcprt:MSVCP110.dll
 0005:0000071c       __imp_??1?$basic_ios@DU?$char_traits@D@std@@@std@@UAE@XZ 0045271c     msvcprt:MSVCP110.dll
 0005:00000720       __imp_??0_Lockit@std@@QAE@H@Z 00452720     msvcprt:MSVCP110.dll
 0005:00000724       __imp_??1_Lockit@std@@QAE@XZ 00452724     msvcprt:MSVCP110.dll
 0005:00000728       __imp_?uncaught_exception@std@@YA_NXZ 00452728     msvcprt:MSVCP110.dll
 0005:0000072c       __imp_?_Orphan_all@_Container_base0@std@@QAEXXZ 0045272c     msvcprt:MSVCP110.dll
 0005:00000730       __imp_?_Swap_all@_Container_base0@std@@QAEXAAU12@@Z 00452730     msvcprt:MSVCP110.dll
 0005:00000734       __imp_?_Xbad_alloc@std@@YAXXZ 00452734     msvcprt:MSVCP110.dll
 0005:00000738       __imp_?_Xlength_error@std@@YAXPBD@Z 00452738     msvcprt:MSVCP110.dll
 0005:0000073c       __imp_?_Xout_of_range@std@@YAXPBD@Z 0045273c     msvcprt:MSVCP110.dll
 0005:00000740       __imp_??0id@locale@std@@QAE@I@Z 00452740     msvcprt:MSVCP110.dll
 0005:00000744       __imp_??Bid@locale@std@@QAEIXZ 00452744     msvcprt:MSVCP110.dll
 0005:00000748       __imp_?_Getgloballocale@locale@std@@CAPAV_Locimp@12@XZ 00452748     msvcprt:MSVCP110.dll
 0005:0000074c       __imp_?always_noconv@codecvt_base@std@@QBE_NXZ 0045274c     msvcprt:MSVCP110.dll
 0005:00000750       __imp_?in@?$codecvt@DDH@std@@QBEHAAHPBD1AAPBDPAD3AAPAD@Z 00452750     msvcprt:MSVCP110.dll
 0005:00000754       __imp_?out@?$codecvt@DDH@std@@QBEHAAHPBD1AAPBDPAD3AAPAD@Z 00452754     msvcprt:MSVCP110.dll
 0005:00000758       __imp_?unshift@?$codecvt@DDH@std@@QBEHAAHPAD1AAPAD@Z 00452758     msvcprt:MSVCP110.dll
 0005:0000075c       __imp_?_Getcat@?$codecvt@DDH@std@@SAIPAPBVfacet@locale@2@PBV42@@Z 0045275c     msvcprt:MSVCP110.dll
 0005:00000760       __imp_?_Syserror_map@std@@YAPBDH@Z 00452760     msvcprt:MSVCP110.dll
 0005:00000764       __imp_?_Winerror_map@std@@YAPBDH@Z 00452764     msvcprt:MSVCP110.dll
 0005:00000768       __imp_??7ios_base@std@@QBE_NXZ 00452768     msvcprt:MSVCP110.dll
 0005:0000076c       __imp_?good@ios_base@std@@QBE_NXZ 0045276c     msvcprt:MSVCP110.dll
 0005:00000770       __imp_?eof@ios_base@std@@QBE_NXZ 00452770     msvcprt:MSVCP110.dll
 0005:00000774       __imp_?flags@ios_base@std@@QBEHXZ 00452774     msvcprt:MSVCP110.dll
 0005:00000778       __imp_?width@ios_base@std@@QBE_JXZ 00452778     msvcprt:MSVCP110.dll
 0005:0000077c       __imp_?width@ios_base@std@@QAE_J_J@Z 0045277c     msvcprt:MSVCP110.dll
 0005:00000780       __imp_??0?$basic_streambuf@DU?$char_traits@D@std@@@std@@IAE@XZ 00452780     msvcprt:MSVCP110.dll
 0005:00000784       __imp_??1?$basic_streambuf@DU?$char_traits@D@std@@@std@@UAE@XZ 00452784     msvcprt:MSVCP110.dll
 0005:00000788       __imp_?getloc@?$basic_streambuf@DU?$char_traits@D@std@@@std@@QBE?AVlocale@2@XZ 00452788     msvcprt:MSVCP110.dll
 0005:0000078c       __imp_?sbumpc@?$basic_streambuf@DU?$char_traits@D@std@@@std@@QAEHXZ 0045278c     msvcprt:MSVCP110.dll
 0005:00000790       __imp_?sgetc@?$basic_streambuf@DU?$char_traits@D@std@@@std@@QAEHXZ 00452790     msvcprt:MSVCP110.dll
 0005:00000794       __imp_?snextc@?$basic_streambuf@DU?$char_traits@D@std@@@std@@QAEHXZ 00452794     msvcprt:MSVCP110.dll
 0005:00000798       __imp_?sputc@?$basic_streambuf@DU?$char_traits@D@std@@@std@@QAEHD@Z 00452798     msvcprt:MSVCP110.dll
 0005:0000079c       __imp_?sputn@?$basic_streambuf@DU?$char_traits@D@std@@@std@@QAE_JPBD_J@Z 0045279c     msvcprt:MSVCP110.dll
 0005:000007a0       __imp_?eback@?$basic_streambuf@DU?$char_traits@D@std@@@std@@IBEPADXZ 004527a0     msvcprt:MSVCP110.dll
 0005:000007a4       __imp_?gptr@?$basic_streambuf@DU?$char_traits@D@std@@@std@@IBEPADXZ 004527a4     msvcprt:MSVCP110.dll
 0005:000007a8       __imp_?pbase@?$basic_streambuf@DU?$char_traits@D@std@@@std@@IBEPADXZ 004527a8     msvcprt:MSVCP110.dll
 0005:000007ac       __imp_?pptr@?$basic_streambuf@DU?$char_traits@D@std@@@std@@IBEPADXZ 004527ac     msvcprt:MSVCP110.dll
 0005:000007b0       __imp_?egptr@?$basic_streambuf@DU?$char_traits@D@std@@@std@@IBEPADXZ 004527b0     msvcprt:MSVCP110.dll
 0005:000007b4       __imp_?gbump@?$basic_streambuf@DU?$char_traits@D@std@@@std@@IAEXH@Z 004527b4     msvcprt:MSVCP110.dll
 0005:000007b8       __imp_?setg@?$basic_streambuf@DU?$char_traits@D@std@@@std@@IAEXPAD00@Z 004527b8     msvcprt:MSVCP110.dll
 0005:000007bc       __imp_?epptr@?$basic_streambuf@DU?$char_traits@D@std@@@std@@IBEPADXZ 004527bc     msvcprt:MSVCP110.dll
 0005:000007c0       __imp_?_Gndec@?$basic_streambuf@DU?$char_traits@D@std@@@std@@IAEPADXZ 004527c0     msvcprt:MSVCP110.dll
 0005:000007c4       __imp_?_Gninc@?$basic_streambuf@DU?$char_traits@D@std@@@std@@IAEPADXZ 004527c4     msvcprt:MSVCP110.dll
 0005:000007c8       __imp_?pbump@?$basic_streambuf@DU?$char_traits@D@std@@@std@@IAEXH@Z 004527c8     msvcprt:MSVCP110.dll
 0005:000007cc       __imp_?setp@?$basic_streambuf@DU?$char_traits@D@std@@@std@@IAEXPAD0@Z 004527cc     msvcprt:MSVCP110.dll
 0005:000007d0       __imp_?setp@?$basic_streambuf@DU?$char_traits@D@std@@@std@@IAEXPAD00@Z 004527d0     msvcprt:MSVCP110.dll
 0005:000007d4       __imp_?_Pninc@?$basic_streambuf@DU?$char_traits@D@std@@@std@@IAEPADXZ 004527d4     msvcprt:MSVCP110.dll
 0005:000007d8       __imp_?_Init@?$basic_streambuf@DU?$char_traits@D@std@@@std@@IAEXXZ 004527d8     msvcprt:MSVCP110.dll
 0005:000007dc       __imp_?_Init@?$basic_streambuf@DU?$char_traits@D@std@@@std@@IAEXPAPAD0PAH001@Z 004527dc     msvcprt:MSVCP110.dll
 0005:000007e0       \177MSVCP110_NULL_THUNK_DATA 004527e0     msvcprt:MSVCP110.dll
 0005:00000854       __imp_??1exception@std@@UAE@XZ 00452854     MSVCRT:MSVCR110.dll
 0005:00000858       __imp___commode            00452858     MSVCRT:MSVCR110.dll
 0005:0000085c       __imp___fmode              0045285c     MSVCRT:MSVCR110.dll
 0005:00000860       __imp____initenv           00452860     MSVCRT:MSVCR110.dll
 0005:00000864       __imp___initterm           00452864     MSVCRT:MSVCR110.dll
 0005:00000868       __imp___initterm_e         00452868     MSVCRT:MSVCR110.dll
 0005:0000086c       __imp____setusermatherr    0045286c     MSVCRT:MSVCR110.dll
 0005:00000870       __imp___configthreadlocale 00452870     MSVCRT:MSVCR110.dll
 0005:00000874       __imp___cexit              00452874     MSVCRT:MSVCR110.dll
 0005:00000878       __imp___controlfp_s        00452878     MSVCRT:MSVCR110.dll
 0005:0000087c       __imp___invoke_watson      0045287c     MSVCRT:MSVCR110.dll
 0005:00000880       __imp____crtSetUnhandledExceptionFilter 00452880     MSVCRT:MSVCR110.dll
 0005:00000884       __imp_?terminate@@YAXXZ    00452884     MSVCRT:MSVCR110.dll
 0005:00000888       __imp____crtTerminateProcess 00452888     MSVCRT:MSVCR110.dll
 0005:0000088c       __imp____crtUnhandledException 0045288c     MSVCRT:MSVCR110.dll
 0005:00000890       __imp___crt_debugger_hook  00452890     MSVCRT:MSVCR110.dll
 0005:00000894       __imp___except_handler4_common 00452894     MSVCRT:MSVCR110.dll
 0005:00000898       __imp___exit               00452898     MSVCRT:MSVCR110.dll
 0005:0000089c       __imp__exit                0045289c     MSVCRT:MSVCR110.dll
 0005:000008a0       __imp____set_app_type      004528a0     MSVCRT:MSVCR110.dll
 0005:000008a4       __imp____getmainargs       004528a4     MSVCRT:MSVCR110.dll
 0005:000008a8       __imp___amsg_exit          004528a8     MSVCRT:MSVCR110.dll
 0005:000008ac       __imp___XcptFilter         004528ac     MSVCRT:MSVCR110.dll
 0005:000008b0       __imp_??1type_info@@UAE@XZ 004528b0     MSVCRT:MSVCR110.dll
 0005:000008b4       __imp___onexit             004528b4     MSVCRT:MSVCR110.dll
 0005:000008b8       __imp____dllonexit         004528b8     MSVCRT:MSVCR110.dll
 0005:000008bc       __imp___calloc_crt         004528bc     MSVCRT:MSVCR110.dll
 0005:000008c0       __imp___unlock             004528c0     MSVCRT:MSVCR110.dll
 0005:000008c4       __imp___lock               004528c4     MSVCRT:MSVCR110.dll
 0005:000008c8       __imp_??_V@YAXPAX@Z        004528c8     MSVCRT:MSVCR110.dll
 0005:000008cc       __imp___vsnprintf          004528cc     MSVCRT:MSVCR110.dll
 0005:000008d0       __imp__tan                 004528d0     MSVCRT:MSVCR110.dll
 0005:000008d4       __imp__sin                 004528d4     MSVCRT:MSVCR110.dll
 0005:000008d8       __imp__cos                 004528d8     MSVCRT:MSVCR110.dll
 0005:000008dc       __imp__ceil                004528dc     MSVCRT:MSVCR110.dll
 0005:000008e0       __imp____CxxFrameHandler3  004528e0     MSVCRT:MSVCR110.dll
 0005:000008e4       __imp___CxxThrowException@8 004528e4     MSVCRT:MSVCR110.dll
 0005:000008e8       __imp_?what@exception@std@@UBEPBDXZ 004528e8     MSVCRT:MSVCR110.dll
 0005:000008ec       __imp_??1bad_cast@std@@UAE@XZ 004528ec     MSVCRT:MSVCR110.dll
 0005:000008f0       __imp_??0bad_cast@std@@QAE@ABV01@@Z 004528f0     MSVCRT:MSVCR110.dll
 0005:000008f4       __imp_??0bad_cast@std@@QAE@PBD@Z 004528f4     MSVCRT:MSVCR110.dll
 0005:000008f8       __imp___wassert            004528f8     MSVCRT:MSVCR110.dll
 0005:000008fc       __imp___unlock_file        004528fc     MSVCRT:MSVCR110.dll
 0005:00000900       __imp___lock_file          00452900     MSVCRT:MSVCR110.dll
 0005:00000904       __imp___purecall           00452904     MSVCRT:MSVCR110.dll
 0005:00000908       __imp_??2@YAPAXI@Z         00452908     MSVCRT:MSVCR110.dll
 0005:0000090c       __imp_??3@YAXPAX@Z         0045290c     MSVCRT:MSVCR110.dll
 0005:00000910       __imp__atoi                00452910     MSVCRT:MSVCR110.dll
 0005:00000914       __imp__calloc              00452914     MSVCRT:MSVCR110.dll
 0005:00000918       __imp__free                00452918     MSVCRT:MSVCR110.dll
 0005:0000091c       __imp__malloc              0045291c     MSVCRT:MSVCR110.dll
 0005:00000920       __imp__realloc             00452920     MSVCRT:MSVCR110.dll
 0005:00000924       __imp__fabs                00452924     MSVCRT:MSVCR110.dll
 0005:00000928       __imp__sqrt                00452928     MSVCRT:MSVCR110.dll
 0005:0000092c       __imp__floor               0045292c     MSVCRT:MSVCR110.dll
 0005:00000930       __imp__memmove             00452930     MSVCRT:MSVCR110.dll
 0005:00000934       __imp__memcpy              00452934     MSVCRT:MSVCR110.dll
 0005:00000938       __imp__memcpy_s            00452938     MSVCRT:MSVCR110.dll
 0005:0000093c       __imp__memcmp              0045293c     MSVCRT:MSVCR110.dll
 0005:00000940       __imp__memset              00452940     MSVCRT:MSVCR110.dll
 0005:00000944       __imp__strlen              00452944     MSVCRT:MSVCR110.dll
 0005:00000948       __imp__strtok              00452948     MSVCRT:MSVCR110.dll
 0005:0000094c       __imp_??0exception@std@@QAE@ABQBDH@Z 0045294c     MSVCRT:MSVCR110.dll
 0005:00000950       __imp_??0exception@std@@QAE@ABV01@@Z 00452950     MSVCRT:MSVCR110.dll
 0005:00000954       __imp__ungetc              00452954     MSVCRT:MSVCR110.dll
 0005:00000958       __imp__fclose              00452958     MSVCRT:MSVCR110.dll
 0005:0000095c       __imp__fflush              0045295c     MSVCRT:MSVCR110.dll
 0005:00000960       __imp__fgetc               00452960     MSVCRT:MSVCR110.dll
 0005:00000964       __imp__fgetpos             00452964     MSVCRT:MSVCR110.dll
 0005:00000968       __imp__fputc               00452968     MSVCRT:MSVCR110.dll
 0005:0000096c       __imp__fsetpos             0045296c     MSVCRT:MSVCR110.dll
 0005:00000970       __imp___fseeki64           00452970     MSVCRT:MSVCR110.dll
 0005:00000974       __imp__fwrite              00452974     MSVCRT:MSVCR110.dll
 0005:00000978       __imp__printf              00452978     MSVCRT:MSVCR110.dll
 0005:0000097c       __imp__setvbuf             0045297c     MSVCRT:MSVCR110.dll
 0005:00000980       \177MSVCR110_NULL_THUNK_DATA 00452980     MSVCRT:MSVCR110.dll
 0005:000009e8       __imp__glPolygonMode@8     004529e8     opengl32:OPENGL32.dll
 0005:000009ec       __imp__glPopMatrix@0       004529ec     opengl32:OPENGL32.dll
 0005:000009f0       __imp__glPushMatrix@0      004529f0     opengl32:OPENGL32.dll
 0005:000009f4       __imp__glShadeModel@4      004529f4     opengl32:OPENGL32.dll
 0005:000009f8       __imp__glTranslatef@12     004529f8     opengl32:OPENGL32.dll
 0005:000009fc       __imp__glVertex3f@12       004529fc     opengl32:OPENGL32.dll
 0005:00000a00       __imp__glClear@4           00452a00     opengl32:OPENGL32.dll
 0005:00000a04       __imp__glClearDepth@8      00452a04     opengl32:OPENGL32.dll
 0005:00000a08       __imp__glLightModelfv@8    00452a08     opengl32:OPENGL32.dll
 0005:00000a0c       __imp__glLightfv@12        00452a0c     opengl32:OPENGL32.dll
 0005:00000a10       __imp__glLineWidth@4       00452a10     opengl32:OPENGL32.dll
 0005:00000a14       __imp__glLoadIdentity@0    00452a14     opengl32:OPENGL32.dll
 0005:00000a18       __imp__glMaterialf@12      00452a18     opengl32:OPENGL32.dll
 0005:00000a1c       __imp__glMaterialfv@12     00452a1c     opengl32:OPENGL32.dll
 0005:00000a20       __imp__glMatrixMode@4      00452a20     opengl32:OPENGL32.dll
 0005:00000a24       __imp__glOrtho@48          00452a24     opengl32:OPENGL32.dll
 0005:00000a28       __imp__glPixelStorei@8     00452a28     opengl32:OPENGL32.dll
 0005:00000a2c       __imp__glPopAttrib@0       00452a2c     opengl32:OPENGL32.dll
 0005:00000a30       __imp__glPushAttrib@4      00452a30     opengl32:OPENGL32.dll
 0005:00000a34       __imp__glRasterPos2i@8     00452a34     opengl32:OPENGL32.dll
 0005:00000a38       __imp__glReadBuffer@4      00452a38     opengl32:OPENGL32.dll
 0005:00000a3c       __imp__glReadPixels@28     00452a3c     opengl32:OPENGL32.dll
 0005:00000a40       __imp__glRotatef@16        00452a40     opengl32:OPENGL32.dll
 0005:00000a44       __imp__glVertex2f@8        00452a44     opengl32:OPENGL32.dll
 0005:00000a48       __imp__glVertex2i@8        00452a48     opengl32:OPENGL32.dll
 0005:00000a4c       __imp__glViewport@16       00452a4c     opengl32:OPENGL32.dll
 0005:00000a50       __imp__glEnd@0             00452a50     opengl32:OPENGL32.dll
 0005:00000a54       __imp__glEnable@4          00452a54     opengl32:OPENGL32.dll
 0005:00000a58       __imp__glDisable@4         00452a58     opengl32:OPENGL32.dll
 0005:00000a5c       __imp__glDepthFunc@4       00452a5c     opengl32:OPENGL32.dll
 0005:00000a60       __imp__glColor4f@16        00452a60     opengl32:OPENGL32.dll
 0005:00000a64       __imp__glColor3f@12        00452a64     opengl32:OPENGL32.dll
 0005:00000a68       __imp__glClearColor@16     00452a68     opengl32:OPENGL32.dll
 0005:00000a6c       __imp__glBlendFunc@8       00452a6c     opengl32:OPENGL32.dll
 0005:00000a70       __imp__glBegin@4           00452a70     opengl32:OPENGL32.dll
 0005:00000a74       \177OPENGL32_NULL_THUNK_DATA 00452a74     opengl32:OPENGL32.dll
 0005:00000abc       __imp__glutPostRedisplay@0 00452abc     glut32:glut32.dll
 0005:00000ac0       __imp__glutKeyboardFunc@4  00452ac0     glut32:glut32.dll
 0005:00000ac4       __imp__glutTimerFunc@12    00452ac4     glut32:glut32.dll
 0005:00000ac8       __imp__glutInit@8          00452ac8     glut32:glut32.dll
 0005:00000acc       __imp__glutInitDisplayMode@4 00452acc     glut32:glut32.dll
 0005:00000ad0       __imp__glutInitWindowSize@8 00452ad0     glut32:glut32.dll
 0005:00000ad4       __imp__glutMainLoop@0      00452ad4     glut32:glut32.dll
 0005:00000ad8       __imp__glutCreateWindow@4  00452ad8     glut32:glut32.dll
 0005:00000adc       __imp__glutSwapBuffers@0   00452adc     glut32:glut32.dll
 0005:00000ae0       __imp__glutDisplayFunc@4   00452ae0     glut32:glut32.dll
 0005:00000ae4       __imp__glutReshapeFunc@4   00452ae4     glut32:glut32.dll
 0005:00000ae8       __imp__glutMouseFunc@4     00452ae8     glut32:glut32.dll
 0005:00000aec       __imp__glutMotionFunc@4    00452aec     glut32:glut32.dll
 0005:00000af0       __imp__glutGetModifiers@0  00452af0     glut32:glut32.dll
 0005:00000af4       __imp__glutBitmapCharacter@8 00452af4     glut32:glut32.dll
 0005:00000af8       __imp__glutBitmapLength@8  00452af8     glut32:glut32.dll
 0005:00000afc       \177glut32_NULL_THUNK_DATA 00452afc     glut32:glut32.dll

 entry point at        0002:00000ff5

