 Fluid3D

 Timestamp is 533d73a0 (Thu Apr 03 10:43:44 2014)

 Preferred load address is 00400000

 Start         Length     Name                   Class
 0001:00000000 00030ef6H .textbss                DATA
 0002:00000000 00065bc0H .text                   CODE
 0002:00065bc0 00002f0eH .text$x                 CODE
 0002:00068ad0 00001957H .text$yc                CODE
 0002:0006a430 000012f8H .text$yd                CODE
 0003:00000000 00000104H .CRT$XCA                DATA
 0003:00000104 00000104H .CRT$XCAA               DATA
 0003:00000208 00000104H .CRT$XCL                DATA
 0003:0000030c 00000191H .CRT$XCU                DATA
 0003:000004a0 00000104H .CRT$XCZ                DATA
 0003:000005a4 00000104H .CRT$XIA                DATA
 0003:000006a8 00000104H .CRT$XIAA               DATA
 0003:000007ac 00000109H .CRT$XIC                DATA
 0003:000008b8 00000104H .CRT$XIY                DATA
 0003:000009bc 00000104H .CRT$XIZ                DATA
 0003:00000ac0 00005b93H .rdata                  DATA
 0003:00006654 00000194H .rdata$debug            DATA
 0003:000067e8 00000c20H .rdata$r                DATA
 0003:00007408 00000104H .rtc$IAA                DATA
 0003:0000750c 00000104H .rtc$IZZ                DATA
 0003:00007610 00000104H .rtc$TAA                DATA
 0003:00007714 00000104H .rtc$TZZ                DATA
 0003:00007818 000024a1H .xdata$x                DATA
 0003:00009cb9 00000000H .edata                  DATA
 0004:00000000 00000caeH .data                   DATA
 0004:00000cb0 00000e70H .bss                    DATA
 0005:00000000 0000008cH .idata$2                DATA
 0005:0000008c 00000014H .idata$3                DATA
 0005:000000a0 000005e4H .idata$4                DATA
 0005:00000684 000005e4H .idata$5                DATA
 0005:00000c68 00002305H .idata$6                DATA
 0006:00000000 00000169H .rsrc$01                DATA
 0006:00000170 000002ccH .rsrc$02                DATA

  Address         Publics by Value              Rva+Base       Lib:Object

 0000:00000000       ___safe_se_handler_count   00000000     <absolute>
 0000:00000000       __except_list              00000000     <absolute>
 0000:00000000       ___safe_se_handler_table   00000000     <absolute>
 0000:00009876       __ldused                   00009876     <absolute>
 0000:00009876       __fltused                  00009876     <absolute>
 0000:00000000       ___ImageBase               00400000     <linker-defined>
 0001:00000000       __enc$textbss$begin        00401000     <linker-defined>
 0001:00030ef6       __enc$textbss$end          00431ef6     <linker-defined>
 0002:000067d0       ??$?0AAPAUParticle@@AAPAU0@@?$pair@PAUParticle@@PAU1@@std@@QAE@AAPAUParticle@@0PAPAX@Z 004387d0 f i fluidsim.obj
 0002:00006820       ??$?0PAUParticle@@PAU0@@?$pair@PAUParticle@@PAU1@@std@@QAE@$$QAU01@PAPAX@Z 00438820 f i fluidsim.obj
 0002:00006880       ??$?0U?$inverse_impl@V?$Matrix@M$02$02$0A@$02$02@Eigen@@@internal@Eigen@@@?$Matrix@M$02$02$0A@$02$02@Eigen@@QAE@ABV?$ReturnByValue@U?$inverse_impl@V?$Matrix@M$02$02$0A@$02$02@Eigen@@@internal@Eigen@@@1@@Z 00438880 f i fluidsim.obj
 0002:000068e0       ??$?0V?$CoeffBasedProduct@ABV?$Matrix@M$02$02$00$02$02@Eigen@@ABV?$Matrix@M$02$02$0A@$02$02@2@$05@Eigen@@@?$Matrix@M$02$02$0A@$02$02@Eigen@@QAE@ABV?$MatrixBase@V?$CoeffBasedProduct@ABV?$Matrix@M$02$02$00$02$02@Eigen@@ABV?$Matrix@M$02$02$0A@$02$02@2@$05@Eigen@@@1@@Z 004388e0 f i fluidsim.obj
 0002:00006950       ??$?0V?$CoeffBasedProduct@ABV?$Matrix@M$02$02$0A@$02$02@Eigen@@$$CBV?$Transpose@V?$Matrix@M$02$02$0A@$02$02@Eigen@@@2@$05@Eigen@@@?$Matrix@M$02$02$00$02$02@Eigen@@QAE@ABV?$MatrixBase@V?$CoeffBasedProduct@ABV?$Matrix@M$02$02$0A@$02$02@Eigen@@$$CBV?$Transpose@V?$Matrix@M$02$02$0A@$02$02@Eigen@@@2@$05@Eigen@@@1@@Z 00438950 f i fluidsim.obj
 0002:000069c0       ??$?0V?$CoeffBasedProduct@ABV?$Matrix@M$02$02$0A@$02$02@Eigen@@$$CBV?$Transpose@V?$Matrix@M$02$02$0A@$02$02@Eigen@@@2@$05@Eigen@@@?$Matrix@M$02$02$0A@$02$02@Eigen@@QAE@ABV?$MatrixBase@V?$CoeffBasedProduct@ABV?$Matrix@M$02$02$0A@$02$02@Eigen@@$$CBV?$Transpose@V?$Matrix@M$02$02$0A@$02$02@Eigen@@@2@$05@Eigen@@@1@@Z 004389c0 f i fluidsim.obj
 0002:00006a30       ??$?0V?$CoeffBasedProduct@ABV?$Matrix@M$02$02$0A@$02$02@Eigen@@$$CBV?$Transpose@V?$Matrix@M$02$02$0A@$02$02@Eigen@@@2@$05@Eigen@@V?$Matrix@M$02$02$0A@$02$02@1@@?$CoeffBasedProduct@ABV?$Matrix@M$02$02$00$02$02@Eigen@@ABV?$Matrix@M$02$02$0A@$02$02@2@$05@Eigen@@QAE@ABV?$CoeffBasedProduct@ABV?$Matrix@M$02$02$0A@$02$02@Eigen@@$$CBV?$Transpose@V?$Matrix@M$02$02$0A@$02$02@Eigen@@@2@$05@1@ABV?$Matrix@M$02$02$0A@$02$02@1@@Z 00438a30 f i fluidsim.obj
 0002:00006ae0       ??$?0V?$CoeffBasedProduct@ABV?$Matrix@M$02$02$0A@$02$02@Eigen@@ABV12@$05@Eigen@@@?$Matrix@M$02$02$0A@$02$02@Eigen@@QAE@ABV?$MatrixBase@V?$CoeffBasedProduct@ABV?$Matrix@M$02$02$0A@$02$02@Eigen@@ABV12@$05@Eigen@@@1@@Z 00438ae0 f i fluidsim.obj
 0002:00006b50       ??$?0V?$CoeffBasedProduct@ABV?$Matrix@M$02$02$0A@$02$02@Eigen@@ABV12@$05@Eigen@@V?$Transpose@V?$Matrix@M$02$02$0A@$02$02@Eigen@@@1@@?$CoeffBasedProduct@ABV?$Matrix@M$02$02$0A@$02$02@Eigen@@$$CBV?$Transpose@V?$Matrix@M$02$02$0A@$02$02@Eigen@@@2@$05@Eigen@@QAE@ABV?$CoeffBasedProduct@ABV?$Matrix@M$02$02$0A@$02$02@Eigen@@ABV12@$05@1@ABV?$Transpose@V?$Matrix@M$02$02$0A@$02$02@Eigen@@@1@@Z 00438b50 f i fluidsim.obj
 0002:00006c00       ??$?0V?$CoeffBasedProduct@ABV?$Matrix@M$02$02$0A@$02$02@Eigen@@V12@$05@Eigen@@V?$Transpose@V?$Matrix@M$02$02$0A@$02$02@Eigen@@@1@@?$CoeffBasedProduct@ABV?$Matrix@M$02$02$0A@$02$02@Eigen@@$$CBV?$Transpose@V?$Matrix@M$02$02$0A@$02$02@Eigen@@@2@$05@Eigen@@QAE@ABV?$CoeffBasedProduct@ABV?$Matrix@M$02$02$0A@$02$02@Eigen@@V12@$05@1@ABV?$Transpose@V?$Matrix@M$02$02$0A@$02$02@Eigen@@@1@@Z 00438c00 f i fluidsim.obj
 0002:00006cb0       ??$?0V?$CwiseNullaryOp@U?$scalar_constant_op@M@internal@Eigen@@V?$Matrix@M$02$00$0A@$02$00@3@@Eigen@@@?$Matrix@M$02$00$0A@$02$00@Eigen@@QAE@ABV?$MatrixBase@V?$CwiseNullaryOp@U?$scalar_constant_op@M@internal@Eigen@@V?$Matrix@M$02$00$0A@$02$00@3@@Eigen@@@1@@Z 00438cb0 f i fluidsim.obj
 0002:00006d20       ??$?0V?$CwiseNullaryOp@U?$scalar_constant_op@M@internal@Eigen@@V?$Matrix@M$02$02$0A@$02$02@3@@Eigen@@@?$Matrix@M$02$02$0A@$02$02@Eigen@@QAE@ABV?$MatrixBase@V?$CwiseNullaryOp@U?$scalar_constant_op@M@internal@Eigen@@V?$Matrix@M$02$02$0A@$02$02@3@@Eigen@@@1@@Z 00438d20 f i fluidsim.obj
 0002:00006d90       ??$?0V?$CwiseNullaryOp@U?$scalar_identity_op@M@internal@Eigen@@V?$Matrix@M$02$02$0A@$02$02@3@@Eigen@@@?$Matrix@M$02$02$0A@$02$02@Eigen@@QAE@ABV?$MatrixBase@V?$CwiseNullaryOp@U?$scalar_identity_op@M@internal@Eigen@@V?$Matrix@M$02$02$0A@$02$02@3@@Eigen@@@1@@Z 00438d90 f i fluidsim.obj
 0002:00006e00       ??$?0V?$CwiseUnaryOp@U?$scalar_multiple_op@M@internal@Eigen@@$$CBV?$Matrix@M$02$00$0A@$02$00@3@@Eigen@@V?$Transpose@V?$Matrix@M$02$00$0A@$02$00@Eigen@@@1@@?$CoeffBasedProduct@$$CBV?$CwiseUnaryOp@U?$scalar_multiple_op@M@internal@Eigen@@$$CBV?$Matrix@M$02$00$0A@$02$00@3@@Eigen@@$$CBV?$Transpose@V?$Matrix@M$02$00$0A@$02$00@Eigen@@@2@$0BAA@@Eigen@@QAE@ABV?$CwiseUnaryOp@U?$scalar_multiple_op@M@internal@Eigen@@$$CBV?$Matrix@M$02$00$0A@$02$00@3@@1@ABV?$Transpose@V?$Matrix@M$02$00$0A@$02$00@Eigen@@@1@@Z 00438e00 f i fluidsim.obj
 0002:00006eb0       ??$?0V?$CwiseUnaryOp@U?$scalar_multiple_op@M@internal@Eigen@@$$CBV?$Matrix@M$02$02$0A@$02$02@3@@Eigen@@V?$Matrix@M$02$00$0A@$02$00@1@@?$CoeffBasedProduct@$$CBV?$CwiseUnaryOp@U?$scalar_multiple_op@M@internal@Eigen@@$$CBV?$Matrix@M$02$02$0A@$02$02@3@@Eigen@@ABV?$Matrix@M$02$00$0A@$02$00@2@$05@Eigen@@QAE@ABV?$CwiseUnaryOp@U?$scalar_multiple_op@M@internal@Eigen@@$$CBV?$Matrix@M$02$02$0A@$02$02@3@@1@ABV?$Matrix@M$02$00$0A@$02$00@1@@Z 00438eb0 f i fluidsim.obj
 0002:00006f60       ??$?0V?$Matrix@M$02$02$0A@$02$02@Eigen@@V01@@?$CoeffBasedProduct@ABV?$Matrix@M$02$02$0A@$02$02@Eigen@@ABV12@$05@Eigen@@QAE@ABV?$Matrix@M$02$02$0A@$02$02@1@0@Z 00438f60 f i fluidsim.obj
 0002:00007000       ??$?0V?$Matrix@M$02$02$0A@$02$02@Eigen@@V?$ReturnByValue@U?$inverse_impl@V?$Matrix@M$02$02$0A@$02$02@Eigen@@@internal@Eigen@@@1@@?$CoeffBasedProduct@ABV?$Matrix@M$02$02$0A@$02$02@Eigen@@V12@$05@Eigen@@QAE@ABV?$Matrix@M$02$02$0A@$02$02@1@ABV?$ReturnByValue@U?$inverse_impl@V?$Matrix@M$02$02$0A@$02$02@Eigen@@@internal@Eigen@@@1@@Z 00439000 f i fluidsim.obj
 0002:000070b0       ??$?0V?$Matrix@M$02$02$0A@$02$02@Eigen@@V?$Transpose@V?$Matrix@M$02$02$0A@$02$02@Eigen@@@1@@?$CoeffBasedProduct@ABV?$Matrix@M$02$02$0A@$02$02@Eigen@@$$CBV?$Transpose@V?$Matrix@M$02$02$0A@$02$02@Eigen@@@2@$05@Eigen@@QAE@ABV?$Matrix@M$02$02$0A@$02$02@1@ABV?$Transpose@V?$Matrix@M$02$02$0A@$02$02@Eigen@@@1@@Z 004390b0 f i fluidsim.obj
 0002:00007160       ??$?4V?$Block@$$CBV?$Matrix@M$02$02$0A@$02$02@Eigen@@$0?0$0?0$0A@@Eigen@@@?$Matrix@M$02$02$0A@$02$02@Eigen@@QAEAAV01@ABV?$MatrixBase@V?$Block@$$CBV?$Matrix@M$02$02$0A@$02$02@Eigen@@$0?0$0?0$0A@@Eigen@@@1@@Z 00439160 f i fluidsim.obj
 0002:00007190       ??$?4V?$CoeffBasedProduct@$$CBV?$CwiseUnaryOp@U?$scalar_multiple_op@M@internal@Eigen@@$$CBV?$Matrix@M$02$00$0A@$02$00@3@@Eigen@@$$CBV?$Transpose@V?$Matrix@M$02$00$0A@$02$00@Eigen@@@2@$0BAA@@Eigen@@@?$MatrixBase@V?$SelfCwiseBinaryOp@U?$scalar_sum_op@M@internal@Eigen@@V?$Matrix@M$02$02$0A@$02$02@3@V?$CoeffBasedProduct@$$CBV?$CwiseUnaryOp@U?$scalar_multiple_op@M@internal@Eigen@@$$CBV?$Matrix@M$02$00$0A@$02$00@3@@Eigen@@$$CBV?$Transpose@V?$Matrix@M$02$00$0A@$02$00@Eigen@@@2@$0BAA@@3@@Eigen@@@Eigen@@QAEAAV?$SelfCwiseBinaryOp@U?$scalar_sum_op@M@internal@Eigen@@V?$Matrix@M$02$02$0A@$02$02@3@V?$CoeffBasedProduct@$$CBV?$CwiseUnaryOp@U?$scalar_multiple_op@M@internal@Eigen@@$$CBV?$Matrix@M$02$00$0A@$02$00@3@@Eigen@@$$CBV?$Transpose@V?$Matrix@M$02$00$0A@$02$00@Eigen@@@2@$0BAA@@3@@1@ABV?$DenseBase@V?$CoeffBasedProduct@$$CBV?$CwiseUnaryOp@U?$scalar_multiple_op@M@internal@Eigen@@$$CBV?$Matrix@M$02$00$0A@$02$00@3@@Eigen@@$$CBV?$Transpose@V?$Matrix@M$02$00$0A@$02$00@Eigen@@@2@$0BAA@@Eigen@@@1@@Z 00439190 f i fluidsim.obj
 0002:000071d0       ??$?4V?$CoeffBasedProduct@ABV?$Matrix@M$02$02$00$02$02@Eigen@@ABV?$Matrix@M$02$02$0A@$02$02@2@$05@Eigen@@@?$Matrix@M$02$02$0A@$02$02@Eigen@@QAEAAV01@ABV?$MatrixBase@V?$CoeffBasedProduct@ABV?$Matrix@M$02$02$00$02$02@Eigen@@ABV?$Matrix@M$02$02$0A@$02$02@2@$05@Eigen@@@1@@Z 004391d0 f i fluidsim.obj
 0002:00007200       ??$?4V?$CoeffBasedProduct@ABV?$Matrix@M$02$02$0A@$02$02@Eigen@@$$CBV?$Transpose@V?$Matrix@M$02$02$0A@$02$02@Eigen@@@2@$05@Eigen@@@?$Matrix@M$02$02$0A@$02$02@Eigen@@QAEAAV01@ABV?$MatrixBase@V?$CoeffBasedProduct@ABV?$Matrix@M$02$02$0A@$02$02@Eigen@@$$CBV?$Transpose@V?$Matrix@M$02$02$0A@$02$02@Eigen@@@2@$05@Eigen@@@1@@Z 00439200 f i fluidsim.obj
 0002:00007230       ??$?4V?$CwiseNullaryOp@U?$scalar_constant_op@M@internal@Eigen@@V?$Matrix@M$02$00$0A@$02$00@3@@Eigen@@@?$MatrixBase@V?$SelfCwiseBinaryOp@U?$scalar_product_op@MM@internal@Eigen@@V?$Block@V?$Matrix@M$02$02$0A@$02$02@Eigen@@$02$00$00@3@V?$CwiseNullaryOp@U?$scalar_constant_op@M@internal@Eigen@@V?$Matrix@M$02$00$0A@$02$00@3@@3@@Eigen@@@Eigen@@QAEAAV?$SelfCwiseBinaryOp@U?$scalar_product_op@MM@internal@Eigen@@V?$Block@V?$Matrix@M$02$02$0A@$02$02@Eigen@@$02$00$00@3@V?$CwiseNullaryOp@U?$scalar_constant_op@M@internal@Eigen@@V?$Matrix@M$02$00$0A@$02$00@3@@3@@1@ABV?$DenseBase@V?$CwiseNullaryOp@U?$scalar_constant_op@M@internal@Eigen@@V?$Matrix@M$02$00$0A@$02$00@3@@Eigen@@@1@@Z 00439230 f i fluidsim.obj
 0002:00007270       ??$?4V?$CwiseNullaryOp@U?$scalar_identity_op@M@internal@Eigen@@V?$Matrix@M$02$02$0A@$02$02@3@@Eigen@@@?$Matrix@M$02$02$0A@$02$02@Eigen@@QAEAAV01@ABV?$MatrixBase@V?$CwiseNullaryOp@U?$scalar_identity_op@M@internal@Eigen@@V?$Matrix@M$02$02$0A@$02$02@3@@Eigen@@@1@@Z 00439270 f i fluidsim.obj
 0002:000072a0       ??$?4V?$CwiseUnaryOp@U?$scalar_multiple_op@M@internal@Eigen@@$$CBV?$Matrix@M$02$00$0A@$02$00@3@@Eigen@@@?$MatrixBase@V?$Block@V?$Matrix@M$02$02$0A@$02$02@Eigen@@$00$02$0A@@Eigen@@@Eigen@@QAEAAV?$Block@V?$Matrix@M$02$02$0A@$02$02@Eigen@@$00$02$0A@@1@ABV?$DenseBase@V?$CwiseUnaryOp@U?$scalar_multiple_op@M@internal@Eigen@@$$CBV?$Matrix@M$02$00$0A@$02$00@3@@Eigen@@@1@@Z 004392a0 f i fluidsim.obj
 0002:000072e0       ??$?4V?$Matrix@M$02$00$0A@$02$00@Eigen@@@?$MatrixBase@V?$SelfCwiseBinaryOp@U?$scalar_difference_op@M@internal@Eigen@@V?$Matrix@M$02$00$0A@$02$00@3@V?$CoeffBasedProduct@$$CBV?$CwiseUnaryOp@U?$scalar_multiple_op@M@internal@Eigen@@$$CBV?$Matrix@M$02$02$0A@$02$02@3@@Eigen@@ABV?$Matrix@M$02$00$0A@$02$00@2@$05@3@@Eigen@@@Eigen@@QAEAAV?$SelfCwiseBinaryOp@U?$scalar_difference_op@M@internal@Eigen@@V?$Matrix@M$02$00$0A@$02$00@3@V?$CoeffBasedProduct@$$CBV?$CwiseUnaryOp@U?$scalar_multiple_op@M@internal@Eigen@@$$CBV?$Matrix@M$02$02$0A@$02$02@3@@Eigen@@ABV?$Matrix@M$02$00$0A@$02$00@2@$05@3@@1@ABV?$DenseBase@V?$Matrix@M$02$00$0A@$02$00@Eigen@@@1@@Z 004392e0 f i fluidsim.obj
 0002:00007320       ??$?5DU?$char_traits@D@std@@@std@@YAAAV?$basic_istream@DU?$char_traits@D@std@@@0@AAV10@AAD@Z 00439320 f i fluidsim.obj
 0002:000074a0       ??$?6$02M@@YAAAV?$basic_ostream@DU?$char_traits@D@std@@@std@@AAV01@ABU?$Vec@$02M@@@Z 004394a0 f i fluidsim.obj
 0002:00007530       ??$?6DU?$char_traits@D@std@@V?$allocator@D@1@@std@@YAAAV?$basic_ostream@DU?$char_traits@D@std@@@0@AAV10@ABV?$basic_string@DU?$char_traits@D@std@@V?$allocator@D@2@@0@@Z 00439530 f i fluidsim.obj
 0002:00007910       ??$?6U?$char_traits@D@std@@@std@@YAAAV?$basic_ostream@DU?$char_traits@D@std@@@0@AAV10@D@Z 00439910 f i fluidsim.obj
 0002:00007d50       ??$?6U?$char_traits@D@std@@@std@@YAAAV?$basic_ostream@DU?$char_traits@D@std@@@0@AAV10@PBD@Z 00439d50 f i fluidsim.obj
 0002:000081e0       ??$?8DU?$char_traits@D@std@@V?$allocator@D@1@@std@@YA_NABV?$basic_string@DU?$char_traits@D@std@@V?$allocator@D@2@@0@0@Z 0043a1e0 f i fluidsim.obj
 0002:00008220       ??$?9DU?$char_traits@D@std@@V?$allocator@D@1@@std@@YA_NABV?$basic_string@DU?$char_traits@D@std@@V?$allocator@D@2@@0@0@Z 0043a220 f i fluidsim.obj
 0002:00008270       ??$?D$02M@@YA?AU?$Vec@$02M@@MABU0@@Z 0043a270 f i fluidsim.obj
 0002:000082f0       ??$?DV?$Matrix@M$02$00$0A@$02$00@Eigen@@@?$MatrixBase@V?$CwiseUnaryOp@U?$scalar_multiple_op@M@internal@Eigen@@$$CBV?$Matrix@M$02$02$0A@$02$02@3@@Eigen@@@Eigen@@QBE?BV?$CoeffBasedProduct@$$CBV?$CwiseUnaryOp@U?$scalar_multiple_op@M@internal@Eigen@@$$CBV?$Matrix@M$02$02$0A@$02$02@3@@Eigen@@ABV?$Matrix@M$02$00$0A@$02$00@2@$05@1@ABV?$MatrixBase@V?$Matrix@M$02$00$0A@$02$00@Eigen@@@1@@Z 0043a2f0 f i fluidsim.obj
 0002:00008330       ??$?DV?$Matrix@M$02$02$0A@$02$02@Eigen@@@?$MatrixBase@V?$CoeffBasedProduct@ABV?$Matrix@M$02$02$0A@$02$02@Eigen@@$$CBV?$Transpose@V?$Matrix@M$02$02$0A@$02$02@Eigen@@@2@$05@Eigen@@@Eigen@@QBE?BV?$CoeffBasedProduct@ABV?$Matrix@M$02$02$00$02$02@Eigen@@ABV?$Matrix@M$02$02$0A@$02$02@2@$05@1@ABV?$MatrixBase@V?$Matrix@M$02$02$0A@$02$02@Eigen@@@1@@Z 0043a330 f i fluidsim.obj
 0002:00008370       ??$?DV?$Matrix@M$02$02$0A@$02$02@Eigen@@@?$MatrixBase@V?$Matrix@M$02$02$0A@$02$02@Eigen@@@Eigen@@QBE?BV?$CoeffBasedProduct@ABV?$Matrix@M$02$02$0A@$02$02@Eigen@@ABV12@$05@1@ABV01@@Z 0043a370 f i fluidsim.obj
 0002:000083b0       ??$?DV?$ReturnByValue@U?$inverse_impl@V?$Matrix@M$02$02$0A@$02$02@Eigen@@@internal@Eigen@@@Eigen@@@?$MatrixBase@V?$Matrix@M$02$02$0A@$02$02@Eigen@@@Eigen@@QBE?BV?$CoeffBasedProduct@ABV?$Matrix@M$02$02$0A@$02$02@Eigen@@V12@$05@1@ABV?$MatrixBase@V?$ReturnByValue@U?$inverse_impl@V?$Matrix@M$02$02$0A@$02$02@Eigen@@@internal@Eigen@@@Eigen@@@1@@Z 0043a3b0 f i fluidsim.obj
 0002:000083f0       ??$?DV?$Transpose@V?$Matrix@M$02$00$0A@$02$00@Eigen@@@Eigen@@@?$MatrixBase@V?$CwiseUnaryOp@U?$scalar_multiple_op@M@internal@Eigen@@$$CBV?$Matrix@M$02$00$0A@$02$00@3@@Eigen@@@Eigen@@QBE?BV?$CoeffBasedProduct@$$CBV?$CwiseUnaryOp@U?$scalar_multiple_op@M@internal@Eigen@@$$CBV?$Matrix@M$02$00$0A@$02$00@3@@Eigen@@$$CBV?$Transpose@V?$Matrix@M$02$00$0A@$02$00@Eigen@@@2@$0BAA@@1@ABV?$MatrixBase@V?$Transpose@V?$Matrix@M$02$00$0A@$02$00@Eigen@@@Eigen@@@1@@Z 0043a3f0 f i fluidsim.obj
 0002:00008430       ??$?DV?$Transpose@V?$Matrix@M$02$02$0A@$02$02@Eigen@@@Eigen@@@?$MatrixBase@V?$CoeffBasedProduct@ABV?$Matrix@M$02$02$0A@$02$02@Eigen@@ABV12@$05@Eigen@@@Eigen@@QBE?BV?$CoeffBasedProduct@ABV?$Matrix@M$02$02$0A@$02$02@Eigen@@$$CBV?$Transpose@V?$Matrix@M$02$02$0A@$02$02@Eigen@@@2@$05@1@ABV?$MatrixBase@V?$Transpose@V?$Matrix@M$02$02$0A@$02$02@Eigen@@@Eigen@@@1@@Z 0043a430 f i fluidsim.obj
 0002:00008470       ??$?DV?$Transpose@V?$Matrix@M$02$02$0A@$02$02@Eigen@@@Eigen@@@?$MatrixBase@V?$CoeffBasedProduct@ABV?$Matrix@M$02$02$0A@$02$02@Eigen@@V12@$05@Eigen@@@Eigen@@QBE?BV?$CoeffBasedProduct@ABV?$Matrix@M$02$02$0A@$02$02@Eigen@@$$CBV?$Transpose@V?$Matrix@M$02$02$0A@$02$02@Eigen@@@2@$05@1@ABV?$MatrixBase@V?$Transpose@V?$Matrix@M$02$02$0A@$02$02@Eigen@@@Eigen@@@1@@Z 0043a470 f i fluidsim.obj
 0002:000084b0       ??$?DV?$Transpose@V?$Matrix@M$02$02$0A@$02$02@Eigen@@@Eigen@@@?$MatrixBase@V?$Matrix@M$02$02$0A@$02$02@Eigen@@@Eigen@@QBE?BV?$CoeffBasedProduct@ABV?$Matrix@M$02$02$0A@$02$02@Eigen@@$$CBV?$Transpose@V?$Matrix@M$02$02$0A@$02$02@Eigen@@@2@$05@1@ABV?$MatrixBase@V?$Transpose@V?$Matrix@M$02$02$0A@$02$02@Eigen@@@Eigen@@@1@@Z 0043a4b0 f i fluidsim.obj
 0002:000084f0       ??$?GV?$Matrix@M$02$02$0A@$02$02@Eigen@@@?$MatrixBase@V?$Matrix@M$02$02$0A@$02$02@Eigen@@@Eigen@@QBE?BV?$CwiseBinaryOp@U?$scalar_difference_op@M@internal@Eigen@@$$CBV?$Matrix@M$02$02$0A@$02$02@3@$$CBV43@@1@ABV01@@Z 0043a4f0 f i fluidsim.obj
 0002:00008540       ??$?HDU?$char_traits@D@std@@V?$allocator@D@1@@std@@YA?AV?$basic_string@DU?$char_traits@D@std@@V?$allocator@D@2@@0@$$QAV10@0@Z 0043a540 f i fluidsim.obj
 0002:00008620       ??$?HDU?$char_traits@D@std@@V?$allocator@D@1@@std@@YA?AV?$basic_string@DU?$char_traits@D@std@@V?$allocator@D@2@@0@$$QAV10@PBD@Z 0043a620 f i fluidsim.obj
 0002:00008680       ??$?RH@?$scalar_constant_op@M@internal@Eigen@@QBE?BMHH@Z 0043a680 f i fluidsim.obj
 0002:000086a0       ??$?RH@?$scalar_identity_op@M@internal@Eigen@@QBE?BMHH@Z 0043a6a0 f i fluidsim.obj
 0002:000086f0       ??$?YV?$CoeffBasedProduct@$$CBV?$CwiseUnaryOp@U?$scalar_multiple_op@M@internal@Eigen@@$$CBV?$Matrix@M$02$00$0A@$02$00@3@@Eigen@@$$CBV?$Transpose@V?$Matrix@M$02$00$0A@$02$00@Eigen@@@2@$0BAA@@Eigen@@@?$MatrixBase@V?$Matrix@M$02$02$0A@$02$02@Eigen@@@Eigen@@QAEAAV?$Matrix@M$02$02$0A@$02$02@1@ABV?$MatrixBase@V?$CoeffBasedProduct@$$CBV?$CwiseUnaryOp@U?$scalar_multiple_op@M@internal@Eigen@@$$CBV?$Matrix@M$02$00$0A@$02$00@3@@Eigen@@$$CBV?$Transpose@V?$Matrix@M$02$00$0A@$02$00@Eigen@@@2@$0BAA@@Eigen@@@1@@Z 0043a6f0 f i fluidsim.obj
 0002:00008750       ??$?ZV?$CoeffBasedProduct@$$CBV?$CwiseUnaryOp@U?$scalar_multiple_op@M@internal@Eigen@@$$CBV?$Matrix@M$02$02$0A@$02$02@3@@Eigen@@ABV?$Matrix@M$02$00$0A@$02$00@2@$05@Eigen@@@?$MatrixBase@V?$Matrix@M$02$00$0A@$02$00@Eigen@@@Eigen@@QAEAAV?$Matrix@M$02$00$0A@$02$00@1@ABV?$MatrixBase@V?$CoeffBasedProduct@$$CBV?$CwiseUnaryOp@U?$scalar_multiple_op@M@internal@Eigen@@$$CBV?$Matrix@M$02$02$0A@$02$02@3@@Eigen@@ABV?$Matrix@M$02$00$0A@$02$00@2@$05@Eigen@@@1@@Z 0043a750 f i fluidsim.obj
 0002:000087b0       ??$NullaryExpr@U?$scalar_constant_op@M@internal@Eigen@@@?$DenseBase@V?$Matrix@M$02$00$0A@$02$00@Eigen@@@Eigen@@SA?BV?$CwiseNullaryOp@U?$scalar_constant_op@M@internal@Eigen@@V?$Matrix@M$02$00$0A@$02$00@3@@1@HHABU?$scalar_constant_op@M@internal@1@@Z 0043a7b0 f i fluidsim.obj
 0002:000087e0       ??$NullaryExpr@U?$scalar_constant_op@M@internal@Eigen@@@?$DenseBase@V?$Matrix@M$02$02$0A@$02$02@Eigen@@@Eigen@@SA?BV?$CwiseNullaryOp@U?$scalar_constant_op@M@internal@Eigen@@V?$Matrix@M$02$02$0A@$02$02@3@@1@HHABU?$scalar_constant_op@M@internal@1@@Z 0043a7e0 f i fluidsim.obj
 0002:00008810       ??$NullaryExpr@U?$scalar_identity_op@M@internal@Eigen@@@?$DenseBase@V?$Matrix@M$02$02$0A@$02$02@Eigen@@@Eigen@@SA?BV?$CwiseNullaryOp@U?$scalar_identity_op@M@internal@Eigen@@V?$Matrix@M$02$02$0A@$02$02@3@@1@HHABU?$scalar_identity_op@M@internal@1@@Z 0043a810 f i fluidsim.obj
 0002:00008840       ??$_Adjust_heap@PAUParticle@@HU1@P6A_NU1@0@Z@std@@YAXPAUParticle@@HH$$QAU1@P6A_NU1@2@Z@Z 0043a840 f i fluidsim.obj
 0002:000089b0       ??$_Allocate@D@std@@YAPADIPAD@Z 0043a9b0 f i fluidsim.obj
 0002:00008a10       ??$_Allocate@U?$Vec@$02I@@@std@@YAPAU?$Vec@$02I@@IPAU1@@Z 0043aa10 f i fluidsim.obj
 0002:00008a70       ??$_Allocate@U?$Vec@$02M@@@std@@YAPAU?$Vec@$02M@@IPAU1@@Z 0043aa70 f i fluidsim.obj
 0002:00008ad0       ??$_Allocate@UParticle@@@std@@YAPAUParticle@@IPAU1@@Z 0043aad0 f i fluidsim.obj
 0002:00008b30       ??$_Destroy_range@U?$_Wrap_alloc@V?$allocator@U?$Vec@$02I@@@std@@@std@@@std@@YAXPAU?$Vec@$02I@@0AAU?$_Wrap_alloc@V?$allocator@U?$Vec@$02I@@@std@@@0@@Z 0043ab30 f i fluidsim.obj
 0002:00008b80       ??$_Destroy_range@U?$_Wrap_alloc@V?$allocator@U?$Vec@$02I@@@std@@@std@@@std@@YAXPAU?$Vec@$02I@@0AAU?$_Wrap_alloc@V?$allocator@U?$Vec@$02I@@@std@@@0@U_Nonscalar_ptr_iterator_tag@0@@Z 0043ab80 f i fluidsim.obj
 0002:00008bc0       ??$_Destroy_range@U?$_Wrap_alloc@V?$allocator@U?$Vec@$02M@@@std@@@std@@@std@@YAXPAU?$Vec@$02M@@0AAU?$_Wrap_alloc@V?$allocator@U?$Vec@$02M@@@std@@@0@@Z 0043abc0 f i fluidsim.obj
 0002:00008c10       ??$_Destroy_range@U?$_Wrap_alloc@V?$allocator@U?$Vec@$02M@@@std@@@std@@@std@@YAXPAU?$Vec@$02M@@0AAU?$_Wrap_alloc@V?$allocator@U?$Vec@$02M@@@std@@@0@U_Nonscalar_ptr_iterator_tag@0@@Z 0043ac10 f i fluidsim.obj
 0002:00008c50       ??$_Destroy_range@U?$_Wrap_alloc@V?$allocator@UParticle@@@std@@@std@@@std@@YAXPAUParticle@@0AAU?$_Wrap_alloc@V?$allocator@UParticle@@@std@@@0@@Z 0043ac50 f i fluidsim.obj
 0002:00008ca0       ??$_Destroy_range@U?$_Wrap_alloc@V?$allocator@UParticle@@@std@@@std@@@std@@YAXPAUParticle@@0AAU?$_Wrap_alloc@V?$allocator@UParticle@@@std@@@0@U_Nonscalar_ptr_iterator_tag@0@@Z 0043aca0 f i fluidsim.obj
 0002:00008ce0       ??$_Dist_type@PAUParticle@@@std@@YAPAHPAUParticle@@@Z 0043ace0 f i fluidsim.obj
 0002:00008d00       ??$_Fgetc@D@std@@YA_NAADPAU_iobuf@@@Z 0043ad00 f i fluidsim.obj
 0002:00008d50       ??$_Fputc@D@std@@YA_NDPAU_iobuf@@@Z 0043ad50 f i fluidsim.obj
 0002:00008da0       ??$_Insertion_sort1@PAUParticle@@P6A_NU1@0@ZU1@@std@@YAXPAUParticle@@0P6A_NU1@1@Z0@Z 0043ada0 f i fluidsim.obj
 0002:00008f70       ??$_Insertion_sort@PAUParticle@@P6A_NU1@0@Z@std@@YAXPAUParticle@@0P6A_NU1@1@Z@Z 0043af70 f i fluidsim.obj
 0002:00008fb0       ??$_Make_heap@PAUParticle@@HU1@P6A_NU1@0@Z@std@@YAXPAUParticle@@0P6A_NU1@1@ZPAH0@Z 0043afb0 f i fluidsim.obj
 0002:00009080       ??$_Med3@PAUParticle@@P6A_NU1@0@Z@std@@YAXPAUParticle@@00P6A_NU1@1@Z@Z 0043b080 f i fluidsim.obj
 0002:00009190       ??$_Median@PAUParticle@@P6A_NU1@0@Z@std@@YAXPAUParticle@@00P6A_NU1@1@Z@Z 0043b190 f i fluidsim.obj
 0002:000092f0       ??$_Move@AAM@std@@YA$$QAMAAM@Z 0043b2f0 f i fluidsim.obj
 0002:00009310       ??$_Move@AAUParticle@@@std@@YA$$QAUParticle@@AAU1@@Z 0043b310 f i fluidsim.obj
 0002:00009330       ??$_Move_backward@PAUParticle@@PAU1@@std@@YAPAUParticle@@PAU1@00@Z 0043b330 f i fluidsim.obj
 0002:00009380       ??$_Move_backward@PAUParticle@@PAU1@@std@@YAPAUParticle@@PAU1@00U_Nonscalar_ptr_iterator_tag@0@@Z 0043b380 f i fluidsim.obj
 0002:000093e0       ??$_Pop_heap@PAUParticle@@HU1@P6A_NU1@0@Z@std@@YAXPAUParticle@@00$$QAU1@P6A_NU1@2@ZPAH@Z 0043b3e0 f i fluidsim.obj
 0002:00009450       ??$_Pop_heap@PAUParticle@@P6A_NU1@0@Z@std@@YAXPAUParticle@@0P6A_NU1@1@Z@Z 0043b450 f i fluidsim.obj
 0002:000094b0       ??$_Pop_heap_0@PAUParticle@@U1@P6A_NU1@0@Z@std@@YAXPAUParticle@@0P6A_NU1@1@Z0@Z 0043b4b0 f i fluidsim.obj
 0002:00009560       ??$_Pow_int@M@@YAMMH@Z     0043b560 f i fluidsim.obj
 0002:00009620       ??$_Ptr_cat@U?$Vec@$02I@@U1@@std@@YA?AU_Nonscalar_ptr_iterator_tag@0@PAU?$Vec@$02I@@0@Z 0043b620 f i fluidsim.obj
 0002:00009640       ??$_Ptr_cat@U?$Vec@$02M@@U1@@std@@YA?AU_Nonscalar_ptr_iterator_tag@0@PAU?$Vec@$02M@@0@Z 0043b640 f i fluidsim.obj
 0002:00009660       ??$_Ptr_cat@UParticle@@U1@@std@@YA?AU_Nonscalar_ptr_iterator_tag@0@PAUParticle@@0@Z 0043b660 f i fluidsim.obj
 0002:00009680       ??$_Push_heap@PAUParticle@@HU1@P6A_NU1@0@Z@std@@YAXPAUParticle@@HH$$QAU1@P6A_NU1@2@Z@Z 0043b680 f i fluidsim.obj
 0002:00009780       ??$_Sort@PAUParticle@@HP6A_NU1@0@Z@std@@YAXPAUParticle@@0HP6A_NU1@1@Z@Z 0043b780 f i fluidsim.obj
 0002:000098f0       ??$_Sort_heap@PAUParticle@@P6A_NU1@0@Z@std@@YAXPAUParticle@@0P6A_NU1@1@Z@Z 0043b8f0 f i fluidsim.obj
 0002:00009950       ??$_Umove@PAU?$Vec@$02I@@@?$vector@U?$Vec@$02I@@V?$allocator@U?$Vec@$02I@@@std@@@std@@IAEPAU?$Vec@$02I@@PAU2@00@Z 0043b950 f i fluidsim.obj
 0002:000099a0       ??$_Umove@PAU?$Vec@$02M@@@?$vector@U?$Vec@$02M@@V?$allocator@U?$Vec@$02M@@@std@@@std@@IAEPAU?$Vec@$02M@@PAU2@00@Z 0043b9a0 f i fluidsim.obj
 0002:000099f0       ??$_Umove@PAUParticle@@@?$vector@UParticle@@V?$allocator@UParticle@@@std@@@std@@IAEPAUParticle@@PAU2@00@Z 0043b9f0 f i fluidsim.obj
 0002:00009a40       ??$_Unchecked@PAUParticle@@@std@@YAPAUParticle@@PAU1@@Z 0043ba40 f i fluidsim.obj
 0002:00009a60       ??$_Unchecked@V?$_Vector_val@U?$_Simple_types@UParticle@@@std@@@std@@@std@@YAPAUParticle@@V?$_Vector_iterator@V?$_Vector_val@U?$_Simple_types@UParticle@@@std@@@std@@@0@@Z 0043ba60 f i fluidsim.obj
 0002:00009a80       ??$_Ungetc@D@std@@YA_NABDPAU_iobuf@@@Z 0043ba80 f i fluidsim.obj
 0002:00009ad0       ??$_Unguarded_partition@PAUParticle@@P6A_NU1@0@Z@std@@YA?AU?$pair@PAUParticle@@PAU1@@0@PAUParticle@@0P6A_NU2@1@Z@Z 0043bad0 f i fluidsim.obj
 0002:00009fe0       ??$_Uninit_move@PAU?$Vec@$02I@@PAU1@V?$allocator@U?$Vec@$02I@@@std@@U1@@std@@YAPAU?$Vec@$02I@@PAU1@00AAU?$_Wrap_alloc@V?$allocator@U?$Vec@$02I@@@std@@@0@0U_Nonscalar_ptr_iterator_tag@0@@Z 0043bfe0 f i fluidsim.obj
 0002:0000a0d0       ??$_Uninit_move@PAU?$Vec@$02M@@PAU1@V?$allocator@U?$Vec@$02M@@@std@@U1@@std@@YAPAU?$Vec@$02M@@PAU1@00AAU?$_Wrap_alloc@V?$allocator@U?$Vec@$02M@@@std@@@0@0U_Nonscalar_ptr_iterator_tag@0@@Z 0043c0d0 f i fluidsim.obj
 0002:0000a1c0       ??$_Uninit_move@PAUParticle@@PAU1@V?$allocator@UParticle@@@std@@U1@@std@@YAPAUParticle@@PAU1@00AAU?$_Wrap_alloc@V?$allocator@UParticle@@@std@@@0@0U_Nonscalar_ptr_iterator_tag@0@@Z 0043c1c0 f i fluidsim.obj
 0002:0000a2c0       ??$_Uninitialized_move@PAU?$Vec@$02I@@PAU1@U?$_Wrap_alloc@V?$allocator@U?$Vec@$02I@@@std@@@std@@@std@@YAPAU?$Vec@$02I@@PAU1@00AAU?$_Wrap_alloc@V?$allocator@U?$Vec@$02I@@@std@@@0@@Z 0043c2c0 f i fluidsim.obj
 0002:0000a320       ??$_Uninitialized_move@PAU?$Vec@$02M@@PAU1@U?$_Wrap_alloc@V?$allocator@U?$Vec@$02M@@@std@@@std@@@std@@YAPAU?$Vec@$02M@@PAU1@00AAU?$_Wrap_alloc@V?$allocator@U?$Vec@$02M@@@std@@@0@@Z 0043c320 f i fluidsim.obj
 0002:0000a380       ??$_Uninitialized_move@PAUParticle@@PAU1@U?$_Wrap_alloc@V?$allocator@UParticle@@@std@@@std@@@std@@YAPAUParticle@@PAU1@00AAU?$_Wrap_alloc@V?$allocator@UParticle@@@std@@@0@@Z 0043c380 f i fluidsim.obj
 0002:0000a3e0       ??$_Val_type@PAU?$Vec@$02I@@@std@@YAPAU?$Vec@$02I@@PAU1@@Z 0043c3e0 f i fluidsim.obj
 0002:0000a400       ??$_Val_type@PAU?$Vec@$02M@@@std@@YAPAU?$Vec@$02M@@PAU1@@Z 0043c400 f i fluidsim.obj
 0002:0000a420       ??$_Val_type@PAUParticle@@@std@@YAPAUParticle@@PAU1@@Z 0043c420 f i fluidsim.obj
 0002:0000a440       ??$_resize_to_match@V?$Block@$$CBV?$Matrix@M$02$02$0A@$02$02@Eigen@@$0?0$0?0$0A@@Eigen@@@?$PlainObjectBase@V?$Matrix@M$02$02$0A@$02$02@Eigen@@@Eigen@@IAEXABU?$EigenBase@V?$Block@$$CBV?$Matrix@M$02$02$0A@$02$02@Eigen@@$0?0$0?0$0A@@Eigen@@@1@@Z 0043c440 f i fluidsim.obj
 0002:0000a470       ??$_resize_to_match@V?$CoeffBasedProduct@$$CBV?$CwiseUnaryOp@U?$scalar_multiple_op@M@internal@Eigen@@$$CBV?$Matrix@M$02$02$0A@$02$02@3@@Eigen@@ABV?$Matrix@M$02$00$0A@$02$00@2@$05@Eigen@@@?$PlainObjectBase@V?$Matrix@M$02$00$0A@$02$00@Eigen@@@Eigen@@IAEXABU?$EigenBase@V?$CoeffBasedProduct@$$CBV?$CwiseUnaryOp@U?$scalar_multiple_op@M@internal@Eigen@@$$CBV?$Matrix@M$02$02$0A@$02$02@3@@Eigen@@ABV?$Matrix@M$02$00$0A@$02$00@2@$05@Eigen@@@1@@Z 0043c470 f i fluidsim.obj
 0002:0000a4a0       ??$_resize_to_match@V?$CoeffBasedProduct@ABV?$Matrix@M$02$02$00$02$02@Eigen@@ABV?$Matrix@M$02$02$0A@$02$02@2@$05@Eigen@@@?$PlainObjectBase@V?$Matrix@M$02$02$0A@$02$02@Eigen@@@Eigen@@IAEXABU?$EigenBase@V?$CoeffBasedProduct@ABV?$Matrix@M$02$02$00$02$02@Eigen@@ABV?$Matrix@M$02$02$0A@$02$02@2@$05@Eigen@@@1@@Z 0043c4a0 f i fluidsim.obj
 0002:0000a4d0       ??$_resize_to_match@V?$CoeffBasedProduct@ABV?$Matrix@M$02$02$0A@$02$02@Eigen@@$$CBV?$Transpose@V?$Matrix@M$02$02$0A@$02$02@Eigen@@@2@$05@Eigen@@@?$PlainObjectBase@V?$Matrix@M$02$02$00$02$02@Eigen@@@Eigen@@IAEXABU?$EigenBase@V?$CoeffBasedProduct@ABV?$Matrix@M$02$02$0A@$02$02@Eigen@@$$CBV?$Transpose@V?$Matrix@M$02$02$0A@$02$02@Eigen@@@2@$05@Eigen@@@1@@Z 0043c4d0 f i fluidsim.obj
 0002:0000a500       ??$_resize_to_match@V?$CoeffBasedProduct@ABV?$Matrix@M$02$02$0A@$02$02@Eigen@@$$CBV?$Transpose@V?$Matrix@M$02$02$0A@$02$02@Eigen@@@2@$05@Eigen@@@?$PlainObjectBase@V?$Matrix@M$02$02$0A@$02$02@Eigen@@@Eigen@@IAEXABU?$EigenBase@V?$CoeffBasedProduct@ABV?$Matrix@M$02$02$0A@$02$02@Eigen@@$$CBV?$Transpose@V?$Matrix@M$02$02$0A@$02$02@Eigen@@@2@$05@Eigen@@@1@@Z 0043c500 f i fluidsim.obj
 0002:0000a530       ??$_resize_to_match@V?$CoeffBasedProduct@ABV?$Matrix@M$02$02$0A@$02$02@Eigen@@ABV12@$05@Eigen@@@?$PlainObjectBase@V?$Matrix@M$02$02$0A@$02$02@Eigen@@@Eigen@@IAEXABU?$EigenBase@V?$CoeffBasedProduct@ABV?$Matrix@M$02$02$0A@$02$02@Eigen@@ABV12@$05@Eigen@@@1@@Z 0043c530 f i fluidsim.obj
 0002:0000a560       ??$_resize_to_match@V?$CoeffBasedProduct@ABV?$Matrix@M$02$02$0A@$02$02@Eigen@@V12@$05@Eigen@@@?$PlainObjectBase@V?$Matrix@M$02$02$0A@$02$02@Eigen@@@Eigen@@IAEXABU?$EigenBase@V?$CoeffBasedProduct@ABV?$Matrix@M$02$02$0A@$02$02@Eigen@@V12@$05@Eigen@@@1@@Z 0043c560 f i fluidsim.obj
 0002:0000a590       ??$_resize_to_match@V?$CwiseNullaryOp@U?$scalar_constant_op@M@internal@Eigen@@V?$Matrix@M$02$00$0A@$02$00@3@@Eigen@@@?$PlainObjectBase@V?$Matrix@M$02$00$0A@$02$00@Eigen@@@Eigen@@IAEXABU?$EigenBase@V?$CwiseNullaryOp@U?$scalar_constant_op@M@internal@Eigen@@V?$Matrix@M$02$00$0A@$02$00@3@@Eigen@@@1@@Z 0043c590 f i fluidsim.obj
 0002:0000a5c0       ??$_resize_to_match@V?$CwiseNullaryOp@U?$scalar_constant_op@M@internal@Eigen@@V?$Matrix@M$02$02$0A@$02$02@3@@Eigen@@@?$PlainObjectBase@V?$Matrix@M$02$02$0A@$02$02@Eigen@@@Eigen@@IAEXABU?$EigenBase@V?$CwiseNullaryOp@U?$scalar_constant_op@M@internal@Eigen@@V?$Matrix@M$02$02$0A@$02$02@3@@Eigen@@@1@@Z 0043c5c0 f i fluidsim.obj
 0002:0000a5f0       ??$_resize_to_match@V?$CwiseNullaryOp@U?$scalar_identity_op@M@internal@Eigen@@V?$Matrix@M$02$02$0A@$02$02@3@@Eigen@@@?$PlainObjectBase@V?$Matrix@M$02$02$0A@$02$02@Eigen@@@Eigen@@IAEXABU?$EigenBase@V?$CwiseNullaryOp@U?$scalar_identity_op@M@internal@Eigen@@V?$Matrix@M$02$02$0A@$02$02@3@@Eigen@@@1@@Z 0043c5f0 f i fluidsim.obj
 0002:0000a620       ??$_resize_to_match@V?$Matrix@M$02$00$0A@$02$00@Eigen@@@?$PlainObjectBase@V?$Matrix@M$02$00$0A@$02$00@Eigen@@@Eigen@@IAEXABU?$EigenBase@V?$Matrix@M$02$00$0A@$02$00@Eigen@@@1@@Z 0043c620 f i fluidsim.obj
 0002:0000a650       ??$_resize_to_match@V?$Matrix@M$02$02$00$02$02@Eigen@@@?$PlainObjectBase@V?$Matrix@M$02$02$0A@$02$02@Eigen@@@Eigen@@IAEXABU?$EigenBase@V?$Matrix@M$02$02$00$02$02@Eigen@@@1@@Z 0043c650 f i fluidsim.obj
 0002:0000a680       ??$_resize_to_match@V?$Matrix@M$02$02$0A@$02$02@Eigen@@@?$PlainObjectBase@V?$Matrix@M$02$02$0A@$02$02@Eigen@@@Eigen@@IAEXABU?$EigenBase@V?$Matrix@M$02$02$0A@$02$02@Eigen@@@1@@Z 0043c680 f i fluidsim.obj
 0002:0000a6b0       ??$_set@V?$Block@$$CBV?$Matrix@M$02$02$0A@$02$02@Eigen@@$0?0$0?0$0A@@Eigen@@@?$PlainObjectBase@V?$Matrix@M$02$02$0A@$02$02@Eigen@@@Eigen@@IAEAAV?$Matrix@M$02$02$0A@$02$02@1@ABV?$DenseBase@V?$Block@$$CBV?$Matrix@M$02$02$0A@$02$02@Eigen@@$0?0$0?0$0A@@Eigen@@@1@@Z 0043c6b0 f i fluidsim.obj
 0002:0000a700       ??$_set@V?$CoeffBasedProduct@ABV?$Matrix@M$02$02$00$02$02@Eigen@@ABV?$Matrix@M$02$02$0A@$02$02@2@$05@Eigen@@@?$PlainObjectBase@V?$Matrix@M$02$02$0A@$02$02@Eigen@@@Eigen@@IAEAAV?$Matrix@M$02$02$0A@$02$02@1@ABV?$DenseBase@V?$CoeffBasedProduct@ABV?$Matrix@M$02$02$00$02$02@Eigen@@ABV?$Matrix@M$02$02$0A@$02$02@2@$05@Eigen@@@1@@Z 0043c700 f i fluidsim.obj
 0002:0000a750       ??$_set@V?$CoeffBasedProduct@ABV?$Matrix@M$02$02$0A@$02$02@Eigen@@$$CBV?$Transpose@V?$Matrix@M$02$02$0A@$02$02@Eigen@@@2@$05@Eigen@@@?$PlainObjectBase@V?$Matrix@M$02$02$0A@$02$02@Eigen@@@Eigen@@IAEAAV?$Matrix@M$02$02$0A@$02$02@1@ABV?$DenseBase@V?$CoeffBasedProduct@ABV?$Matrix@M$02$02$0A@$02$02@Eigen@@$$CBV?$Transpose@V?$Matrix@M$02$02$0A@$02$02@Eigen@@@2@$05@Eigen@@@1@@Z 0043c750 f i fluidsim.obj
 0002:0000a7a0       ??$_set@V?$CwiseNullaryOp@U?$scalar_identity_op@M@internal@Eigen@@V?$Matrix@M$02$02$0A@$02$02@3@@Eigen@@@?$PlainObjectBase@V?$Matrix@M$02$02$0A@$02$02@Eigen@@@Eigen@@IAEAAV?$Matrix@M$02$02$0A@$02$02@1@ABV?$DenseBase@V?$CwiseNullaryOp@U?$scalar_identity_op@M@internal@Eigen@@V?$Matrix@M$02$02$0A@$02$02@3@@Eigen@@@1@@Z 0043c7a0 f i fluidsim.obj
 0002:0000a7f0       ??$_set@V?$Matrix@M$02$02$0A@$02$02@Eigen@@@?$PlainObjectBase@V?$Matrix@M$02$02$0A@$02$02@Eigen@@@Eigen@@IAEAAV?$Matrix@M$02$02$0A@$02$02@1@ABV?$DenseBase@V?$Matrix@M$02$02$0A@$02$02@Eigen@@@1@@Z 0043c7f0 f i fluidsim.obj
 0002:0000a840       ??$_set_noalias@V?$Block@$$CBV?$Matrix@M$02$02$0A@$02$02@Eigen@@$0?0$0?0$0A@@Eigen@@@?$PlainObjectBase@V?$Matrix@M$02$02$0A@$02$02@Eigen@@@Eigen@@IAEAAV?$Matrix@M$02$02$0A@$02$02@1@ABV?$DenseBase@V?$Block@$$CBV?$Matrix@M$02$02$0A@$02$02@Eigen@@$0?0$0?0$0A@@Eigen@@@1@@Z 0043c840 f i fluidsim.obj
 0002:0000a880       ??$_set_noalias@V?$CoeffBasedProduct@ABV?$Matrix@M$02$02$00$02$02@Eigen@@ABV?$Matrix@M$02$02$0A@$02$02@2@$05@Eigen@@@?$PlainObjectBase@V?$Matrix@M$02$02$0A@$02$02@Eigen@@@Eigen@@IAEAAV?$Matrix@M$02$02$0A@$02$02@1@ABV?$DenseBase@V?$CoeffBasedProduct@ABV?$Matrix@M$02$02$00$02$02@Eigen@@ABV?$Matrix@M$02$02$0A@$02$02@2@$05@Eigen@@@1@@Z 0043c880 f i fluidsim.obj
 0002:0000a8c0       ??$_set_noalias@V?$CoeffBasedProduct@ABV?$Matrix@M$02$02$0A@$02$02@Eigen@@$$CBV?$Transpose@V?$Matrix@M$02$02$0A@$02$02@Eigen@@@2@$05@Eigen@@@?$PlainObjectBase@V?$Matrix@M$02$02$00$02$02@Eigen@@@Eigen@@IAEAAV?$Matrix@M$02$02$00$02$02@1@ABV?$DenseBase@V?$CoeffBasedProduct@ABV?$Matrix@M$02$02$0A@$02$02@Eigen@@$$CBV?$Transpose@V?$Matrix@M$02$02$0A@$02$02@Eigen@@@2@$05@Eigen@@@1@@Z 0043c8c0 f i fluidsim.obj
 0002:0000a900       ??$_set_noalias@V?$CoeffBasedProduct@ABV?$Matrix@M$02$02$0A@$02$02@Eigen@@$$CBV?$Transpose@V?$Matrix@M$02$02$0A@$02$02@Eigen@@@2@$05@Eigen@@@?$PlainObjectBase@V?$Matrix@M$02$02$0A@$02$02@Eigen@@@Eigen@@IAEAAV?$Matrix@M$02$02$0A@$02$02@1@ABV?$DenseBase@V?$CoeffBasedProduct@ABV?$Matrix@M$02$02$0A@$02$02@Eigen@@$$CBV?$Transpose@V?$Matrix@M$02$02$0A@$02$02@Eigen@@@2@$05@Eigen@@@1@@Z 0043c900 f i fluidsim.obj
 0002:0000a940       ??$_set_noalias@V?$CoeffBasedProduct@ABV?$Matrix@M$02$02$0A@$02$02@Eigen@@ABV12@$05@Eigen@@@?$PlainObjectBase@V?$Matrix@M$02$02$0A@$02$02@Eigen@@@Eigen@@IAEAAV?$Matrix@M$02$02$0A@$02$02@1@ABV?$DenseBase@V?$CoeffBasedProduct@ABV?$Matrix@M$02$02$0A@$02$02@Eigen@@ABV12@$05@Eigen@@@1@@Z 0043c940 f i fluidsim.obj
 0002:0000a980       ??$_set_noalias@V?$CwiseNullaryOp@U?$scalar_constant_op@M@internal@Eigen@@V?$Matrix@M$02$00$0A@$02$00@3@@Eigen@@@?$PlainObjectBase@V?$Matrix@M$02$00$0A@$02$00@Eigen@@@Eigen@@IAEAAV?$Matrix@M$02$00$0A@$02$00@1@ABV?$DenseBase@V?$CwiseNullaryOp@U?$scalar_constant_op@M@internal@Eigen@@V?$Matrix@M$02$00$0A@$02$00@3@@Eigen@@@1@@Z 0043c980 f i fluidsim.obj
 0002:0000a9c0       ??$_set_noalias@V?$CwiseNullaryOp@U?$scalar_constant_op@M@internal@Eigen@@V?$Matrix@M$02$02$0A@$02$02@3@@Eigen@@@?$PlainObjectBase@V?$Matrix@M$02$02$0A@$02$02@Eigen@@@Eigen@@IAEAAV?$Matrix@M$02$02$0A@$02$02@1@ABV?$DenseBase@V?$CwiseNullaryOp@U?$scalar_constant_op@M@internal@Eigen@@V?$Matrix@M$02$02$0A@$02$02@3@@Eigen@@@1@@Z 0043c9c0 f i fluidsim.obj
 0002:0000aa00       ??$_set_noalias@V?$CwiseNullaryOp@U?$scalar_identity_op@M@internal@Eigen@@V?$Matrix@M$02$02$0A@$02$02@3@@Eigen@@@?$PlainObjectBase@V?$Matrix@M$02$02$0A@$02$02@Eigen@@@Eigen@@IAEAAV?$Matrix@M$02$02$0A@$02$02@1@ABV?$DenseBase@V?$CwiseNullaryOp@U?$scalar_identity_op@M@internal@Eigen@@V?$Matrix@M$02$02$0A@$02$02@3@@Eigen@@@1@@Z 0043ca00 f i fluidsim.obj
 0002:0000aa40       ??$_set_noalias@V?$Matrix@M$02$00$0A@$02$00@Eigen@@@?$PlainObjectBase@V?$Matrix@M$02$00$0A@$02$00@Eigen@@@Eigen@@IAEAAV?$Matrix@M$02$00$0A@$02$00@1@ABV?$DenseBase@V?$Matrix@M$02$00$0A@$02$00@Eigen@@@1@@Z 0043ca40 f i fluidsim.obj
 0002:0000aa80       ??$_set_noalias@V?$Matrix@M$02$02$00$02$02@Eigen@@@?$PlainObjectBase@V?$Matrix@M$02$02$0A@$02$02@Eigen@@@Eigen@@IAEAAV?$Matrix@M$02$02$0A@$02$02@1@ABV?$DenseBase@V?$Matrix@M$02$02$00$02$02@Eigen@@@1@@Z 0043ca80 f i fluidsim.obj
 0002:0000aac0       ??$_set_noalias@V?$Matrix@M$02$02$0A@$02$02@Eigen@@@?$PlainObjectBase@V?$Matrix@M$02$02$0A@$02$02@Eigen@@@Eigen@@IAEAAV?$Matrix@M$02$02$0A@$02$02@1@ABV?$DenseBase@V?$Matrix@M$02$02$0A@$02$02@Eigen@@@1@@Z 0043cac0 f i fluidsim.obj
 0002:0000ab00       ??$_set_selector@V?$Block@$$CBV?$Matrix@M$02$02$0A@$02$02@Eigen@@$0?0$0?0$0A@@Eigen@@@?$PlainObjectBase@V?$Matrix@M$02$02$0A@$02$02@Eigen@@@Eigen@@IAEXABV?$Block@$$CBV?$Matrix@M$02$02$0A@$02$02@Eigen@@$0?0$0?0$0A@@1@ABUfalse_type@internal@1@@Z 0043cb00 f i fluidsim.obj
 0002:0000ab30       ??$_set_selector@V?$CoeffBasedProduct@ABV?$Matrix@M$02$02$00$02$02@Eigen@@ABV?$Matrix@M$02$02$0A@$02$02@2@$05@Eigen@@@?$PlainObjectBase@V?$Matrix@M$02$02$0A@$02$02@Eigen@@@Eigen@@IAEXABV?$CoeffBasedProduct@ABV?$Matrix@M$02$02$00$02$02@Eigen@@ABV?$Matrix@M$02$02$0A@$02$02@2@$05@1@ABUtrue_type@internal@1@@Z 0043cb30 f i fluidsim.obj
 0002:0000ab90       ??$_set_selector@V?$CoeffBasedProduct@ABV?$Matrix@M$02$02$0A@$02$02@Eigen@@$$CBV?$Transpose@V?$Matrix@M$02$02$0A@$02$02@Eigen@@@2@$05@Eigen@@@?$PlainObjectBase@V?$Matrix@M$02$02$0A@$02$02@Eigen@@@Eigen@@IAEXABV?$CoeffBasedProduct@ABV?$Matrix@M$02$02$0A@$02$02@Eigen@@$$CBV?$Transpose@V?$Matrix@M$02$02$0A@$02$02@Eigen@@@2@$05@1@ABUtrue_type@internal@1@@Z 0043cb90 f i fluidsim.obj
 0002:0000abf0       ??$_set_selector@V?$CwiseNullaryOp@U?$scalar_identity_op@M@internal@Eigen@@V?$Matrix@M$02$02$0A@$02$02@3@@Eigen@@@?$PlainObjectBase@V?$Matrix@M$02$02$0A@$02$02@Eigen@@@Eigen@@IAEXABV?$CwiseNullaryOp@U?$scalar_identity_op@M@internal@Eigen@@V?$Matrix@M$02$02$0A@$02$02@3@@1@ABUfalse_type@internal@1@@Z 0043cbf0 f i fluidsim.obj
 0002:0000ac40       ??$_set_selector@V?$Matrix@M$02$02$0A@$02$02@Eigen@@@?$PlainObjectBase@V?$Matrix@M$02$02$0A@$02$02@Eigen@@@Eigen@@IAEXABV?$Matrix@M$02$02$0A@$02$02@1@ABUfalse_type@internal@1@@Z 0043cc40 f i fluidsim.obj
 0002:0000ac70       ??$abs2@M@numext@Eigen@@YAMABM@Z 0043cc70 f i fluidsim.obj
 0002:0000aca0       ??$addressof@$$CBU?$Vec@$02M@@@std@@YAPBU?$Vec@$02M@@ABU1@@Z 0043cca0 f i fluidsim.obj
 0002:0000acc0       ??$addressof@D@std@@YAPADAAD@Z 0043ccc0 f i fluidsim.obj
 0002:0000ace0       ??$addressof@U?$Vec@$02I@@@std@@YAPAU?$Vec@$02I@@AAU1@@Z 0043cce0 f i fluidsim.obj
 0002:0000ad00       ??$addressof@UParticle@@@std@@YAPAUParticle@@AAU1@@Z 0043cd00 f i fluidsim.obj
 0002:0000ad20       ??$applyOnTheLeft@M@?$MatrixBase@V?$Matrix@M$01$01$0A@$01$01@Eigen@@@Eigen@@QAEXHHABV?$JacobiRotation@M@1@@Z 0043cd20 f i fluidsim.obj
 0002:0000ad80       ??$applyOnTheLeft@M@?$MatrixBase@V?$Matrix@M$02$02$0A@$02$02@Eigen@@@Eigen@@QAEXHHABV?$JacobiRotation@M@1@@Z 0043cd80 f i fluidsim.obj
 0002:0000ade0       ??$applyOnTheRight@M@?$MatrixBase@V?$Matrix@M$02$02$0A@$02$02@Eigen@@@Eigen@@QAEXHHABV?$JacobiRotation@M@1@@Z 0043cde0 f i fluidsim.obj
 0002:0000ae50       ??$apply_rotation_in_the_plane@V?$Block@V?$Matrix@M$01$01$0A@$01$01@Eigen@@$00$01$0A@@Eigen@@V12@M@internal@Eigen@@YAXAAV?$Block@V?$Matrix@M$01$01$0A@$01$01@Eigen@@$00$01$0A@@1@0ABV?$JacobiRotation@M@1@@Z 0043ce50 f i fluidsim.obj
 0002:0000bbf0       ??$apply_rotation_in_the_plane@V?$Block@V?$Matrix@M$02$02$0A@$02$02@Eigen@@$00$02$0A@@Eigen@@V12@M@internal@Eigen@@YAXAAV?$Block@V?$Matrix@M$02$02$0A@$02$02@Eigen@@$00$02$0A@@1@0ABV?$JacobiRotation@M@1@@Z 0043dbf0 f i fluidsim.obj
 0002:0000c990       ??$apply_rotation_in_the_plane@V?$Block@V?$Matrix@M$02$02$0A@$02$02@Eigen@@$02$00$00@Eigen@@V12@M@internal@Eigen@@YAXAAV?$Block@V?$Matrix@M$02$02$0A@$02$02@Eigen@@$02$00$00@1@0ABV?$JacobiRotation@M@1@@Z 0043e990 f i fluidsim.obj
 0002:0000d730       ??$bilerp@MM@@YAMABM000MM@Z 0043f730 f i fluidsim.obj
 0002:0000d7b0       ??$bruteforce_det3_helper@V?$Matrix@M$02$02$0A@$02$02@Eigen@@@internal@Eigen@@YA?BMABV?$MatrixBase@V?$Matrix@M$02$02$0A@$02$02@Eigen@@@1@HHH@Z 0043f7b0 f i fluidsim.obj
 0002:0000d860       ??$checkTransposeAliasing@V?$Block@$$CBV?$Matrix@M$02$02$0A@$02$02@Eigen@@$0?0$0?0$0A@@Eigen@@@?$DenseBase@V?$Matrix@M$02$02$0A@$02$02@Eigen@@@Eigen@@IBEXABV?$Block@$$CBV?$Matrix@M$02$02$0A@$02$02@Eigen@@$0?0$0?0$0A@@1@@Z 0043f860 f i fluidsim.obj
 0002:0000d8a0       ??$checkTransposeAliasing@V?$Block@V?$Matrix@M$02$02$0A@$02$02@Eigen@@$02$00$00@Eigen@@@?$DenseBase@V?$SwapWrapper@V?$Block@V?$Matrix@M$02$02$0A@$02$02@Eigen@@$02$00$00@Eigen@@@Eigen@@@Eigen@@IBEXABV?$Block@V?$Matrix@M$02$02$0A@$02$02@Eigen@@$02$00$00@1@@Z 0043f8a0 f i fluidsim.obj
 0002:0000d8e0       ??$checkTransposeAliasing@V?$CoeffBasedProduct@$$CBV?$CwiseUnaryOp@U?$scalar_multiple_op@M@internal@Eigen@@$$CBV?$Matrix@M$02$00$0A@$02$00@3@@Eigen@@$$CBV?$Transpose@V?$Matrix@M$02$00$0A@$02$00@Eigen@@@2@$0BAA@@Eigen@@@?$DenseBase@V?$SelfCwiseBinaryOp@U?$scalar_sum_op@M@internal@Eigen@@V?$Matrix@M$02$02$0A@$02$02@3@V?$CoeffBasedProduct@$$CBV?$CwiseUnaryOp@U?$scalar_multiple_op@M@internal@Eigen@@$$CBV?$Matrix@M$02$00$0A@$02$00@3@@Eigen@@$$CBV?$Transpose@V?$Matrix@M$02$00$0A@$02$00@Eigen@@@2@$0BAA@@3@@Eigen@@@Eigen@@IBEXABV?$CoeffBasedProduct@$$CBV?$CwiseUnaryOp@U?$scalar_multiple_op@M@internal@Eigen@@$$CBV?$Matrix@M$02$00$0A@$02$00@3@@Eigen@@$$CBV?$Transpose@V?$Matrix@M$02$00$0A@$02$00@Eigen@@@2@$0BAA@@1@@Z 0043f8e0 f i fluidsim.obj
 0002:0000d920       ??$checkTransposeAliasing@V?$CoeffBasedProduct@$$CBV?$CwiseUnaryOp@U?$scalar_multiple_op@M@internal@Eigen@@$$CBV?$Matrix@M$02$02$0A@$02$02@3@@Eigen@@ABV?$Matrix@M$02$00$0A@$02$00@2@$05@Eigen@@@?$DenseBase@V?$Matrix@M$02$00$0A@$02$00@Eigen@@@Eigen@@IBEXABV?$CoeffBasedProduct@$$CBV?$CwiseUnaryOp@U?$scalar_multiple_op@M@internal@Eigen@@$$CBV?$Matrix@M$02$02$0A@$02$02@3@@Eigen@@ABV?$Matrix@M$02$00$0A@$02$00@2@$05@1@@Z 0043f920 f i fluidsim.obj
 0002:0000d960       ??$checkTransposeAliasing@V?$CoeffBasedProduct@ABV?$Matrix@M$02$02$00$02$02@Eigen@@ABV?$Matrix@M$02$02$0A@$02$02@2@$05@Eigen@@@?$DenseBase@V?$Matrix@M$02$02$0A@$02$02@Eigen@@@Eigen@@IBEXABV?$CoeffBasedProduct@ABV?$Matrix@M$02$02$00$02$02@Eigen@@ABV?$Matrix@M$02$02$0A@$02$02@2@$05@1@@Z 0043f960 f i fluidsim.obj
 0002:0000d9a0       ??$checkTransposeAliasing@V?$CoeffBasedProduct@ABV?$Matrix@M$02$02$0A@$02$02@Eigen@@$$CBV?$Transpose@V?$Matrix@M$02$02$0A@$02$02@Eigen@@@2@$05@Eigen@@@?$DenseBase@V?$Matrix@M$02$02$00$02$02@Eigen@@@Eigen@@IBEXABV?$CoeffBasedProduct@ABV?$Matrix@M$02$02$0A@$02$02@Eigen@@$$CBV?$Transpose@V?$Matrix@M$02$02$0A@$02$02@Eigen@@@2@$05@1@@Z 0043f9a0 f i fluidsim.obj
 0002:0000d9e0       ??$checkTransposeAliasing@V?$CoeffBasedProduct@ABV?$Matrix@M$02$02$0A@$02$02@Eigen@@$$CBV?$Transpose@V?$Matrix@M$02$02$0A@$02$02@Eigen@@@2@$05@Eigen@@@?$DenseBase@V?$Matrix@M$02$02$0A@$02$02@Eigen@@@Eigen@@IBEXABV?$CoeffBasedProduct@ABV?$Matrix@M$02$02$0A@$02$02@Eigen@@$$CBV?$Transpose@V?$Matrix@M$02$02$0A@$02$02@Eigen@@@2@$05@1@@Z 0043f9e0 f i fluidsim.obj
 0002:0000da20       ??$checkTransposeAliasing@V?$CoeffBasedProduct@ABV?$Matrix@M$02$02$0A@$02$02@Eigen@@ABV12@$05@Eigen@@@?$DenseBase@V?$Matrix@M$02$02$0A@$02$02@Eigen@@@Eigen@@IBEXABV?$CoeffBasedProduct@ABV?$Matrix@M$02$02$0A@$02$02@Eigen@@ABV12@$05@1@@Z 0043fa20 f i fluidsim.obj
 0002:0000da60       ??$checkTransposeAliasing@V?$CoeffBasedProduct@ABV?$Matrix@M$02$02$0A@$02$02@Eigen@@V12@$05@Eigen@@@?$DenseBase@V?$Matrix@M$02$02$0A@$02$02@Eigen@@@Eigen@@IBEXABV?$CoeffBasedProduct@ABV?$Matrix@M$02$02$0A@$02$02@Eigen@@V12@$05@1@@Z 0043fa60 f i fluidsim.obj
 0002:0000daa0       ??$checkTransposeAliasing@V?$CwiseNullaryOp@U?$scalar_constant_op@M@internal@Eigen@@V?$Matrix@M$02$00$0A@$02$00@3@@Eigen@@@?$DenseBase@V?$Matrix@M$02$00$0A@$02$00@Eigen@@@Eigen@@IBEXABV?$CwiseNullaryOp@U?$scalar_constant_op@M@internal@Eigen@@V?$Matrix@M$02$00$0A@$02$00@3@@1@@Z 0043faa0 f i fluidsim.obj
 0002:0000dae0       ??$checkTransposeAliasing@V?$CwiseNullaryOp@U?$scalar_constant_op@M@internal@Eigen@@V?$Matrix@M$02$00$0A@$02$00@3@@Eigen@@@?$DenseBase@V?$SelfCwiseBinaryOp@U?$scalar_product_op@MM@internal@Eigen@@V?$Block@V?$Matrix@M$02$02$0A@$02$02@Eigen@@$02$00$00@3@V?$CwiseNullaryOp@U?$scalar_constant_op@M@internal@Eigen@@V?$Matrix@M$02$00$0A@$02$00@3@@3@@Eigen@@@Eigen@@IBEXABV?$CwiseNullaryOp@U?$scalar_constant_op@M@internal@Eigen@@V?$Matrix@M$02$00$0A@$02$00@3@@1@@Z 0043fae0 f i fluidsim.obj
 0002:0000db20       ??$checkTransposeAliasing@V?$CwiseNullaryOp@U?$scalar_constant_op@M@internal@Eigen@@V?$Matrix@M$02$02$0A@$02$02@3@@Eigen@@@?$DenseBase@V?$Matrix@M$02$02$0A@$02$02@Eigen@@@Eigen@@IBEXABV?$CwiseNullaryOp@U?$scalar_constant_op@M@internal@Eigen@@V?$Matrix@M$02$02$0A@$02$02@3@@1@@Z 0043fb20 f i fluidsim.obj
 0002:0000db60       ??$checkTransposeAliasing@V?$CwiseNullaryOp@U?$scalar_identity_op@M@internal@Eigen@@V?$Matrix@M$02$02$0A@$02$02@3@@Eigen@@@?$DenseBase@V?$Matrix@M$02$02$0A@$02$02@Eigen@@@Eigen@@IBEXABV?$CwiseNullaryOp@U?$scalar_identity_op@M@internal@Eigen@@V?$Matrix@M$02$02$0A@$02$02@3@@1@@Z 0043fb60 f i fluidsim.obj
 0002:0000dba0       ??$checkTransposeAliasing@V?$Matrix@M$02$00$0A@$02$00@Eigen@@@?$DenseBase@V?$Matrix@M$02$00$0A@$02$00@Eigen@@@Eigen@@IBEXABV?$Matrix@M$02$00$0A@$02$00@1@@Z 0043fba0 f i fluidsim.obj
 0002:0000dbe0       ??$checkTransposeAliasing@V?$Matrix@M$02$00$0A@$02$00@Eigen@@@?$DenseBase@V?$SelfCwiseBinaryOp@U?$scalar_difference_op@M@internal@Eigen@@V?$Matrix@M$02$00$0A@$02$00@3@V?$CoeffBasedProduct@$$CBV?$CwiseUnaryOp@U?$scalar_multiple_op@M@internal@Eigen@@$$CBV?$Matrix@M$02$02$0A@$02$02@3@@Eigen@@ABV?$Matrix@M$02$00$0A@$02$00@2@$05@3@@Eigen@@@Eigen@@IBEXABV?$Matrix@M$02$00$0A@$02$00@1@@Z 0043fbe0 f i fluidsim.obj
 0002:0000dc20       ??$checkTransposeAliasing@V?$Matrix@M$02$02$00$02$02@Eigen@@@?$DenseBase@V?$Matrix@M$02$02$0A@$02$02@Eigen@@@Eigen@@IBEXABV?$Matrix@M$02$02$00$02$02@1@@Z 0043fc20 f i fluidsim.obj
 0002:0000dc60       ??$checkTransposeAliasing@V?$Matrix@M$02$02$0A@$02$02@Eigen@@@?$DenseBase@V?$Matrix@M$02$02$0A@$02$02@Eigen@@@Eigen@@IBEXABV?$Matrix@M$02$02$0A@$02$02@1@@Z 0043fc60 f i fluidsim.obj
 0002:0000dca0       ??$checkTransposeAliasing@V?$Transpose@$$CBV?$CwiseUnaryOp@U?$scalar_multiple_op@M@internal@Eigen@@$$CBV?$Matrix@M$02$00$0A@$02$00@3@@Eigen@@@Eigen@@@?$DenseBase@V?$Block@V?$Matrix@M$02$02$0A@$02$02@Eigen@@$00$02$0A@@Eigen@@@Eigen@@IBEXABV?$Transpose@$$CBV?$CwiseUnaryOp@U?$scalar_multiple_op@M@internal@Eigen@@$$CBV?$Matrix@M$02$00$0A@$02$00@3@@Eigen@@@1@@Z 0043fca0 f i fluidsim.obj
 0002:0000dce0       ??$clamp@M@@YAMMMM@Z       0043fce0 f i fluidsim.obj
 0002:0000dd30       ??$cofactor_3x3@V?$Matrix@M$02$02$0A@$02$02@Eigen@@$00$00@internal@Eigen@@YAMABV?$Matrix@M$02$02$0A@$02$02@1@@Z 0043fd30 f i fluidsim.obj
 0002:0000ddc0       ??$cofactor_3x3@V?$Matrix@M$02$02$0A@$02$02@Eigen@@$00$01@internal@Eigen@@YAMABV?$Matrix@M$02$02$0A@$02$02@1@@Z 0043fdc0 f i fluidsim.obj
 0002:0000de50       ??$cofactor_3x3@V?$Matrix@M$02$02$0A@$02$02@Eigen@@$00$0A@@internal@Eigen@@YAMABV?$Matrix@M$02$02$0A@$02$02@1@@Z 0043fe50 f i fluidsim.obj
 0002:0000dee0       ??$cofactor_3x3@V?$Matrix@M$02$02$0A@$02$02@Eigen@@$01$00@internal@Eigen@@YAMABV?$Matrix@M$02$02$0A@$02$02@1@@Z 0043fee0 f i fluidsim.obj
 0002:0000df70       ??$cofactor_3x3@V?$Matrix@M$02$02$0A@$02$02@Eigen@@$01$01@internal@Eigen@@YAMABV?$Matrix@M$02$02$0A@$02$02@1@@Z 0043ff70 f i fluidsim.obj
 0002:0000e000       ??$cofactor_3x3@V?$Matrix@M$02$02$0A@$02$02@Eigen@@$01$0A@@internal@Eigen@@YAMABV?$Matrix@M$02$02$0A@$02$02@1@@Z 00440000 f i fluidsim.obj
 0002:0000e090       ??$cofactor_3x3@V?$Matrix@M$02$02$0A@$02$02@Eigen@@$0A@$00@internal@Eigen@@YAMABV?$Matrix@M$02$02$0A@$02$02@1@@Z 00440090 f i fluidsim.obj
 0002:0000e120       ??$cofactor_3x3@V?$Matrix@M$02$02$0A@$02$02@Eigen@@$0A@$01@internal@Eigen@@YAMABV?$Matrix@M$02$02$0A@$02$02@1@@Z 00440120 f i fluidsim.obj
 0002:0000e1b0       ??$cofactor_3x3@V?$Matrix@M$02$02$0A@$02$02@Eigen@@$0A@$0A@@internal@Eigen@@YAMABV?$Matrix@M$02$02$0A@$02$02@1@@Z 004401b0 f i fluidsim.obj
 0002:0000e240       ??$compute_inverse_size3_helper@V?$Matrix@M$02$02$0A@$02$02@Eigen@@V12@@internal@Eigen@@YAXABV?$Matrix@M$02$02$0A@$02$02@1@ABMABV?$Matrix@M$02$00$0A@$02$00@1@AAV21@@Z 00440240 f i fluidsim.obj
 0002:0000e440       ??$conj@M@numext@Eigen@@YAMABM@Z 00440440 f i fluidsim.obj
 0002:0000e470       ??$const_cast_ptr@M@internal@Eigen@@YAPAMPBM@Z 00440470 f i fluidsim.obj
 0002:0000e490       ??$construct@PADAAPAD@?$_Wrap_alloc@V?$allocator@D@std@@@std@@QAEXPAPADAAPAD@Z 00440490 f i fluidsim.obj
 0002:0000e4d0       ??$construct@PADAAPAD@?$allocator@D@std@@QAEXPAPADAAPAD@Z 004404d0 f i fluidsim.obj
 0002:0000e580       ??$construct@PADAAPAD@?$allocator_traits@V?$allocator@D@std@@@std@@SAXAAV?$allocator@D@1@PAPADAAPAD@Z 00440580 f i fluidsim.obj
 0002:0000e5c0       ??$construct@U?$Vec@$02I@@U1@@?$_Wrap_alloc@V?$allocator@U?$Vec@$02I@@@std@@@std@@QAEXPAU?$Vec@$02I@@$$QAU2@@Z 004405c0 f i fluidsim.obj
 0002:0000e600       ??$construct@U?$Vec@$02I@@U1@@?$allocator@U?$Vec@$02I@@@std@@QAEXPAU?$Vec@$02I@@$$QAU2@@Z 00440600 f i fluidsim.obj
 0002:0000e6c0       ??$construct@U?$Vec@$02I@@U1@@?$allocator_traits@V?$allocator@U?$Vec@$02I@@@std@@@std@@SAXAAV?$allocator@U?$Vec@$02I@@@1@PAU?$Vec@$02I@@$$QAU3@@Z 004406c0 f i fluidsim.obj
 0002:0000e700       ??$construct@U?$Vec@$02M@@AAU1@@?$_Wrap_alloc@V?$allocator@U?$Vec@$02M@@@std@@@std@@QAEXPAU?$Vec@$02M@@AAU2@@Z 00440700 f i fluidsim.obj
 0002:0000e740       ??$construct@U?$Vec@$02M@@AAU1@@?$allocator@U?$Vec@$02M@@@std@@QAEXPAU?$Vec@$02M@@AAU2@@Z 00440740 f i fluidsim.obj
 0002:0000e800       ??$construct@U?$Vec@$02M@@AAU1@@?$allocator_traits@V?$allocator@U?$Vec@$02M@@@std@@@std@@SAXAAV?$allocator@U?$Vec@$02M@@@1@PAU?$Vec@$02M@@AAU3@@Z 00440800 f i fluidsim.obj
 0002:0000e840       ??$construct@U?$Vec@$02M@@ABU1@@?$_Wrap_alloc@V?$allocator@U?$Vec@$02M@@@std@@@std@@QAEXPAU?$Vec@$02M@@ABU2@@Z 00440840 f i fluidsim.obj
 0002:0000e880       ??$construct@U?$Vec@$02M@@ABU1@@?$allocator_traits@V?$allocator@U?$Vec@$02M@@@std@@@std@@SAXAAV?$allocator@U?$Vec@$02M@@@1@PAU?$Vec@$02M@@ABU3@@Z 00440880 f i fluidsim.obj
 0002:0000e8c0       ??$construct@U?$Vec@$02M@@U1@@?$_Wrap_alloc@V?$allocator@U?$Vec@$02M@@@std@@@std@@QAEXPAU?$Vec@$02M@@$$QAU2@@Z 004408c0 f i fluidsim.obj
 0002:0000e900       ??$construct@U?$Vec@$02M@@U1@@?$allocator@U?$Vec@$02M@@@std@@QAEXPAU?$Vec@$02M@@$$QAU2@@Z 00440900 f i fluidsim.obj
 0002:0000e9c0       ??$construct@U?$Vec@$02M@@U1@@?$allocator_traits@V?$allocator@U?$Vec@$02M@@@std@@@std@@SAXAAV?$allocator@U?$Vec@$02M@@@1@PAU?$Vec@$02M@@$$QAU3@@Z 004409c0 f i fluidsim.obj
 0002:0000ea00       ??$construct@UParticle@@U1@@?$_Wrap_alloc@V?$allocator@UParticle@@@std@@@std@@QAEXPAUParticle@@$$QAU2@@Z 00440a00 f i fluidsim.obj
 0002:0000ea40       ??$construct@UParticle@@U1@@?$allocator@UParticle@@@std@@QAEXPAUParticle@@$$QAU2@@Z 00440a40 f i fluidsim.obj
 0002:0000eb00       ??$construct@UParticle@@U1@@?$allocator_traits@V?$allocator@UParticle@@@std@@@std@@SAXAAV?$allocator@UParticle@@@1@PAUParticle@@$$QAU3@@Z 00440b00 f i fluidsim.obj
 0002:0000eb40       ??$copyCoeff@V?$Block@$$CBV?$Matrix@M$02$02$0A@$02$02@Eigen@@$0?0$0?0$0A@@Eigen@@@?$DenseCoeffsBase@V?$Matrix@M$02$02$0A@$02$02@Eigen@@$00@Eigen@@QAEXHHABV?$DenseBase@V?$Block@$$CBV?$Matrix@M$02$02$0A@$02$02@Eigen@@$0?0$0?0$0A@@Eigen@@@1@@Z 00440b40 f i fluidsim.obj
 0002:0000eba0       ??$copyCoeff@V?$Block@V?$Matrix@M$02$02$0A@$02$02@Eigen@@$02$00$00@Eigen@@@?$SwapWrapper@V?$Block@V?$Matrix@M$02$02$0A@$02$02@Eigen@@$02$00$00@Eigen@@@Eigen@@QAEXHABV?$DenseBase@V?$Block@V?$Matrix@M$02$02$0A@$02$02@Eigen@@$02$00$00@Eigen@@@1@@Z 00440ba0 f i fluidsim.obj
 0002:0000ec30       ??$copyCoeff@V?$CoeffBasedProduct@$$CBV?$CwiseUnaryOp@U?$scalar_multiple_op@M@internal@Eigen@@$$CBV?$Matrix@M$02$00$0A@$02$00@3@@Eigen@@$$CBV?$Transpose@V?$Matrix@M$02$00$0A@$02$00@Eigen@@@2@$0BAA@@Eigen@@@?$SelfCwiseBinaryOp@U?$scalar_sum_op@M@internal@Eigen@@V?$Matrix@M$02$02$0A@$02$02@3@V?$CoeffBasedProduct@$$CBV?$CwiseUnaryOp@U?$scalar_multiple_op@M@internal@Eigen@@$$CBV?$Matrix@M$02$00$0A@$02$00@3@@Eigen@@$$CBV?$Transpose@V?$Matrix@M$02$00$0A@$02$00@Eigen@@@2@$0BAA@@3@@Eigen@@QAEXHHABV?$DenseBase@V?$CoeffBasedProduct@$$CBV?$CwiseUnaryOp@U?$scalar_multiple_op@M@internal@Eigen@@$$CBV?$Matrix@M$02$00$0A@$02$00@3@@Eigen@@$$CBV?$Transpose@V?$Matrix@M$02$00$0A@$02$00@Eigen@@@2@$0BAA@@Eigen@@@1@@Z 00440c30 f i fluidsim.obj
 0002:0000ecb0       ??$copyCoeff@V?$CoeffBasedProduct@$$CBV?$CwiseUnaryOp@U?$scalar_multiple_op@M@internal@Eigen@@$$CBV?$Matrix@M$02$02$0A@$02$02@3@@Eigen@@ABV?$Matrix@M$02$00$0A@$02$00@2@$05@Eigen@@@?$DenseCoeffsBase@V?$Matrix@M$02$00$0A@$02$00@Eigen@@$00@Eigen@@QAEXHHABV?$DenseBase@V?$CoeffBasedProduct@$$CBV?$CwiseUnaryOp@U?$scalar_multiple_op@M@internal@Eigen@@$$CBV?$Matrix@M$02$02$0A@$02$02@3@@Eigen@@ABV?$Matrix@M$02$00$0A@$02$00@2@$05@Eigen@@@1@@Z 00440cb0 f i fluidsim.obj
 0002:0000ed10       ??$copyCoeff@V?$CoeffBasedProduct@ABV?$Matrix@M$02$02$00$02$02@Eigen@@ABV?$Matrix@M$02$02$0A@$02$02@2@$05@Eigen@@@?$DenseCoeffsBase@V?$Matrix@M$02$02$0A@$02$02@Eigen@@$00@Eigen@@QAEXHHABV?$DenseBase@V?$CoeffBasedProduct@ABV?$Matrix@M$02$02$00$02$02@Eigen@@ABV?$Matrix@M$02$02$0A@$02$02@2@$05@Eigen@@@1@@Z 00440d10 f i fluidsim.obj
 0002:0000ed70       ??$copyCoeff@V?$CoeffBasedProduct@ABV?$Matrix@M$02$02$0A@$02$02@Eigen@@$$CBV?$Transpose@V?$Matrix@M$02$02$0A@$02$02@Eigen@@@2@$05@Eigen@@@?$DenseCoeffsBase@V?$Matrix@M$02$02$00$02$02@Eigen@@$00@Eigen@@QAEXHHABV?$DenseBase@V?$CoeffBasedProduct@ABV?$Matrix@M$02$02$0A@$02$02@Eigen@@$$CBV?$Transpose@V?$Matrix@M$02$02$0A@$02$02@Eigen@@@2@$05@Eigen@@@1@@Z 00440d70 f i fluidsim.obj
 0002:0000edd0       ??$copyCoeff@V?$CoeffBasedProduct@ABV?$Matrix@M$02$02$0A@$02$02@Eigen@@$$CBV?$Transpose@V?$Matrix@M$02$02$0A@$02$02@Eigen@@@2@$05@Eigen@@@?$DenseCoeffsBase@V?$Matrix@M$02$02$0A@$02$02@Eigen@@$00@Eigen@@QAEXHHABV?$DenseBase@V?$CoeffBasedProduct@ABV?$Matrix@M$02$02$0A@$02$02@Eigen@@$$CBV?$Transpose@V?$Matrix@M$02$02$0A@$02$02@Eigen@@@2@$05@Eigen@@@1@@Z 00440dd0 f i fluidsim.obj
 0002:0000ee30       ??$copyCoeff@V?$CoeffBasedProduct@ABV?$Matrix@M$02$02$0A@$02$02@Eigen@@ABV12@$05@Eigen@@@?$DenseCoeffsBase@V?$Matrix@M$02$02$0A@$02$02@Eigen@@$00@Eigen@@QAEXHHABV?$DenseBase@V?$CoeffBasedProduct@ABV?$Matrix@M$02$02$0A@$02$02@Eigen@@ABV12@$05@Eigen@@@1@@Z 00440e30 f i fluidsim.obj
 0002:0000ee90       ??$copyCoeff@V?$CoeffBasedProduct@ABV?$Matrix@M$02$02$0A@$02$02@Eigen@@V12@$05@Eigen@@@?$DenseCoeffsBase@V?$Matrix@M$02$02$0A@$02$02@Eigen@@$00@Eigen@@QAEXHHABV?$DenseBase@V?$CoeffBasedProduct@ABV?$Matrix@M$02$02$0A@$02$02@Eigen@@V12@$05@Eigen@@@1@@Z 00440e90 f i fluidsim.obj
 0002:0000eef0       ??$copyCoeff@V?$CwiseNullaryOp@U?$scalar_constant_op@M@internal@Eigen@@V?$Matrix@M$02$00$0A@$02$00@3@@Eigen@@@?$DenseCoeffsBase@V?$Matrix@M$02$00$0A@$02$00@Eigen@@$00@Eigen@@QAEXHABV?$DenseBase@V?$CwiseNullaryOp@U?$scalar_constant_op@M@internal@Eigen@@V?$Matrix@M$02$00$0A@$02$00@3@@Eigen@@@1@@Z 00440ef0 f i fluidsim.obj
 0002:0000ef50       ??$copyCoeff@V?$CwiseNullaryOp@U?$scalar_constant_op@M@internal@Eigen@@V?$Matrix@M$02$00$0A@$02$00@3@@Eigen@@@?$SelfCwiseBinaryOp@U?$scalar_product_op@MM@internal@Eigen@@V?$Block@V?$Matrix@M$02$02$0A@$02$02@Eigen@@$02$00$00@3@V?$CwiseNullaryOp@U?$scalar_constant_op@M@internal@Eigen@@V?$Matrix@M$02$00$0A@$02$00@3@@3@@Eigen@@QAEXHABV?$DenseBase@V?$CwiseNullaryOp@U?$scalar_constant_op@M@internal@Eigen@@V?$Matrix@M$02$00$0A@$02$00@3@@Eigen@@@1@@Z 00440f50 f i fluidsim.obj
 0002:0000efc0       ??$copyCoeff@V?$CwiseNullaryOp@U?$scalar_constant_op@M@internal@Eigen@@V?$Matrix@M$02$02$0A@$02$02@3@@Eigen@@@?$DenseCoeffsBase@V?$Matrix@M$02$02$0A@$02$02@Eigen@@$00@Eigen@@QAEXHABV?$DenseBase@V?$CwiseNullaryOp@U?$scalar_constant_op@M@internal@Eigen@@V?$Matrix@M$02$02$0A@$02$02@3@@Eigen@@@1@@Z 00440fc0 f i fluidsim.obj
 0002:0000f020       ??$copyCoeff@V?$CwiseNullaryOp@U?$scalar_identity_op@M@internal@Eigen@@V?$Matrix@M$02$02$0A@$02$02@3@@Eigen@@@?$DenseCoeffsBase@V?$Matrix@M$02$02$0A@$02$02@Eigen@@$00@Eigen@@QAEXHHABV?$DenseBase@V?$CwiseNullaryOp@U?$scalar_identity_op@M@internal@Eigen@@V?$Matrix@M$02$02$0A@$02$02@3@@Eigen@@@1@@Z 00441020 f i fluidsim.obj
 0002:0000f080       ??$copyCoeff@V?$Matrix@M$02$00$0A@$02$00@Eigen@@@?$DenseCoeffsBase@V?$Matrix@M$02$00$0A@$02$00@Eigen@@$00@Eigen@@QAEXHABV?$DenseBase@V?$Matrix@M$02$00$0A@$02$00@Eigen@@@1@@Z 00441080 f i fluidsim.obj
 0002:0000f0e0       ??$copyCoeff@V?$Matrix@M$02$00$0A@$02$00@Eigen@@@?$SelfCwiseBinaryOp@U?$scalar_difference_op@M@internal@Eigen@@V?$Matrix@M$02$00$0A@$02$00@3@V?$CoeffBasedProduct@$$CBV?$CwiseUnaryOp@U?$scalar_multiple_op@M@internal@Eigen@@$$CBV?$Matrix@M$02$02$0A@$02$02@3@@Eigen@@ABV?$Matrix@M$02$00$0A@$02$00@2@$05@3@@Eigen@@QAEXHABV?$DenseBase@V?$Matrix@M$02$00$0A@$02$00@Eigen@@@1@@Z 004410e0 f i fluidsim.obj
 0002:0000f150       ??$copyCoeff@V?$Matrix@M$02$02$00$02$02@Eigen@@@?$DenseCoeffsBase@V?$Matrix@M$02$02$0A@$02$02@Eigen@@$00@Eigen@@QAEXHHABV?$DenseBase@V?$Matrix@M$02$02$00$02$02@Eigen@@@1@@Z 00441150 f i fluidsim.obj
 0002:0000f1b0       ??$copyCoeff@V?$Matrix@M$02$02$0A@$02$02@Eigen@@@?$DenseCoeffsBase@V?$Matrix@M$02$02$0A@$02$02@Eigen@@$00@Eigen@@QAEXHABV?$DenseBase@V?$Matrix@M$02$02$0A@$02$02@Eigen@@@1@@Z 004411b0 f i fluidsim.obj
 0002:0000f210       ??$copyCoeff@V?$Transpose@$$CBV?$CwiseUnaryOp@U?$scalar_multiple_op@M@internal@Eigen@@$$CBV?$Matrix@M$02$00$0A@$02$00@3@@Eigen@@@Eigen@@@?$DenseCoeffsBase@V?$Block@V?$Matrix@M$02$02$0A@$02$02@Eigen@@$00$02$0A@@Eigen@@$00@Eigen@@QAEXHABV?$DenseBase@V?$Transpose@$$CBV?$CwiseUnaryOp@U?$scalar_multiple_op@M@internal@Eigen@@$$CBV?$Matrix@M$02$00$0A@$02$00@3@@Eigen@@@Eigen@@@1@@Z 00441210 f i fluidsim.obj
 0002:0000f270       ??$copyCoeffByOuterInner@V?$Block@$$CBV?$Matrix@M$02$02$0A@$02$02@Eigen@@$0?0$0?0$0A@@Eigen@@@?$DenseCoeffsBase@V?$Matrix@M$02$02$0A@$02$02@Eigen@@$00@Eigen@@QAEXHHABV?$DenseBase@V?$Block@$$CBV?$Matrix@M$02$02$0A@$02$02@Eigen@@$0?0$0?0$0A@@Eigen@@@1@@Z 00441270 f i fluidsim.obj
 0002:0000f2e0       ??$copyCoeffByOuterInner@V?$CoeffBasedProduct@$$CBV?$CwiseUnaryOp@U?$scalar_multiple_op@M@internal@Eigen@@$$CBV?$Matrix@M$02$00$0A@$02$00@3@@Eigen@@$$CBV?$Transpose@V?$Matrix@M$02$00$0A@$02$00@Eigen@@@2@$0BAA@@Eigen@@@?$DenseCoeffsBase@V?$SelfCwiseBinaryOp@U?$scalar_sum_op@M@internal@Eigen@@V?$Matrix@M$02$02$0A@$02$02@3@V?$CoeffBasedProduct@$$CBV?$CwiseUnaryOp@U?$scalar_multiple_op@M@internal@Eigen@@$$CBV?$Matrix@M$02$00$0A@$02$00@3@@Eigen@@$$CBV?$Transpose@V?$Matrix@M$02$00$0A@$02$00@Eigen@@@2@$0BAA@@3@@Eigen@@$00@Eigen@@QAEXHHABV?$DenseBase@V?$CoeffBasedProduct@$$CBV?$CwiseUnaryOp@U?$scalar_multiple_op@M@internal@Eigen@@$$CBV?$Matrix@M$02$00$0A@$02$00@3@@Eigen@@$$CBV?$Transpose@V?$Matrix@M$02$00$0A@$02$00@Eigen@@@2@$0BAA@@Eigen@@@1@@Z 004412e0 f i fluidsim.obj
 0002:0000f350       ??$copyCoeffByOuterInner@V?$CoeffBasedProduct@$$CBV?$CwiseUnaryOp@U?$scalar_multiple_op@M@internal@Eigen@@$$CBV?$Matrix@M$02$02$0A@$02$02@3@@Eigen@@ABV?$Matrix@M$02$00$0A@$02$00@2@$05@Eigen@@@?$DenseCoeffsBase@V?$Matrix@M$02$00$0A@$02$00@Eigen@@$00@Eigen@@QAEXHHABV?$DenseBase@V?$CoeffBasedProduct@$$CBV?$CwiseUnaryOp@U?$scalar_multiple_op@M@internal@Eigen@@$$CBV?$Matrix@M$02$02$0A@$02$02@3@@Eigen@@ABV?$Matrix@M$02$00$0A@$02$00@2@$05@Eigen@@@1@@Z 00441350 f i fluidsim.obj
 0002:0000f3c0       ??$copyCoeffByOuterInner@V?$CoeffBasedProduct@ABV?$Matrix@M$02$02$00$02$02@Eigen@@ABV?$Matrix@M$02$02$0A@$02$02@2@$05@Eigen@@@?$DenseCoeffsBase@V?$Matrix@M$02$02$0A@$02$02@Eigen@@$00@Eigen@@QAEXHHABV?$DenseBase@V?$CoeffBasedProduct@ABV?$Matrix@M$02$02$00$02$02@Eigen@@ABV?$Matrix@M$02$02$0A@$02$02@2@$05@Eigen@@@1@@Z 004413c0 f i fluidsim.obj
 0002:0000f430       ??$copyCoeffByOuterInner@V?$CoeffBasedProduct@ABV?$Matrix@M$02$02$0A@$02$02@Eigen@@$$CBV?$Transpose@V?$Matrix@M$02$02$0A@$02$02@Eigen@@@2@$05@Eigen@@@?$DenseCoeffsBase@V?$Matrix@M$02$02$00$02$02@Eigen@@$00@Eigen@@QAEXHHABV?$DenseBase@V?$CoeffBasedProduct@ABV?$Matrix@M$02$02$0A@$02$02@Eigen@@$$CBV?$Transpose@V?$Matrix@M$02$02$0A@$02$02@Eigen@@@2@$05@Eigen@@@1@@Z 00441430 f i fluidsim.obj
 0002:0000f4a0       ??$copyCoeffByOuterInner@V?$CoeffBasedProduct@ABV?$Matrix@M$02$02$0A@$02$02@Eigen@@$$CBV?$Transpose@V?$Matrix@M$02$02$0A@$02$02@Eigen@@@2@$05@Eigen@@@?$DenseCoeffsBase@V?$Matrix@M$02$02$0A@$02$02@Eigen@@$00@Eigen@@QAEXHHABV?$DenseBase@V?$CoeffBasedProduct@ABV?$Matrix@M$02$02$0A@$02$02@Eigen@@$$CBV?$Transpose@V?$Matrix@M$02$02$0A@$02$02@Eigen@@@2@$05@Eigen@@@1@@Z 004414a0 f i fluidsim.obj
 0002:0000f510       ??$copyCoeffByOuterInner@V?$CoeffBasedProduct@ABV?$Matrix@M$02$02$0A@$02$02@Eigen@@ABV12@$05@Eigen@@@?$DenseCoeffsBase@V?$Matrix@M$02$02$0A@$02$02@Eigen@@$00@Eigen@@QAEXHHABV?$DenseBase@V?$CoeffBasedProduct@ABV?$Matrix@M$02$02$0A@$02$02@Eigen@@ABV12@$05@Eigen@@@1@@Z 00441510 f i fluidsim.obj
 0002:0000f580       ??$copyCoeffByOuterInner@V?$CoeffBasedProduct@ABV?$Matrix@M$02$02$0A@$02$02@Eigen@@V12@$05@Eigen@@@?$DenseCoeffsBase@V?$Matrix@M$02$02$0A@$02$02@Eigen@@$00@Eigen@@QAEXHHABV?$DenseBase@V?$CoeffBasedProduct@ABV?$Matrix@M$02$02$0A@$02$02@Eigen@@V12@$05@Eigen@@@1@@Z 00441580 f i fluidsim.obj
 0002:0000f5f0       ??$copyCoeffByOuterInner@V?$CwiseNullaryOp@U?$scalar_identity_op@M@internal@Eigen@@V?$Matrix@M$02$02$0A@$02$02@3@@Eigen@@@?$DenseCoeffsBase@V?$Matrix@M$02$02$0A@$02$02@Eigen@@$00@Eigen@@QAEXHHABV?$DenseBase@V?$CwiseNullaryOp@U?$scalar_identity_op@M@internal@Eigen@@V?$Matrix@M$02$02$0A@$02$02@3@@Eigen@@@1@@Z 004415f0 f i fluidsim.obj
 0002:0000f660       ??$copyCoeffByOuterInner@V?$Matrix@M$02$02$00$02$02@Eigen@@@?$DenseCoeffsBase@V?$Matrix@M$02$02$0A@$02$02@Eigen@@$00@Eigen@@QAEXHHABV?$DenseBase@V?$Matrix@M$02$02$00$02$02@Eigen@@@1@@Z 00441660 f i fluidsim.obj
 0002:0000f6d0       ??$cwiseProduct@V?$Block@$$CBV?$Matrix@M$02$02$0A@$02$02@Eigen@@$02$00$00@Eigen@@@?$MatrixBase@V?$Matrix@M$02$00$0A@$02$00@Eigen@@@Eigen@@QBE?BV?$CwiseBinaryOp@U?$scalar_product_op@MM@internal@Eigen@@$$CBV?$Matrix@M$02$00$0A@$02$00@3@$$CBV?$Block@$$CBV?$Matrix@M$02$02$0A@$02$02@Eigen@@$02$00$00@3@@1@ABV?$MatrixBase@V?$Block@$$CBV?$Matrix@M$02$02$0A@$02$02@Eigen@@$02$00$00@Eigen@@@1@@Z 004416d0 f i fluidsim.obj
 0002:0000f720       ??$destroy@PAD@?$_Wrap_alloc@V?$allocator@D@std@@@std@@QAEXPAPAD@Z 00441720 f i fluidsim.obj
 0002:0000f750       ??$destroy@PAD@?$allocator@D@std@@QAEXPAPAD@Z 00441750 f i fluidsim.obj
 0002:0000f770       ??$destroy@PAD@?$allocator_traits@V?$allocator@D@std@@@std@@SAXAAV?$allocator@D@1@PAPAD@Z 00441770 f i fluidsim.obj
 0002:0000f7a0       ??$destroy@U?$Vec@$02I@@@?$_Wrap_alloc@V?$allocator@U?$Vec@$02I@@@std@@@std@@QAEXPAU?$Vec@$02I@@@Z 004417a0 f i fluidsim.obj
 0002:0000f7d0       ??$destroy@U?$Vec@$02I@@@?$allocator@U?$Vec@$02I@@@std@@QAEXPAU?$Vec@$02I@@@Z 004417d0 f i fluidsim.obj
 0002:0000f7f0       ??$destroy@U?$Vec@$02I@@@?$allocator_traits@V?$allocator@U?$Vec@$02I@@@std@@@std@@SAXAAV?$allocator@U?$Vec@$02I@@@1@PAU?$Vec@$02I@@@Z 004417f0 f i fluidsim.obj
 0002:0000f820       ??$destroy@U?$Vec@$02M@@@?$_Wrap_alloc@V?$allocator@U?$Vec@$02M@@@std@@@std@@QAEXPAU?$Vec@$02M@@@Z 00441820 f i fluidsim.obj
 0002:0000f850       ??$destroy@U?$Vec@$02M@@@?$allocator@U?$Vec@$02M@@@std@@QAEXPAU?$Vec@$02M@@@Z 00441850 f i fluidsim.obj
 0002:0000f870       ??$destroy@U?$Vec@$02M@@@?$allocator_traits@V?$allocator@U?$Vec@$02M@@@std@@@std@@SAXAAV?$allocator@U?$Vec@$02M@@@1@PAU?$Vec@$02M@@@Z 00441870 f i fluidsim.obj
 0002:0000f8a0       ??$destroy@UParticle@@@?$_Wrap_alloc@V?$allocator@UParticle@@@std@@@std@@QAEXPAUParticle@@@Z 004418a0 f i fluidsim.obj
 0002:0000f8d0       ??$destroy@UParticle@@@?$allocator@UParticle@@@std@@QAEXPAUParticle@@@Z 004418d0 f i fluidsim.obj
 0002:0000f8f0       ??$destroy@UParticle@@@?$allocator_traits@V?$allocator@UParticle@@@std@@@std@@SAXAAV?$allocator@UParticle@@@1@PAUParticle@@@Z 004418f0 f i fluidsim.obj
 0002:0000f920       ??$dot@$02M@@YAMABU?$Vec@$02M@@0@Z 00441920 f i fluidsim.obj
 0002:0000f9b0       ??$evalTo@V?$Matrix@M$02$02$0A@$02$02@Eigen@@@?$ReturnByValue@U?$inverse_impl@V?$Matrix@M$02$02$0A@$02$02@Eigen@@@internal@Eigen@@@Eigen@@QBEXAAV?$Matrix@M$02$02$0A@$02$02@1@@Z 004419b0 f i fluidsim.obj
 0002:0000f9e0       ??$evalTo@V?$Matrix@M$02$02$0A@$02$02@Eigen@@@?$inverse_impl@V?$Matrix@M$02$02$0A@$02$02@Eigen@@@internal@Eigen@@QBEXAAV?$Matrix@M$02$02$0A@$02$02@2@@Z 004419e0 f i fluidsim.obj
 0002:0000fa80       ??$extract_data@V?$Block@V?$Matrix@M$02$02$0A@$02$02@Eigen@@$00$02$0A@@Eigen@@@internal@Eigen@@YAPBMABV?$Block@V?$Matrix@M$02$02$0A@$02$02@Eigen@@$00$02$0A@@1@@Z 00441a80 f i fluidsim.obj
 0002:0000fab0       ??$extract_data@V?$Matrix@M$02$02$0A@$02$02@Eigen@@@internal@Eigen@@YAPBMABV?$Matrix@M$02$02$0A@$02$02@1@@Z 00441ab0 f i fluidsim.obj
 0002:0000fae0       ??$extract_data@V?$Transpose@$$CBV?$CwiseUnaryOp@U?$scalar_multiple_op@M@internal@Eigen@@$$CBV?$Matrix@M$02$00$0A@$02$00@3@@Eigen@@@Eigen@@@internal@Eigen@@YAPBMABV?$Transpose@$$CBV?$CwiseUnaryOp@U?$scalar_multiple_op@M@internal@Eigen@@$$CBV?$Matrix@M$02$00$0A@$02$00@3@@Eigen@@@1@@Z 00441ae0 f i fluidsim.obj
 0002:0000fb80       ??$forward@AAPAD@std@@YAAAPADAAPAD@Z 00441b80 f i fluidsim.obj
 0002:0000fba0       ??$forward@AAPAUParticle@@@std@@YAAAPAUParticle@@AAPAU1@@Z 00441ba0 f i fluidsim.obj
 0002:0000fbc0       ??$forward@AAU?$Vec@$02M@@@std@@YAAAU?$Vec@$02M@@AAU1@@Z 00441bc0 f i fluidsim.obj
 0002:0000fbe0       ??$forward@ABU?$Vec@$02M@@@std@@YAABU?$Vec@$02M@@ABU1@@Z 00441be0 f i fluidsim.obj
 0002:0000fc00       ??$forward@PAUParticle@@@std@@YA$$QAPAUParticle@@AAPAU1@@Z 00441c00 f i fluidsim.obj
 0002:0000fc20       ??$forward@U?$Vec@$02I@@@std@@YA$$QAU?$Vec@$02I@@AAU1@@Z 00441c20 f i fluidsim.obj
 0002:0000fc40       ??$forward@U?$Vec@$02M@@@std@@YA$$QAU?$Vec@$02M@@AAU1@@Z 00441c40 f i fluidsim.obj
 0002:0000fc60       ??$forward@UParticle@@@std@@YA$$QAUParticle@@AAU1@@Z 00441c60 f i fluidsim.obj
 0002:0000fc80       ??$forward@V?$basic_string@DU?$char_traits@D@std@@V?$allocator@D@2@@std@@@std@@YA$$QAV?$basic_string@DU?$char_traits@D@std@@V?$allocator@D@2@@0@AAV10@@Z 00441c80 f i fluidsim.obj
 0002:0000fca0       ??$get_barycentric@M@@YAXMAAHAAMHH@Z 00441ca0 f i fluidsim.obj
 0002:0000fd50       ??$getline@DU?$char_traits@D@std@@V?$allocator@D@2@@std@@YAAAV?$basic_istream@DU?$char_traits@D@std@@@0@$$QAV10@AAV?$basic_string@DU?$char_traits@D@std@@V?$allocator@D@2@@0@D@Z 00441d50 f i fluidsim.obj
 0002:0000ffd0       ??$getline@DU?$char_traits@D@std@@V?$allocator@D@2@@std@@YAAAV?$basic_istream@DU?$char_traits@D@std@@@0@AAV10@AAV?$basic_string@DU?$char_traits@D@std@@V?$allocator@D@2@@0@@Z 00441fd0 f i fluidsim.obj
 0002:00010030       ??$interpolate_gradient@MM@@YAMAAU?$Vec@$02M@@ABU0@ABU?$Array3@MU?$Array1@M@@@@@Z 00442030 f i fluidsim.obj
 0002:00010480       ??$interpolate_value@MM@@YAMABU?$Vec@$02M@@ABU?$Array3@MU?$Array1@M@@@@@Z 00442480 f i fluidsim.obj
 0002:00010670       ??$iter_swap@PAUParticle@@PAU1@@std@@YAXPAUParticle@@0@Z 00442670 f i fluidsim.obj
 0002:000106a0       ??$lazyAssign@V?$Block@$$CBV?$Matrix@M$02$02$0A@$02$02@Eigen@@$0?0$0?0$0A@@Eigen@@@?$DenseBase@V?$Matrix@M$02$02$0A@$02$02@Eigen@@@Eigen@@QAEAAV?$Matrix@M$02$02$0A@$02$02@1@ABV?$DenseBase@V?$Block@$$CBV?$Matrix@M$02$02$0A@$02$02@Eigen@@$0?0$0?0$0A@@Eigen@@@1@@Z 004426a0 f i fluidsim.obj
 0002:00010750       ??$lazyAssign@V?$Block@$$CBV?$Matrix@M$02$02$0A@$02$02@Eigen@@$0?0$0?0$0A@@Eigen@@@?$PlainObjectBase@V?$Matrix@M$02$02$0A@$02$02@Eigen@@@Eigen@@QAEAAV?$Matrix@M$02$02$0A@$02$02@1@ABV?$DenseBase@V?$Block@$$CBV?$Matrix@M$02$02$0A@$02$02@Eigen@@$0?0$0?0$0A@@Eigen@@@1@@Z 00442750 f i fluidsim.obj
 0002:00010790       ??$lazyAssign@V?$Block@V?$Matrix@M$02$02$0A@$02$02@Eigen@@$02$00$00@Eigen@@@?$DenseBase@V?$SwapWrapper@V?$Block@V?$Matrix@M$02$02$0A@$02$02@Eigen@@$02$00$00@Eigen@@@Eigen@@@Eigen@@QAEAAV?$SwapWrapper@V?$Block@V?$Matrix@M$02$02$0A@$02$02@Eigen@@$02$00$00@Eigen@@@1@ABV?$DenseBase@V?$Block@V?$Matrix@M$02$02$0A@$02$02@Eigen@@$02$00$00@Eigen@@@1@@Z 00442790 f i fluidsim.obj
 0002:00010840       ??$lazyAssign@V?$CoeffBasedProduct@$$CBV?$CwiseUnaryOp@U?$scalar_multiple_op@M@internal@Eigen@@$$CBV?$Matrix@M$02$00$0A@$02$00@3@@Eigen@@$$CBV?$Transpose@V?$Matrix@M$02$00$0A@$02$00@Eigen@@@2@$0BAA@@Eigen@@@?$SelfCwiseBinaryOp@U?$scalar_sum_op@M@internal@Eigen@@V?$Matrix@M$02$02$0A@$02$02@3@V?$CoeffBasedProduct@$$CBV?$CwiseUnaryOp@U?$scalar_multiple_op@M@internal@Eigen@@$$CBV?$Matrix@M$02$00$0A@$02$00@3@@Eigen@@$$CBV?$Transpose@V?$Matrix@M$02$00$0A@$02$00@Eigen@@@2@$0BAA@@3@@Eigen@@QAEAAV01@ABV?$DenseBase@V?$CoeffBasedProduct@$$CBV?$CwiseUnaryOp@U?$scalar_multiple_op@M@internal@Eigen@@$$CBV?$Matrix@M$02$00$0A@$02$00@3@@Eigen@@$$CBV?$Transpose@V?$Matrix@M$02$00$0A@$02$00@Eigen@@@2@$0BAA@@Eigen@@@1@@Z 00442840 f i fluidsim.obj
 0002:000108f0       ??$lazyAssign@V?$CoeffBasedProduct@$$CBV?$CwiseUnaryOp@U?$scalar_multiple_op@M@internal@Eigen@@$$CBV?$Matrix@M$02$02$0A@$02$02@3@@Eigen@@ABV?$Matrix@M$02$00$0A@$02$00@2@$05@Eigen@@@?$DenseBase@V?$Matrix@M$02$00$0A@$02$00@Eigen@@@Eigen@@QAEAAV?$Matrix@M$02$00$0A@$02$00@1@ABV?$DenseBase@V?$CoeffBasedProduct@$$CBV?$CwiseUnaryOp@U?$scalar_multiple_op@M@internal@Eigen@@$$CBV?$Matrix@M$02$02$0A@$02$02@3@@Eigen@@ABV?$Matrix@M$02$00$0A@$02$00@2@$05@Eigen@@@1@@Z 004428f0 f i fluidsim.obj
 0002:000109a0       ??$lazyAssign@V?$CoeffBasedProduct@$$CBV?$CwiseUnaryOp@U?$scalar_multiple_op@M@internal@Eigen@@$$CBV?$Matrix@M$02$02$0A@$02$02@3@@Eigen@@ABV?$Matrix@M$02$00$0A@$02$00@2@$05@Eigen@@@?$PlainObjectBase@V?$Matrix@M$02$00$0A@$02$00@Eigen@@@Eigen@@QAEAAV?$Matrix@M$02$00$0A@$02$00@1@ABV?$DenseBase@V?$CoeffBasedProduct@$$CBV?$CwiseUnaryOp@U?$scalar_multiple_op@M@internal@Eigen@@$$CBV?$Matrix@M$02$02$0A@$02$02@3@@Eigen@@ABV?$Matrix@M$02$00$0A@$02$00@2@$05@Eigen@@@1@@Z 004429a0 f i fluidsim.obj
 0002:00010a10       ??$lazyAssign@V?$CoeffBasedProduct@ABV?$Matrix@M$02$02$00$02$02@Eigen@@ABV?$Matrix@M$02$02$0A@$02$02@2@$05@Eigen@@@?$DenseBase@V?$Matrix@M$02$02$0A@$02$02@Eigen@@@Eigen@@QAEAAV?$Matrix@M$02$02$0A@$02$02@1@ABV?$DenseBase@V?$CoeffBasedProduct@ABV?$Matrix@M$02$02$00$02$02@Eigen@@ABV?$Matrix@M$02$02$0A@$02$02@2@$05@Eigen@@@1@@Z 00442a10 f i fluidsim.obj
 0002:00010ac0       ??$lazyAssign@V?$CoeffBasedProduct@ABV?$Matrix@M$02$02$00$02$02@Eigen@@ABV?$Matrix@M$02$02$0A@$02$02@2@$05@Eigen@@@?$PlainObjectBase@V?$Matrix@M$02$02$0A@$02$02@Eigen@@@Eigen@@QAEAAV?$Matrix@M$02$02$0A@$02$02@1@ABV?$DenseBase@V?$CoeffBasedProduct@ABV?$Matrix@M$02$02$00$02$02@Eigen@@ABV?$Matrix@M$02$02$0A@$02$02@2@$05@Eigen@@@1@@Z 00442ac0 f i fluidsim.obj
 0002:00010b30       ??$lazyAssign@V?$CoeffBasedProduct@ABV?$Matrix@M$02$02$0A@$02$02@Eigen@@$$CBV?$Transpose@V?$Matrix@M$02$02$0A@$02$02@Eigen@@@2@$05@Eigen@@@?$DenseBase@V?$Matrix@M$02$02$00$02$02@Eigen@@@Eigen@@QAEAAV?$Matrix@M$02$02$00$02$02@1@ABV?$DenseBase@V?$CoeffBasedProduct@ABV?$Matrix@M$02$02$0A@$02$02@Eigen@@$$CBV?$Transpose@V?$Matrix@M$02$02$0A@$02$02@Eigen@@@2@$05@Eigen@@@1@@Z 00442b30 f i fluidsim.obj
 0002:00010be0       ??$lazyAssign@V?$CoeffBasedProduct@ABV?$Matrix@M$02$02$0A@$02$02@Eigen@@$$CBV?$Transpose@V?$Matrix@M$02$02$0A@$02$02@Eigen@@@2@$05@Eigen@@@?$DenseBase@V?$Matrix@M$02$02$0A@$02$02@Eigen@@@Eigen@@QAEAAV?$Matrix@M$02$02$0A@$02$02@1@ABV?$DenseBase@V?$CoeffBasedProduct@ABV?$Matrix@M$02$02$0A@$02$02@Eigen@@$$CBV?$Transpose@V?$Matrix@M$02$02$0A@$02$02@Eigen@@@2@$05@Eigen@@@1@@Z 00442be0 f i fluidsim.obj
 0002:00010c90       ??$lazyAssign@V?$CoeffBasedProduct@ABV?$Matrix@M$02$02$0A@$02$02@Eigen@@$$CBV?$Transpose@V?$Matrix@M$02$02$0A@$02$02@Eigen@@@2@$05@Eigen@@@?$PlainObjectBase@V?$Matrix@M$02$02$00$02$02@Eigen@@@Eigen@@QAEAAV?$Matrix@M$02$02$00$02$02@1@ABV?$DenseBase@V?$CoeffBasedProduct@ABV?$Matrix@M$02$02$0A@$02$02@Eigen@@$$CBV?$Transpose@V?$Matrix@M$02$02$0A@$02$02@Eigen@@@2@$05@Eigen@@@1@@Z 00442c90 f i fluidsim.obj
 0002:00010d00       ??$lazyAssign@V?$CoeffBasedProduct@ABV?$Matrix@M$02$02$0A@$02$02@Eigen@@$$CBV?$Transpose@V?$Matrix@M$02$02$0A@$02$02@Eigen@@@2@$05@Eigen@@@?$PlainObjectBase@V?$Matrix@M$02$02$0A@$02$02@Eigen@@@Eigen@@QAEAAV?$Matrix@M$02$02$0A@$02$02@1@ABV?$DenseBase@V?$CoeffBasedProduct@ABV?$Matrix@M$02$02$0A@$02$02@Eigen@@$$CBV?$Transpose@V?$Matrix@M$02$02$0A@$02$02@Eigen@@@2@$05@Eigen@@@1@@Z 00442d00 f i fluidsim.obj
 0002:00010d70       ??$lazyAssign@V?$CoeffBasedProduct@ABV?$Matrix@M$02$02$0A@$02$02@Eigen@@ABV12@$05@Eigen@@@?$DenseBase@V?$Matrix@M$02$02$0A@$02$02@Eigen@@@Eigen@@QAEAAV?$Matrix@M$02$02$0A@$02$02@1@ABV?$DenseBase@V?$CoeffBasedProduct@ABV?$Matrix@M$02$02$0A@$02$02@Eigen@@ABV12@$05@Eigen@@@1@@Z 00442d70 f i fluidsim.obj
 0002:00010e20       ??$lazyAssign@V?$CoeffBasedProduct@ABV?$Matrix@M$02$02$0A@$02$02@Eigen@@ABV12@$05@Eigen@@@?$PlainObjectBase@V?$Matrix@M$02$02$0A@$02$02@Eigen@@@Eigen@@QAEAAV?$Matrix@M$02$02$0A@$02$02@1@ABV?$DenseBase@V?$CoeffBasedProduct@ABV?$Matrix@M$02$02$0A@$02$02@Eigen@@ABV12@$05@Eigen@@@1@@Z 00442e20 f i fluidsim.obj
 0002:00010e90       ??$lazyAssign@V?$CoeffBasedProduct@ABV?$Matrix@M$02$02$0A@$02$02@Eigen@@V12@$05@Eigen@@@?$DenseBase@V?$Matrix@M$02$02$0A@$02$02@Eigen@@@Eigen@@QAEAAV?$Matrix@M$02$02$0A@$02$02@1@ABV?$DenseBase@V?$CoeffBasedProduct@ABV?$Matrix@M$02$02$0A@$02$02@Eigen@@V12@$05@Eigen@@@1@@Z 00442e90 f i fluidsim.obj
 0002:00010f40       ??$lazyAssign@V?$CoeffBasedProduct@ABV?$Matrix@M$02$02$0A@$02$02@Eigen@@V12@$05@Eigen@@@?$PlainObjectBase@V?$Matrix@M$02$02$0A@$02$02@Eigen@@@Eigen@@QAEAAV?$Matrix@M$02$02$0A@$02$02@1@ABV?$DenseBase@V?$CoeffBasedProduct@ABV?$Matrix@M$02$02$0A@$02$02@Eigen@@V12@$05@Eigen@@@1@@Z 00442f40 f i fluidsim.obj
 0002:00010fb0       ??$lazyAssign@V?$CwiseNullaryOp@U?$scalar_constant_op@M@internal@Eigen@@V?$Matrix@M$02$00$0A@$02$00@3@@Eigen@@@?$DenseBase@V?$Matrix@M$02$00$0A@$02$00@Eigen@@@Eigen@@QAEAAV?$Matrix@M$02$00$0A@$02$00@1@ABV?$DenseBase@V?$CwiseNullaryOp@U?$scalar_constant_op@M@internal@Eigen@@V?$Matrix@M$02$00$0A@$02$00@3@@Eigen@@@1@@Z 00442fb0 f i fluidsim.obj
 0002:00011060       ??$lazyAssign@V?$CwiseNullaryOp@U?$scalar_constant_op@M@internal@Eigen@@V?$Matrix@M$02$00$0A@$02$00@3@@Eigen@@@?$PlainObjectBase@V?$Matrix@M$02$00$0A@$02$00@Eigen@@@Eigen@@QAEAAV?$Matrix@M$02$00$0A@$02$00@1@ABV?$DenseBase@V?$CwiseNullaryOp@U?$scalar_constant_op@M@internal@Eigen@@V?$Matrix@M$02$00$0A@$02$00@3@@Eigen@@@1@@Z 00443060 f i fluidsim.obj
 0002:000110d0       ??$lazyAssign@V?$CwiseNullaryOp@U?$scalar_constant_op@M@internal@Eigen@@V?$Matrix@M$02$00$0A@$02$00@3@@Eigen@@@?$SelfCwiseBinaryOp@U?$scalar_product_op@MM@internal@Eigen@@V?$Block@V?$Matrix@M$02$02$0A@$02$02@Eigen@@$02$00$00@3@V?$CwiseNullaryOp@U?$scalar_constant_op@M@internal@Eigen@@V?$Matrix@M$02$00$0A@$02$00@3@@3@@Eigen@@QAEAAV01@ABV?$DenseBase@V?$CwiseNullaryOp@U?$scalar_constant_op@M@internal@Eigen@@V?$Matrix@M$02$00$0A@$02$00@3@@Eigen@@@1@@Z 004430d0 f i fluidsim.obj
 0002:00011180       ??$lazyAssign@V?$CwiseNullaryOp@U?$scalar_constant_op@M@internal@Eigen@@V?$Matrix@M$02$02$0A@$02$02@3@@Eigen@@@?$DenseBase@V?$Matrix@M$02$02$0A@$02$02@Eigen@@@Eigen@@QAEAAV?$Matrix@M$02$02$0A@$02$02@1@ABV?$DenseBase@V?$CwiseNullaryOp@U?$scalar_constant_op@M@internal@Eigen@@V?$Matrix@M$02$02$0A@$02$02@3@@Eigen@@@1@@Z 00443180 f i fluidsim.obj
 0002:00011230       ??$lazyAssign@V?$CwiseNullaryOp@U?$scalar_constant_op@M@internal@Eigen@@V?$Matrix@M$02$02$0A@$02$02@3@@Eigen@@@?$PlainObjectBase@V?$Matrix@M$02$02$0A@$02$02@Eigen@@@Eigen@@QAEAAV?$Matrix@M$02$02$0A@$02$02@1@ABV?$DenseBase@V?$CwiseNullaryOp@U?$scalar_constant_op@M@internal@Eigen@@V?$Matrix@M$02$02$0A@$02$02@3@@Eigen@@@1@@Z 00443230 f i fluidsim.obj
 0002:000112a0       ??$lazyAssign@V?$CwiseNullaryOp@U?$scalar_identity_op@M@internal@Eigen@@V?$Matrix@M$02$02$0A@$02$02@3@@Eigen@@@?$DenseBase@V?$Matrix@M$02$02$0A@$02$02@Eigen@@@Eigen@@QAEAAV?$Matrix@M$02$02$0A@$02$02@1@ABV?$DenseBase@V?$CwiseNullaryOp@U?$scalar_identity_op@M@internal@Eigen@@V?$Matrix@M$02$02$0A@$02$02@3@@Eigen@@@1@@Z 004432a0 f i fluidsim.obj
 0002:00011350       ??$lazyAssign@V?$CwiseNullaryOp@U?$scalar_identity_op@M@internal@Eigen@@V?$Matrix@M$02$02$0A@$02$02@3@@Eigen@@@?$PlainObjectBase@V?$Matrix@M$02$02$0A@$02$02@Eigen@@@Eigen@@QAEAAV?$Matrix@M$02$02$0A@$02$02@1@ABV?$DenseBase@V?$CwiseNullaryOp@U?$scalar_identity_op@M@internal@Eigen@@V?$Matrix@M$02$02$0A@$02$02@3@@Eigen@@@1@@Z 00443350 f i fluidsim.obj
 0002:000113c0       ??$lazyAssign@V?$Matrix@M$02$00$0A@$02$00@Eigen@@@?$DenseBase@V?$Matrix@M$02$00$0A@$02$00@Eigen@@@Eigen@@QAEAAV?$Matrix@M$02$00$0A@$02$00@1@ABV01@@Z 004433c0 f i fluidsim.obj
 0002:00011470       ??$lazyAssign@V?$Matrix@M$02$00$0A@$02$00@Eigen@@@?$PlainObjectBase@V?$Matrix@M$02$00$0A@$02$00@Eigen@@@Eigen@@QAEAAV?$Matrix@M$02$00$0A@$02$00@1@ABV?$DenseBase@V?$Matrix@M$02$00$0A@$02$00@Eigen@@@1@@Z 00443470 f i fluidsim.obj
 0002:000114b0       ??$lazyAssign@V?$Matrix@M$02$00$0A@$02$00@Eigen@@@?$SelfCwiseBinaryOp@U?$scalar_difference_op@M@internal@Eigen@@V?$Matrix@M$02$00$0A@$02$00@3@V?$CoeffBasedProduct@$$CBV?$CwiseUnaryOp@U?$scalar_multiple_op@M@internal@Eigen@@$$CBV?$Matrix@M$02$02$0A@$02$02@3@@Eigen@@ABV?$Matrix@M$02$00$0A@$02$00@2@$05@3@@Eigen@@QAEAAV01@ABV?$DenseBase@V?$Matrix@M$02$00$0A@$02$00@Eigen@@@1@@Z 004434b0 f i fluidsim.obj
 0002:00011560       ??$lazyAssign@V?$Matrix@M$02$02$00$02$02@Eigen@@@?$DenseBase@V?$Matrix@M$02$02$0A@$02$02@Eigen@@@Eigen@@QAEAAV?$Matrix@M$02$02$0A@$02$02@1@ABV?$DenseBase@V?$Matrix@M$02$02$00$02$02@Eigen@@@1@@Z 00443560 f i fluidsim.obj
 0002:00011610       ??$lazyAssign@V?$Matrix@M$02$02$00$02$02@Eigen@@@?$PlainObjectBase@V?$Matrix@M$02$02$0A@$02$02@Eigen@@@Eigen@@QAEAAV?$Matrix@M$02$02$0A@$02$02@1@ABV?$DenseBase@V?$Matrix@M$02$02$00$02$02@Eigen@@@1@@Z 00443610 f i fluidsim.obj
 0002:00011650       ??$lazyAssign@V?$Matrix@M$02$02$0A@$02$02@Eigen@@@?$DenseBase@V?$Matrix@M$02$02$0A@$02$02@Eigen@@@Eigen@@QAEAAV?$Matrix@M$02$02$0A@$02$02@1@ABV01@@Z 00443650 f i fluidsim.obj
 0002:00011700       ??$lazyAssign@V?$Matrix@M$02$02$0A@$02$02@Eigen@@@?$PlainObjectBase@V?$Matrix@M$02$02$0A@$02$02@Eigen@@@Eigen@@QAEAAV?$Matrix@M$02$02$0A@$02$02@1@ABV?$DenseBase@V?$Matrix@M$02$02$0A@$02$02@Eigen@@@1@@Z 00443700 f i fluidsim.obj
 0002:00011740       ??$lazyAssign@V?$Transpose@$$CBV?$CwiseUnaryOp@U?$scalar_multiple_op@M@internal@Eigen@@$$CBV?$Matrix@M$02$00$0A@$02$00@3@@Eigen@@@Eigen@@@?$DenseBase@V?$Block@V?$Matrix@M$02$02$0A@$02$02@Eigen@@$00$02$0A@@Eigen@@@Eigen@@QAEAAV?$Block@V?$Matrix@M$02$02$0A@$02$02@Eigen@@$00$02$0A@@1@ABV?$DenseBase@V?$Transpose@$$CBV?$CwiseUnaryOp@U?$scalar_multiple_op@M@internal@Eigen@@$$CBV?$Matrix@M$02$00$0A@$02$00@3@@Eigen@@@Eigen@@@1@@Z 00443740 f i fluidsim.obj
 0002:000117f0       ??$lerp@MM@@YAMABM0M@Z     004437f0 f i fluidsim.obj
 0002:00011840       ??$mag2@$02M@@YAMABU?$Vec@$02M@@@Z 00443840 f i fluidsim.obj
 0002:000118d0       ??$mag@$02M@@YAMABU?$Vec@$02M@@@Z 004438d0 f i fluidsim.obj
 0002:00011900       ??$makeJacobi@V?$Matrix@M$01$01$0A@$01$01@Eigen@@@?$JacobiRotation@M@Eigen@@QAE_NABV?$MatrixBase@V?$Matrix@M$01$01$0A@$01$01@Eigen@@@1@HH@Z 00443900 f i fluidsim.obj
 0002:00011990       ??$make_heap@PAUParticle@@P6A_NU1@0@Z@std@@YAXPAUParticle@@0P6A_NU1@1@Z@Z 00443990 f i fluidsim.obj
 0002:00011a10       ??$max@H@std@@YAABHABH0@Z  00443a10 f i fluidsim.obj
 0002:00011a50       ??$max@M@std@@YAABMABM0@Z  00443a50 f i fluidsim.obj
 0002:00011aa0       ??$maxCoeff@H@?$DenseBase@V?$Block@V?$Matrix@M$02$00$0A@$02$00@Eigen@@$0?0$00$0A@@Eigen@@@Eigen@@QBEMPAH@Z 00443aa0 f i fluidsim.obj
 0002:00011b10       ??$min@H@std@@YAABHABH0@Z  00443b10 f i fluidsim.obj
 0002:00011b50       ??$move@AAUParticle@@@std@@YA$$QAUParticle@@AAU1@@Z 00443b50 f i fluidsim.obj
 0002:00011b70       ??$move@AAV?$basic_istream@DU?$char_traits@D@std@@@std@@@std@@YA$$QAV?$basic_istream@DU?$char_traits@D@std@@@0@AAV10@@Z 00443b70 f i fluidsim.obj
 0002:00011b90       ??$move@AAV?$basic_string@DU?$char_traits@D@std@@V?$allocator@D@2@@std@@@std@@YA$$QAV?$basic_string@DU?$char_traits@D@std@@V?$allocator@D@2@@0@AAV10@@Z 00443b90 f i fluidsim.obj
 0002:00011bb0       ??$normalize@$02M@@YAXAAU?$Vec@$02M@@@Z 00443bb0 f i fluidsim.obj
 0002:00011c00       ??$normalized@$02M@@YA?AU?$Vec@$02M@@ABU0@@Z 00443c00 f i fluidsim.obj
 0002:00011c40       ??$padd@T__m128@@@internal@Eigen@@YA?AT__m128@@ABT2@0@Z 00443c40 f i fluidsim.obj
 0002:00011c90       ??$pload@T__m128@@@internal@Eigen@@YA?AT__m128@@PBM@Z 00443c90 f i fluidsim.obj
 0002:00011cd0       ??$ploadu@T__m128@@@internal@Eigen@@YA?AT__m128@@PBM@Z 00443cd0 f i fluidsim.obj
 0002:00011d10       ??$pmul@T__m128@@@internal@Eigen@@YA?AT__m128@@ABT2@0@Z 00443d10 f i fluidsim.obj
 0002:00011d60       ??$pow@NM@@YANNM@Z         00443d60 f i fluidsim.obj
 0002:00011da0       ??$pset1@T__m128@@@internal@Eigen@@YA?AT__m128@@ABM@Z 00443da0 f i fluidsim.obj
 0002:00011df0       ??$pstore@MT__m128@@@internal@Eigen@@YAXPAMABT__m128@@@Z 00443df0 f i fluidsim.obj
 0002:00011e20       ??$pstoreu@MT__m128@@@internal@Eigen@@YAXPAMABT__m128@@@Z 00443e20 f i fluidsim.obj
 0002:00011e70       ??$pstoreu@NU__m128d@@@internal@Eigen@@YAXPANABU__m128d@@@Z 00443e70 f i fluidsim.obj
 0002:00011eb0       ??$psub@T__m128@@@internal@Eigen@@YA?AT__m128@@ABT2@0@Z 00443eb0 f i fluidsim.obj
 0002:00011f00       ??$real@M@numext@Eigen@@YAMABM@Z 00443f00 f i fluidsim.obj
 0002:00011f30       ??$real_2x2_jacobi_svd@V?$Matrix@M$02$02$0A@$02$02@Eigen@@MH@internal@Eigen@@YAXABV?$Matrix@M$02$02$0A@$02$02@1@HHPAV?$JacobiRotation@M@1@1@Z 00443f30 f i fluidsim.obj
 0002:00012300       ??$redux@U?$scalar_sum_op@M@internal@Eigen@@@?$DenseBase@V?$CwiseBinaryOp@U?$scalar_product_op@MM@internal@Eigen@@$$CBV?$Matrix@M$02$00$0A@$02$00@3@$$CBV?$Block@$$CBV?$Matrix@M$02$02$0A@$02$02@Eigen@@$02$00$00@3@@Eigen@@@Eigen@@QBEMABU?$scalar_sum_op@M@internal@1@@Z 00444300 f i fluidsim.obj
 0002:00012340       ??$redux@U?$scalar_sum_op@M@internal@Eigen@@@?$DenseBase@V?$CwiseUnaryOp@U?$scalar_abs2_op@M@internal@Eigen@@$$CBV?$CwiseBinaryOp@U?$scalar_difference_op@M@internal@Eigen@@$$CBV?$Matrix@M$02$02$0A@$02$02@3@$$CBV43@@3@@Eigen@@@Eigen@@QBEMABU?$scalar_sum_op@M@internal@1@@Z 00444340 f i fluidsim.obj
 0002:00012380       ??$resizeLike@V?$Block@$$CBV?$Matrix@M$02$02$0A@$02$02@Eigen@@$0?0$0?0$0A@@Eigen@@@?$PlainObjectBase@V?$Matrix@M$02$02$0A@$02$02@Eigen@@@Eigen@@QAEXABU?$EigenBase@V?$Block@$$CBV?$Matrix@M$02$02$0A@$02$02@Eigen@@$0?0$0?0$0A@@Eigen@@@1@@Z 00444380 f i fluidsim.obj
 0002:000124c0       ??$resizeLike@V?$CoeffBasedProduct@$$CBV?$CwiseUnaryOp@U?$scalar_multiple_op@M@internal@Eigen@@$$CBV?$Matrix@M$02$02$0A@$02$02@3@@Eigen@@ABV?$Matrix@M$02$00$0A@$02$00@2@$05@Eigen@@@?$PlainObjectBase@V?$Matrix@M$02$00$0A@$02$00@Eigen@@@Eigen@@QAEXABU?$EigenBase@V?$CoeffBasedProduct@$$CBV?$CwiseUnaryOp@U?$scalar_multiple_op@M@internal@Eigen@@$$CBV?$Matrix@M$02$02$0A@$02$02@3@@Eigen@@ABV?$Matrix@M$02$00$0A@$02$00@2@$05@Eigen@@@1@@Z 004444c0 f i fluidsim.obj
 0002:00012600       ??$resizeLike@V?$CoeffBasedProduct@ABV?$Matrix@M$02$02$00$02$02@Eigen@@ABV?$Matrix@M$02$02$0A@$02$02@2@$05@Eigen@@@?$PlainObjectBase@V?$Matrix@M$02$02$0A@$02$02@Eigen@@@Eigen@@QAEXABU?$EigenBase@V?$CoeffBasedProduct@ABV?$Matrix@M$02$02$00$02$02@Eigen@@ABV?$Matrix@M$02$02$0A@$02$02@2@$05@Eigen@@@1@@Z 00444600 f i fluidsim.obj
 0002:00012740       ??$resizeLike@V?$CoeffBasedProduct@ABV?$Matrix@M$02$02$0A@$02$02@Eigen@@$$CBV?$Transpose@V?$Matrix@M$02$02$0A@$02$02@Eigen@@@2@$05@Eigen@@@?$PlainObjectBase@V?$Matrix@M$02$02$00$02$02@Eigen@@@Eigen@@QAEXABU?$EigenBase@V?$CoeffBasedProduct@ABV?$Matrix@M$02$02$0A@$02$02@Eigen@@$$CBV?$Transpose@V?$Matrix@M$02$02$0A@$02$02@Eigen@@@2@$05@Eigen@@@1@@Z 00444740 f i fluidsim.obj
 0002:00012880       ??$resizeLike@V?$CoeffBasedProduct@ABV?$Matrix@M$02$02$0A@$02$02@Eigen@@$$CBV?$Transpose@V?$Matrix@M$02$02$0A@$02$02@Eigen@@@2@$05@Eigen@@@?$PlainObjectBase@V?$Matrix@M$02$02$0A@$02$02@Eigen@@@Eigen@@QAEXABU?$EigenBase@V?$CoeffBasedProduct@ABV?$Matrix@M$02$02$0A@$02$02@Eigen@@$$CBV?$Transpose@V?$Matrix@M$02$02$0A@$02$02@Eigen@@@2@$05@Eigen@@@1@@Z 00444880 f i fluidsim.obj
 0002:000129c0       ??$resizeLike@V?$CoeffBasedProduct@ABV?$Matrix@M$02$02$0A@$02$02@Eigen@@ABV12@$05@Eigen@@@?$PlainObjectBase@V?$Matrix@M$02$02$0A@$02$02@Eigen@@@Eigen@@QAEXABU?$EigenBase@V?$CoeffBasedProduct@ABV?$Matrix@M$02$02$0A@$02$02@Eigen@@ABV12@$05@Eigen@@@1@@Z 004449c0 f i fluidsim.obj
 0002:00012b00       ??$resizeLike@V?$CoeffBasedProduct@ABV?$Matrix@M$02$02$0A@$02$02@Eigen@@V12@$05@Eigen@@@?$PlainObjectBase@V?$Matrix@M$02$02$0A@$02$02@Eigen@@@Eigen@@QAEXABU?$EigenBase@V?$CoeffBasedProduct@ABV?$Matrix@M$02$02$0A@$02$02@Eigen@@V12@$05@Eigen@@@1@@Z 00444b00 f i fluidsim.obj
 0002:00012c40       ??$resizeLike@V?$CwiseNullaryOp@U?$scalar_constant_op@M@internal@Eigen@@V?$Matrix@M$02$00$0A@$02$00@3@@Eigen@@@?$PlainObjectBase@V?$Matrix@M$02$00$0A@$02$00@Eigen@@@Eigen@@QAEXABU?$EigenBase@V?$CwiseNullaryOp@U?$scalar_constant_op@M@internal@Eigen@@V?$Matrix@M$02$00$0A@$02$00@3@@Eigen@@@1@@Z 00444c40 f i fluidsim.obj
 0002:00012d80       ??$resizeLike@V?$CwiseNullaryOp@U?$scalar_constant_op@M@internal@Eigen@@V?$Matrix@M$02$02$0A@$02$02@3@@Eigen@@@?$PlainObjectBase@V?$Matrix@M$02$02$0A@$02$02@Eigen@@@Eigen@@QAEXABU?$EigenBase@V?$CwiseNullaryOp@U?$scalar_constant_op@M@internal@Eigen@@V?$Matrix@M$02$02$0A@$02$02@3@@Eigen@@@1@@Z 00444d80 f i fluidsim.obj
 0002:00012ec0       ??$resizeLike@V?$CwiseNullaryOp@U?$scalar_identity_op@M@internal@Eigen@@V?$Matrix@M$02$02$0A@$02$02@3@@Eigen@@@?$PlainObjectBase@V?$Matrix@M$02$02$0A@$02$02@Eigen@@@Eigen@@QAEXABU?$EigenBase@V?$CwiseNullaryOp@U?$scalar_identity_op@M@internal@Eigen@@V?$Matrix@M$02$02$0A@$02$02@3@@Eigen@@@1@@Z 00444ec0 f i fluidsim.obj
 0002:00013000       ??$resizeLike@V?$Matrix@M$02$00$0A@$02$00@Eigen@@@?$PlainObjectBase@V?$Matrix@M$02$00$0A@$02$00@Eigen@@@Eigen@@QAEXABU?$EigenBase@V?$Matrix@M$02$00$0A@$02$00@Eigen@@@1@@Z 00445000 f i fluidsim.obj
 0002:00013140       ??$resizeLike@V?$Matrix@M$02$02$00$02$02@Eigen@@@?$PlainObjectBase@V?$Matrix@M$02$02$0A@$02$02@Eigen@@@Eigen@@QAEXABU?$EigenBase@V?$Matrix@M$02$02$00$02$02@Eigen@@@1@@Z 00445140 f i fluidsim.obj
 0002:00013280       ??$resizeLike@V?$Matrix@M$02$02$0A@$02$02@Eigen@@@?$PlainObjectBase@V?$Matrix@M$02$02$0A@$02$02@Eigen@@@Eigen@@QAEXABU?$EigenBase@V?$Matrix@M$02$02$0A@$02$02@Eigen@@@1@@Z 00445280 f i fluidsim.obj
 0002:000133c0       ??$run@H@?$check_rows_cols_for_overflow@$02@internal@Eigen@@SAXHH@Z 004453c0 f i fluidsim.obj
 0002:000133e0       ??$run@H@?$check_rows_cols_for_overflow@$08@internal@Eigen@@SAXHH@Z 004453e0 f i fluidsim.obj
 0002:00013400       ??$sort@V?$_Vector_iterator@V?$_Vector_val@U?$_Simple_types@UParticle@@@std@@@std@@@std@@P6A_NUParticle@@0@Z@std@@YAXV?$_Vector_iterator@V?$_Vector_val@U?$_Simple_types@UParticle@@@std@@@std@@@0@0P6A_NUParticle@@1@Z@Z 00445400 f i fluidsim.obj
 0002:00013460       ??$sort_heap@PAUParticle@@P6A_NU1@0@Z@std@@YAXPAUParticle@@0P6A_NU1@1@Z@Z 00445460 f i fluidsim.obj
 0002:000134b0       ??$sqr@M@@YAMABM@Z         004454b0 f i fluidsim.obj
 0002:000134e0       ??$swap@M@std@@YAXAAM0@Z   004454e0 f i fluidsim.obj
 0002:00013540       ??$swap@UParticle@@@std@@YAXAAUParticle@@0@Z 00445540 f i fluidsim.obj
 0002:000135d0       ??$swap@V?$Block@V?$Matrix@M$02$02$0A@$02$02@Eigen@@$02$00$00@Eigen@@@?$DenseBase@V?$Block@V?$Matrix@M$02$02$0A@$02$02@Eigen@@$02$00$00@Eigen@@@Eigen@@QAEXABV01@H@Z 004455d0 f i fluidsim.obj
 0002:00013620       ??$trilerp@MM@@YAMABM0000000MMM@Z 00445620 f i fluidsim.obj
 0002:000136d0       ??$use_facet@V?$codecvt@DDH@std@@@std@@YAABV?$codecvt@DDH@0@ABVlocale@0@@Z 004456d0 f i fluidsim.obj
 0002:00013820       ??$visit@U?$max_coeff_visitor@V?$Block@V?$Matrix@M$02$00$0A@$02$00@Eigen@@$0?0$00$0A@@Eigen@@@internal@Eigen@@@?$DenseBase@V?$Block@V?$Matrix@M$02$00$0A@$02$00@Eigen@@$0?0$00$0A@@Eigen@@@Eigen@@QBEXAAU?$max_coeff_visitor@V?$Block@V?$Matrix@M$02$00$0A@$02$00@Eigen@@$0?0$00$0A@@Eigen@@@internal@1@@Z 00445820 f i fluidsim.obj
 0002:00013860       ??0?$Block@$$CBV?$Matrix@M$02$02$0A@$02$02@Eigen@@$02$00$00@Eigen@@QAE@ABV?$Matrix@M$02$02$0A@$02$02@1@H@Z 00445860 f i fluidsim.obj
 0002:000138e0       ??0?$Block@$$CBV?$Matrix@M$02$02$0A@$02$02@Eigen@@$0?0$0?0$0A@@Eigen@@QAE@ABV?$Matrix@M$02$02$0A@$02$02@1@HHHH@Z 004458e0 f i fluidsim.obj
 0002:00013990       ??0?$Block@V?$Matrix@M$01$01$0A@$01$01@Eigen@@$00$01$0A@@Eigen@@QAE@AAV?$Matrix@M$01$01$0A@$01$01@1@H@Z 00445990 f i fluidsim.obj
 0002:00013a10       ??0?$Block@V?$Matrix@M$02$00$0A@$02$00@Eigen@@$0?0$00$0A@@Eigen@@QAE@AAV?$Matrix@M$02$00$0A@$02$00@1@HHHH@Z 00445a10 f i fluidsim.obj
 0002:00013af0       ??0?$Block@V?$Matrix@M$02$02$0A@$02$02@Eigen@@$00$02$0A@@Eigen@@QAE@AAV?$Matrix@M$02$02$0A@$02$02@1@H@Z 00445af0 f i fluidsim.obj
 0002:00013b70       ??0?$Block@V?$Matrix@M$02$02$0A@$02$02@Eigen@@$02$00$00@Eigen@@QAE@AAV?$Matrix@M$02$02$0A@$02$02@1@H@Z 00445b70 f i fluidsim.obj
 0002:00013bf0       ??0?$BlockImpl@$$CBV?$Matrix@M$02$02$0A@$02$02@Eigen@@$02$00$00UDense@2@@Eigen@@QAE@ABV?$Matrix@M$02$02$0A@$02$02@1@H@Z 00445bf0 f i fluidsim.obj
 0002:00013c30       ??0?$BlockImpl@$$CBV?$Matrix@M$02$02$0A@$02$02@Eigen@@$0?0$0?0$0A@UDense@2@@Eigen@@QAE@ABV?$Matrix@M$02$02$0A@$02$02@1@HHHH@Z 00445c30 f i fluidsim.obj
 0002:00013c80       ??0?$BlockImpl@V?$Matrix@M$01$01$0A@$01$01@Eigen@@$00$01$0A@UDense@2@@Eigen@@QAE@AAV?$Matrix@M$01$01$0A@$01$01@1@H@Z 00445c80 f i fluidsim.obj
 0002:00013cc0       ??0?$BlockImpl@V?$Matrix@M$02$00$0A@$02$00@Eigen@@$0?0$00$0A@UDense@2@@Eigen@@QAE@AAV?$Matrix@M$02$00$0A@$02$00@1@HHHH@Z 00445cc0 f i fluidsim.obj
 0002:00013d10       ??0?$BlockImpl@V?$Matrix@M$02$02$0A@$02$02@Eigen@@$00$02$0A@UDense@2@@Eigen@@QAE@AAV?$Matrix@M$02$02$0A@$02$02@1@H@Z 00445d10 f i fluidsim.obj
 0002:00013d50       ??0?$BlockImpl@V?$Matrix@M$02$02$0A@$02$02@Eigen@@$02$00$00UDense@2@@Eigen@@QAE@AAV?$Matrix@M$02$02$0A@$02$02@1@H@Z 00445d50 f i fluidsim.obj
 0002:00013d90       ??0?$BlockImpl_dense@$$CBV?$Matrix@M$02$02$0A@$02$02@Eigen@@$02$00$00$00@internal@Eigen@@QAE@ABV?$Matrix@M$02$02$0A@$02$02@2@H@Z 00445d90 f i fluidsim.obj
 0002:00013e70       ??0?$BlockImpl_dense@$$CBV?$Matrix@M$02$02$0A@$02$02@Eigen@@$0?0$0?0$0A@$00@internal@Eigen@@QAE@ABV?$Matrix@M$02$02$0A@$02$02@2@HHHH@Z 00445e70 f i fluidsim.obj
 0002:00013ee0       ??0?$BlockImpl_dense@V?$Matrix@M$01$01$0A@$01$01@Eigen@@$00$01$0A@$00@internal@Eigen@@QAE@AAV?$Matrix@M$01$01$0A@$01$01@2@H@Z 00445ee0 f i fluidsim.obj
 0002:00013fc0       ??0?$BlockImpl_dense@V?$Matrix@M$02$00$0A@$02$00@Eigen@@$0?0$00$0A@$00@internal@Eigen@@QAE@AAV?$Matrix@M$02$00$0A@$02$00@2@HHHH@Z 00445fc0 f i fluidsim.obj
 0002:00014030       ??0?$BlockImpl_dense@V?$Matrix@M$02$02$0A@$02$02@Eigen@@$00$02$0A@$00@internal@Eigen@@QAE@AAV?$Matrix@M$02$02$0A@$02$02@2@H@Z 00446030 f i fluidsim.obj
 0002:00014110       ??0?$BlockImpl_dense@V?$Matrix@M$02$02$0A@$02$02@Eigen@@$02$00$00$00@internal@Eigen@@QAE@AAV?$Matrix@M$02$02$0A@$02$02@2@H@Z 00446110 f i fluidsim.obj
 0002:000141f0       ??0?$CommaInitializer@V?$Matrix@M$01$01$0A@$01$01@Eigen@@@Eigen@@QAE@AAV?$Matrix@M$01$01$0A@$01$01@1@ABM@Z 004461f0 f i fluidsim.obj
 0002:00014260       ??0?$CwiseBinaryOp@U?$scalar_difference_op@M@internal@Eigen@@$$CBV?$Matrix@M$02$02$0A@$02$02@3@$$CBV43@@Eigen@@QAE@ABV?$Matrix@M$02$02$0A@$02$02@1@0ABU?$scalar_difference_op@M@internal@1@@Z 00446260 f i fluidsim.obj
 0002:00014300       ??0?$CwiseBinaryOp@U?$scalar_product_op@MM@internal@Eigen@@$$CBV?$Matrix@M$02$00$0A@$02$00@3@$$CBV?$Block@$$CBV?$Matrix@M$02$02$0A@$02$02@Eigen@@$02$00$00@3@@Eigen@@QAE@ABV?$Matrix@M$02$00$0A@$02$00@1@ABV?$Block@$$CBV?$Matrix@M$02$02$0A@$02$02@Eigen@@$02$00$00@1@ABU?$scalar_product_op@MM@internal@1@@Z 00446300 f i fluidsim.obj
 0002:000143c0       ??0?$CwiseBinaryOpImpl@U?$scalar_difference_op@M@internal@Eigen@@$$CBV?$Matrix@M$02$02$0A@$02$02@3@$$CBV43@UDense@3@@Eigen@@QAE@XZ 004463c0 f i fluidsim.obj
 0002:000143f0       ??0?$CwiseBinaryOpImpl@U?$scalar_product_op@MM@internal@Eigen@@$$CBV?$Matrix@M$02$00$0A@$02$00@3@$$CBV?$Block@$$CBV?$Matrix@M$02$02$0A@$02$02@Eigen@@$02$00$00@3@UDense@3@@Eigen@@QAE@XZ 004463f0 f i fluidsim.obj
 0002:00014420       ??0?$CwiseNullaryOp@U?$scalar_constant_op@M@internal@Eigen@@V?$Matrix@M$02$00$0A@$02$00@3@@Eigen@@QAE@ABV01@@Z 00446420 f i fluidsim.obj
 0002:00014480       ??0?$CwiseNullaryOp@U?$scalar_constant_op@M@internal@Eigen@@V?$Matrix@M$02$00$0A@$02$00@3@@Eigen@@QAE@HHABU?$scalar_constant_op@M@internal@1@@Z 00446480 f i fluidsim.obj
 0002:00014530       ??0?$CwiseNullaryOp@U?$scalar_constant_op@M@internal@Eigen@@V?$Matrix@M$02$02$0A@$02$02@3@@Eigen@@QAE@HHABU?$scalar_constant_op@M@internal@1@@Z 00446530 f i fluidsim.obj
 0002:000145e0       ??0?$CwiseNullaryOp@U?$scalar_identity_op@M@internal@Eigen@@V?$Matrix@M$02$02$0A@$02$02@3@@Eigen@@QAE@HHABU?$scalar_identity_op@M@internal@1@@Z 004465e0 f i fluidsim.obj
 0002:00014680       ??0?$CwiseUnaryOp@U?$scalar_abs2_op@M@internal@Eigen@@$$CBV?$CwiseBinaryOp@U?$scalar_difference_op@M@internal@Eigen@@$$CBV?$Matrix@M$02$02$0A@$02$02@3@$$CBV43@@3@@Eigen@@QAE@ABV?$CwiseBinaryOp@U?$scalar_difference_op@M@internal@Eigen@@$$CBV?$Matrix@M$02$02$0A@$02$02@3@$$CBV43@@1@ABU?$scalar_abs2_op@M@internal@1@@Z 00446680 f i fluidsim.obj
 0002:000146e0       ??0?$CwiseUnaryOp@U?$scalar_multiple_op@M@internal@Eigen@@$$CBV?$Matrix@M$02$00$0A@$02$00@3@@Eigen@@QAE@ABV01@@Z 004466e0 f i fluidsim.obj
 0002:00014750       ??0?$CwiseUnaryOp@U?$scalar_multiple_op@M@internal@Eigen@@$$CBV?$Matrix@M$02$00$0A@$02$00@3@@Eigen@@QAE@ABV?$Matrix@M$02$00$0A@$02$00@1@ABU?$scalar_multiple_op@M@internal@1@@Z 00446750 f i fluidsim.obj
 0002:000147a0       ??0?$CwiseUnaryOp@U?$scalar_multiple_op@M@internal@Eigen@@$$CBV?$Matrix@M$02$02$0A@$02$02@3@@Eigen@@QAE@ABV01@@Z 004467a0 f i fluidsim.obj
 0002:00014810       ??0?$CwiseUnaryOp@U?$scalar_multiple_op@M@internal@Eigen@@$$CBV?$Matrix@M$02$02$0A@$02$02@3@@Eigen@@QAE@ABV?$Matrix@M$02$02$0A@$02$02@1@ABU?$scalar_multiple_op@M@internal@1@@Z 00446810 f i fluidsim.obj
 0002:00014860       ??0?$CwiseUnaryOpImpl@U?$scalar_abs2_op@M@internal@Eigen@@$$CBV?$CwiseBinaryOp@U?$scalar_difference_op@M@internal@Eigen@@$$CBV?$Matrix@M$02$02$0A@$02$02@3@$$CBV43@@3@UDense@3@@Eigen@@QAE@XZ 00446860 f i fluidsim.obj
 0002:00014890       ??0?$CwiseUnaryOpImpl@U?$scalar_multiple_op@M@internal@Eigen@@$$CBV?$Matrix@M$02$00$0A@$02$00@3@UDense@3@@Eigen@@QAE@XZ 00446890 f i fluidsim.obj
 0002:000148c0       ??0?$CwiseUnaryOpImpl@U?$scalar_multiple_op@M@internal@Eigen@@$$CBV?$Matrix@M$02$02$0A@$02$02@3@UDense@3@@Eigen@@QAE@XZ 004468c0 f i fluidsim.obj
 0002:000148f0       ??0?$DenseBase@V?$Block@$$CBV?$Matrix@M$02$02$0A@$02$02@Eigen@@$02$00$00@Eigen@@@Eigen@@IAE@XZ 004468f0 f i fluidsim.obj
 0002:00014910       ??0?$DenseBase@V?$Block@$$CBV?$Matrix@M$02$02$0A@$02$02@Eigen@@$0?0$0?0$0A@@Eigen@@@Eigen@@IAE@XZ 00446910 f i fluidsim.obj
 0002:00014930       ??0?$DenseBase@V?$Block@V?$Matrix@M$01$01$0A@$01$01@Eigen@@$00$01$0A@@Eigen@@@Eigen@@IAE@XZ 00446930 f i fluidsim.obj
 0002:00014950       ??0?$DenseBase@V?$Block@V?$Matrix@M$02$00$0A@$02$00@Eigen@@$0?0$00$0A@@Eigen@@@Eigen@@IAE@XZ 00446950 f i fluidsim.obj
 0002:00014970       ??0?$DenseBase@V?$Block@V?$Matrix@M$02$02$0A@$02$02@Eigen@@$00$02$0A@@Eigen@@@Eigen@@IAE@XZ 00446970 f i fluidsim.obj
 0002:00014990       ??0?$DenseBase@V?$Block@V?$Matrix@M$02$02$0A@$02$02@Eigen@@$02$00$00@Eigen@@@Eigen@@IAE@XZ 00446990 f i fluidsim.obj
 0002:000149b0       ??0?$DenseBase@V?$CoeffBasedProduct@$$CBV?$CwiseUnaryOp@U?$scalar_multiple_op@M@internal@Eigen@@$$CBV?$Matrix@M$02$00$0A@$02$00@3@@Eigen@@$$CBV?$Transpose@V?$Matrix@M$02$00$0A@$02$00@Eigen@@@2@$0BAA@@Eigen@@@Eigen@@IAE@XZ 004469b0 f i fluidsim.obj
 0002:000149d0       ??0?$DenseBase@V?$CoeffBasedProduct@$$CBV?$CwiseUnaryOp@U?$scalar_multiple_op@M@internal@Eigen@@$$CBV?$Matrix@M$02$02$0A@$02$02@3@@Eigen@@ABV?$Matrix@M$02$00$0A@$02$00@2@$05@Eigen@@@Eigen@@IAE@XZ 004469d0 f i fluidsim.obj
 0002:000149f0       ??0?$DenseBase@V?$CoeffBasedProduct@ABV?$Matrix@M$02$02$00$02$02@Eigen@@ABV?$Matrix@M$02$02$0A@$02$02@2@$05@Eigen@@@Eigen@@IAE@XZ 004469f0 f i fluidsim.obj
 0002:00014a10       ??0?$DenseBase@V?$CoeffBasedProduct@ABV?$Matrix@M$02$02$0A@$02$02@Eigen@@$$CBV?$Transpose@V?$Matrix@M$02$02$0A@$02$02@Eigen@@@2@$05@Eigen@@@Eigen@@IAE@XZ 00446a10 f i fluidsim.obj
 0002:00014a30       ??0?$DenseBase@V?$CoeffBasedProduct@ABV?$Matrix@M$02$02$0A@$02$02@Eigen@@ABV12@$05@Eigen@@@Eigen@@IAE@XZ 00446a30 f i fluidsim.obj
 0002:00014a50       ??0?$DenseBase@V?$CoeffBasedProduct@ABV?$Matrix@M$02$02$0A@$02$02@Eigen@@V12@$05@Eigen@@@Eigen@@IAE@XZ 00446a50 f i fluidsim.obj
 0002:00014a70       ??0?$DenseBase@V?$CwiseBinaryOp@U?$scalar_difference_op@M@internal@Eigen@@$$CBV?$Matrix@M$02$02$0A@$02$02@3@$$CBV43@@Eigen@@@Eigen@@IAE@XZ 00446a70 f i fluidsim.obj
 0002:00014a90       ??0?$DenseBase@V?$CwiseBinaryOp@U?$scalar_product_op@MM@internal@Eigen@@$$CBV?$Matrix@M$02$00$0A@$02$00@3@$$CBV?$Block@$$CBV?$Matrix@M$02$02$0A@$02$02@Eigen@@$02$00$00@3@@Eigen@@@Eigen@@IAE@XZ 00446a90 f i fluidsim.obj
 0002:00014ab0       ??0?$DenseBase@V?$CwiseNullaryOp@U?$scalar_constant_op@M@internal@Eigen@@V?$Matrix@M$02$00$0A@$02$00@3@@Eigen@@@Eigen@@IAE@XZ 00446ab0 f i fluidsim.obj
 0002:00014ad0       ??0?$DenseBase@V?$CwiseNullaryOp@U?$scalar_constant_op@M@internal@Eigen@@V?$Matrix@M$02$02$0A@$02$02@3@@Eigen@@@Eigen@@IAE@XZ 00446ad0 f i fluidsim.obj
 0002:00014af0       ??0?$DenseBase@V?$CwiseNullaryOp@U?$scalar_identity_op@M@internal@Eigen@@V?$Matrix@M$02$02$0A@$02$02@3@@Eigen@@@Eigen@@IAE@XZ 00446af0 f i fluidsim.obj
 0002:00014b10       ??0?$DenseBase@V?$CwiseUnaryOp@U?$scalar_abs2_op@M@internal@Eigen@@$$CBV?$CwiseBinaryOp@U?$scalar_difference_op@M@internal@Eigen@@$$CBV?$Matrix@M$02$02$0A@$02$02@3@$$CBV43@@3@@Eigen@@@Eigen@@IAE@XZ 00446b10 f i fluidsim.obj
 0002:00014b30       ??0?$DenseBase@V?$CwiseUnaryOp@U?$scalar_multiple_op@M@internal@Eigen@@$$CBV?$Matrix@M$02$00$0A@$02$00@3@@Eigen@@@Eigen@@IAE@XZ 00446b30 f i fluidsim.obj
 0002:00014b50       ??0?$DenseBase@V?$CwiseUnaryOp@U?$scalar_multiple_op@M@internal@Eigen@@$$CBV?$Matrix@M$02$02$0A@$02$02@3@@Eigen@@@Eigen@@IAE@XZ 00446b50 f i fluidsim.obj
 0002:00014b70       ??0?$DenseBase@V?$Matrix@M$01$01$0A@$01$01@Eigen@@@Eigen@@IAE@XZ 00446b70 f i fluidsim.obj
 0002:00014b90       ??0?$DenseBase@V?$Matrix@M$02$00$0A@$02$00@Eigen@@@Eigen@@IAE@XZ 00446b90 f i fluidsim.obj
 0002:00014bb0       ??0?$DenseBase@V?$Matrix@M$02$02$00$02$02@Eigen@@@Eigen@@IAE@XZ 00446bb0 f i fluidsim.obj
 0002:00014bd0       ??0?$DenseBase@V?$Matrix@M$02$02$0A@$02$02@Eigen@@@Eigen@@IAE@XZ 00446bd0 f i fluidsim.obj
 0002:00014bf0       ??0?$DenseBase@V?$ReturnByValue@U?$inverse_impl@V?$Matrix@M$02$02$0A@$02$02@Eigen@@@internal@Eigen@@@Eigen@@@Eigen@@IAE@XZ 00446bf0 f i fluidsim.obj
 0002:00014c10       ??0?$DenseBase@V?$SelfCwiseBinaryOp@U?$scalar_difference_op@M@internal@Eigen@@V?$Matrix@M$02$00$0A@$02$00@3@V?$CoeffBasedProduct@$$CBV?$CwiseUnaryOp@U?$scalar_multiple_op@M@internal@Eigen@@$$CBV?$Matrix@M$02$02$0A@$02$02@3@@Eigen@@ABV?$Matrix@M$02$00$0A@$02$00@2@$05@3@@Eigen@@@Eigen@@IAE@XZ 00446c10 f i fluidsim.obj
 0002:00014c30       ??0?$DenseBase@V?$SelfCwiseBinaryOp@U?$scalar_product_op@MM@internal@Eigen@@V?$Block@V?$Matrix@M$02$02$0A@$02$02@Eigen@@$02$00$00@3@V?$CwiseNullaryOp@U?$scalar_constant_op@M@internal@Eigen@@V?$Matrix@M$02$00$0A@$02$00@3@@3@@Eigen@@@Eigen@@IAE@XZ 00446c30 f i fluidsim.obj
 0002:00014c50       ??0?$DenseBase@V?$SelfCwiseBinaryOp@U?$scalar_sum_op@M@internal@Eigen@@V?$Matrix@M$02$02$0A@$02$02@3@V?$CoeffBasedProduct@$$CBV?$CwiseUnaryOp@U?$scalar_multiple_op@M@internal@Eigen@@$$CBV?$Matrix@M$02$00$0A@$02$00@3@@Eigen@@$$CBV?$Transpose@V?$Matrix@M$02$00$0A@$02$00@Eigen@@@2@$0BAA@@3@@Eigen@@@Eigen@@IAE@XZ 00446c50 f i fluidsim.obj
 0002:00014c70       ??0?$DenseBase@V?$SwapWrapper@V?$Block@V?$Matrix@M$02$02$0A@$02$02@Eigen@@$02$00$00@Eigen@@@Eigen@@@Eigen@@IAE@XZ 00446c70 f i fluidsim.obj
 0002:00014c90       ??0?$DenseBase@V?$Transpose@$$CBV?$CwiseUnaryOp@U?$scalar_multiple_op@M@internal@Eigen@@$$CBV?$Matrix@M$02$00$0A@$02$00@3@@Eigen@@@Eigen@@@Eigen@@IAE@XZ 00446c90 f i fluidsim.obj
 0002:00014cb0       ??0?$DenseBase@V?$Transpose@$$CBV?$Matrix@M$02$00$0A@$02$00@Eigen@@@Eigen@@@Eigen@@IAE@XZ 00446cb0 f i fluidsim.obj
 0002:00014cd0       ??0?$DenseBase@V?$Transpose@V?$Matrix@M$02$00$0A@$02$00@Eigen@@@Eigen@@@Eigen@@IAE@XZ 00446cd0 f i fluidsim.obj
 0002:00014cf0       ??0?$DenseBase@V?$Transpose@V?$Matrix@M$02$02$0A@$02$02@Eigen@@@Eigen@@@Eigen@@IAE@XZ 00446cf0 f i fluidsim.obj
 0002:00014d10       ??0?$DenseStorage@M$02$02$00$0A@@Eigen@@QAE@HHH@Z 00446d10 f i fluidsim.obj
 0002:00014d40       ??0?$DenseStorage@M$02$02$00$0A@@Eigen@@QAE@XZ 00446d40 f i fluidsim.obj
 0002:00014d70       ??0?$DenseStorage@M$03$01$01$0A@@Eigen@@QAE@XZ 00446d70 f i fluidsim.obj
 0002:00014da0       ??0?$DenseStorage@M$08$02$02$00@Eigen@@QAE@HHH@Z 00446da0 f i fluidsim.obj
 0002:00014dd0       ??0?$DenseStorage@M$08$02$02$00@Eigen@@QAE@XZ 00446dd0 f i fluidsim.obj
 0002:00014e00       ??0?$DenseStorage@M$08$02$02$0A@@Eigen@@QAE@HHH@Z 00446e00 f i fluidsim.obj
 0002:00014e30       ??0?$DenseStorage@M$08$02$02$0A@@Eigen@@QAE@XZ 00446e30 f i fluidsim.obj
 0002:00014e60       ??0?$JacobiRotation@M@Eigen@@QAE@ABM0@Z 00446e60 f i fluidsim.obj
 0002:00014ea0       ??0?$JacobiRotation@M@Eigen@@QAE@XZ 00446ea0 f i fluidsim.obj
 0002:00014ec0       ??0?$JacobiSVD@V?$Matrix@M$02$02$0A@$02$02@Eigen@@$01@Eigen@@QAE@ABV?$Matrix@M$02$02$0A@$02$02@1@I@Z 00446ec0 f i fluidsim.obj
 0002:00014f70       ??0?$MapBase@V?$Block@$$CBV?$Matrix@M$02$02$0A@$02$02@Eigen@@$02$00$00@Eigen@@$0A@@Eigen@@QAE@PBMHH@Z 00446f70 f i fluidsim.obj
 0002:00015020       ??0?$MapBase@V?$Block@$$CBV?$Matrix@M$02$02$0A@$02$02@Eigen@@$0?0$0?0$0A@@Eigen@@$0A@@Eigen@@QAE@PBMHH@Z 00447020 f i fluidsim.obj
 0002:000150d0       ??0?$MapBase@V?$Block@V?$Matrix@M$01$01$0A@$01$01@Eigen@@$00$01$0A@@Eigen@@$00@Eigen@@QAE@PAMHH@Z 004470d0 f i fluidsim.obj
 0002:00015110       ??0?$MapBase@V?$Block@V?$Matrix@M$01$01$0A@$01$01@Eigen@@$00$01$0A@@Eigen@@$0A@@Eigen@@QAE@PAMHH@Z 00447110 f i fluidsim.obj
 0002:000151c0       ??0?$MapBase@V?$Block@V?$Matrix@M$02$00$0A@$02$00@Eigen@@$0?0$00$0A@@Eigen@@$00@Eigen@@QAE@PAMHH@Z 004471c0 f i fluidsim.obj
 0002:00015200       ??0?$MapBase@V?$Block@V?$Matrix@M$02$00$0A@$02$00@Eigen@@$0?0$00$0A@@Eigen@@$0A@@Eigen@@QAE@PAMHH@Z 00447200 f i fluidsim.obj
 0002:000152b0       ??0?$MapBase@V?$Block@V?$Matrix@M$02$02$0A@$02$02@Eigen@@$00$02$0A@@Eigen@@$00@Eigen@@QAE@PAMHH@Z 004472b0 f i fluidsim.obj
 0002:000152f0       ??0?$MapBase@V?$Block@V?$Matrix@M$02$02$0A@$02$02@Eigen@@$00$02$0A@@Eigen@@$0A@@Eigen@@QAE@PAMHH@Z 004472f0 f i fluidsim.obj
 0002:000153a0       ??0?$MapBase@V?$Block@V?$Matrix@M$02$02$0A@$02$02@Eigen@@$02$00$00@Eigen@@$00@Eigen@@QAE@PAMHH@Z 004473a0 f i fluidsim.obj
 0002:000153e0       ??0?$MapBase@V?$Block@V?$Matrix@M$02$02$0A@$02$02@Eigen@@$02$00$00@Eigen@@$0A@@Eigen@@QAE@PAMHH@Z 004473e0 f i fluidsim.obj
 0002:00015490       ??0?$Matrix@M$01$01$0A@$01$01@Eigen@@QAE@XZ 00447490 f i fluidsim.obj
 0002:000154c0       ??0?$Matrix@M$02$00$0A@$02$00@Eigen@@QAE@ABV01@@Z 004474c0 f i fluidsim.obj
 0002:00015530       ??0?$Matrix@M$02$00$0A@$02$00@Eigen@@QAE@XZ 00447530 f i fluidsim.obj
 0002:00015560       ??0?$Matrix@M$02$02$00$02$02@Eigen@@QAE@XZ 00447560 f i fluidsim.obj
 0002:00015590       ??0?$Matrix@M$02$02$0A@$02$02@Eigen@@QAE@ABV01@@Z 00447590 f i fluidsim.obj
 0002:00015600       ??0?$Matrix@M$02$02$0A@$02$02@Eigen@@QAE@XZ 00447600 f i fluidsim.obj
 0002:00015630       ??0?$MatrixBase@V?$Block@$$CBV?$Matrix@M$02$02$0A@$02$02@Eigen@@$02$00$00@Eigen@@@Eigen@@IAE@XZ 00447630 f i fluidsim.obj
 0002:00015660       ??0?$MatrixBase@V?$Block@$$CBV?$Matrix@M$02$02$0A@$02$02@Eigen@@$0?0$0?0$0A@@Eigen@@@Eigen@@IAE@XZ 00447660 f i fluidsim.obj
 0002:00015690       ??0?$MatrixBase@V?$Block@V?$Matrix@M$01$01$0A@$01$01@Eigen@@$00$01$0A@@Eigen@@@Eigen@@IAE@XZ 00447690 f i fluidsim.obj
 0002:000156c0       ??0?$MatrixBase@V?$Block@V?$Matrix@M$02$00$0A@$02$00@Eigen@@$0?0$00$0A@@Eigen@@@Eigen@@IAE@XZ 004476c0 f i fluidsim.obj
 0002:000156f0       ??0?$MatrixBase@V?$Block@V?$Matrix@M$02$02$0A@$02$02@Eigen@@$00$02$0A@@Eigen@@@Eigen@@IAE@XZ 004476f0 f i fluidsim.obj
 0002:00015720       ??0?$MatrixBase@V?$Block@V?$Matrix@M$02$02$0A@$02$02@Eigen@@$02$00$00@Eigen@@@Eigen@@IAE@XZ 00447720 f i fluidsim.obj
 0002:00015750       ??0?$MatrixBase@V?$CoeffBasedProduct@$$CBV?$CwiseUnaryOp@U?$scalar_multiple_op@M@internal@Eigen@@$$CBV?$Matrix@M$02$00$0A@$02$00@3@@Eigen@@$$CBV?$Transpose@V?$Matrix@M$02$00$0A@$02$00@Eigen@@@2@$0BAA@@Eigen@@@Eigen@@IAE@XZ 00447750 f i fluidsim.obj
 0002:00015780       ??0?$MatrixBase@V?$CoeffBasedProduct@$$CBV?$CwiseUnaryOp@U?$scalar_multiple_op@M@internal@Eigen@@$$CBV?$Matrix@M$02$02$0A@$02$02@3@@Eigen@@ABV?$Matrix@M$02$00$0A@$02$00@2@$05@Eigen@@@Eigen@@IAE@XZ 00447780 f i fluidsim.obj
 0002:000157b0       ??0?$MatrixBase@V?$CoeffBasedProduct@ABV?$Matrix@M$02$02$00$02$02@Eigen@@ABV?$Matrix@M$02$02$0A@$02$02@2@$05@Eigen@@@Eigen@@IAE@XZ 004477b0 f i fluidsim.obj
 0002:000157e0       ??0?$MatrixBase@V?$CoeffBasedProduct@ABV?$Matrix@M$02$02$0A@$02$02@Eigen@@$$CBV?$Transpose@V?$Matrix@M$02$02$0A@$02$02@Eigen@@@2@$05@Eigen@@@Eigen@@IAE@XZ 004477e0 f i fluidsim.obj
 0002:00015810       ??0?$MatrixBase@V?$CoeffBasedProduct@ABV?$Matrix@M$02$02$0A@$02$02@Eigen@@ABV12@$05@Eigen@@@Eigen@@IAE@XZ 00447810 f i fluidsim.obj
 0002:00015840       ??0?$MatrixBase@V?$CoeffBasedProduct@ABV?$Matrix@M$02$02$0A@$02$02@Eigen@@V12@$05@Eigen@@@Eigen@@IAE@XZ 00447840 f i fluidsim.obj
 0002:00015870       ??0?$MatrixBase@V?$CwiseBinaryOp@U?$scalar_difference_op@M@internal@Eigen@@$$CBV?$Matrix@M$02$02$0A@$02$02@3@$$CBV43@@Eigen@@@Eigen@@IAE@XZ 00447870 f i fluidsim.obj
 0002:000158a0       ??0?$MatrixBase@V?$CwiseBinaryOp@U?$scalar_product_op@MM@internal@Eigen@@$$CBV?$Matrix@M$02$00$0A@$02$00@3@$$CBV?$Block@$$CBV?$Matrix@M$02$02$0A@$02$02@Eigen@@$02$00$00@3@@Eigen@@@Eigen@@IAE@XZ 004478a0 f i fluidsim.obj
 0002:000158d0       ??0?$MatrixBase@V?$CwiseNullaryOp@U?$scalar_constant_op@M@internal@Eigen@@V?$Matrix@M$02$00$0A@$02$00@3@@Eigen@@@Eigen@@IAE@XZ 004478d0 f i fluidsim.obj
 0002:00015900       ??0?$MatrixBase@V?$CwiseNullaryOp@U?$scalar_constant_op@M@internal@Eigen@@V?$Matrix@M$02$02$0A@$02$02@3@@Eigen@@@Eigen@@IAE@XZ 00447900 f i fluidsim.obj
 0002:00015930       ??0?$MatrixBase@V?$CwiseNullaryOp@U?$scalar_identity_op@M@internal@Eigen@@V?$Matrix@M$02$02$0A@$02$02@3@@Eigen@@@Eigen@@IAE@XZ 00447930 f i fluidsim.obj
 0002:00015960       ??0?$MatrixBase@V?$CwiseUnaryOp@U?$scalar_abs2_op@M@internal@Eigen@@$$CBV?$CwiseBinaryOp@U?$scalar_difference_op@M@internal@Eigen@@$$CBV?$Matrix@M$02$02$0A@$02$02@3@$$CBV43@@3@@Eigen@@@Eigen@@IAE@XZ 00447960 f i fluidsim.obj
 0002:00015990       ??0?$MatrixBase@V?$CwiseUnaryOp@U?$scalar_multiple_op@M@internal@Eigen@@$$CBV?$Matrix@M$02$00$0A@$02$00@3@@Eigen@@@Eigen@@IAE@XZ 00447990 f i fluidsim.obj
 0002:000159c0       ??0?$MatrixBase@V?$CwiseUnaryOp@U?$scalar_multiple_op@M@internal@Eigen@@$$CBV?$Matrix@M$02$02$0A@$02$02@3@@Eigen@@@Eigen@@IAE@XZ 004479c0 f i fluidsim.obj
 0002:000159f0       ??0?$MatrixBase@V?$Matrix@M$01$01$0A@$01$01@Eigen@@@Eigen@@IAE@XZ 004479f0 f i fluidsim.obj
 0002:00015a20       ??0?$MatrixBase@V?$Matrix@M$02$00$0A@$02$00@Eigen@@@Eigen@@IAE@XZ 00447a20 f i fluidsim.obj
 0002:00015a50       ??0?$MatrixBase@V?$Matrix@M$02$02$00$02$02@Eigen@@@Eigen@@IAE@XZ 00447a50 f i fluidsim.obj
 0002:00015a80       ??0?$MatrixBase@V?$Matrix@M$02$02$0A@$02$02@Eigen@@@Eigen@@IAE@XZ 00447a80 f i fluidsim.obj
 0002:00015ab0       ??0?$MatrixBase@V?$ReturnByValue@U?$inverse_impl@V?$Matrix@M$02$02$0A@$02$02@Eigen@@@internal@Eigen@@@Eigen@@@Eigen@@IAE@XZ 00447ab0 f i fluidsim.obj
 0002:00015ae0       ??0?$MatrixBase@V?$SelfCwiseBinaryOp@U?$scalar_difference_op@M@internal@Eigen@@V?$Matrix@M$02$00$0A@$02$00@3@V?$CoeffBasedProduct@$$CBV?$CwiseUnaryOp@U?$scalar_multiple_op@M@internal@Eigen@@$$CBV?$Matrix@M$02$02$0A@$02$02@3@@Eigen@@ABV?$Matrix@M$02$00$0A@$02$00@2@$05@3@@Eigen@@@Eigen@@IAE@XZ 00447ae0 f i fluidsim.obj
 0002:00015b10       ??0?$MatrixBase@V?$SelfCwiseBinaryOp@U?$scalar_product_op@MM@internal@Eigen@@V?$Block@V?$Matrix@M$02$02$0A@$02$02@Eigen@@$02$00$00@3@V?$CwiseNullaryOp@U?$scalar_constant_op@M@internal@Eigen@@V?$Matrix@M$02$00$0A@$02$00@3@@3@@Eigen@@@Eigen@@IAE@XZ 00447b10 f i fluidsim.obj
 0002:00015b40       ??0?$MatrixBase@V?$SelfCwiseBinaryOp@U?$scalar_sum_op@M@internal@Eigen@@V?$Matrix@M$02$02$0A@$02$02@3@V?$CoeffBasedProduct@$$CBV?$CwiseUnaryOp@U?$scalar_multiple_op@M@internal@Eigen@@$$CBV?$Matrix@M$02$00$0A@$02$00@3@@Eigen@@$$CBV?$Transpose@V?$Matrix@M$02$00$0A@$02$00@Eigen@@@2@$0BAA@@3@@Eigen@@@Eigen@@IAE@XZ 00447b40 f i fluidsim.obj
 0002:00015b70       ??0?$MatrixBase@V?$SwapWrapper@V?$Block@V?$Matrix@M$02$02$0A@$02$02@Eigen@@$02$00$00@Eigen@@@Eigen@@@Eigen@@IAE@XZ 00447b70 f i fluidsim.obj
 0002:00015ba0       ??0?$MatrixBase@V?$Transpose@$$CBV?$CwiseUnaryOp@U?$scalar_multiple_op@M@internal@Eigen@@$$CBV?$Matrix@M$02$00$0A@$02$00@3@@Eigen@@@Eigen@@@Eigen@@IAE@XZ 00447ba0 f i fluidsim.obj
 0002:00015bd0       ??0?$MatrixBase@V?$Transpose@$$CBV?$Matrix@M$02$00$0A@$02$00@Eigen@@@Eigen@@@Eigen@@IAE@XZ 00447bd0 f i fluidsim.obj
 0002:00015c00       ??0?$MatrixBase@V?$Transpose@V?$Matrix@M$02$00$0A@$02$00@Eigen@@@Eigen@@@Eigen@@IAE@XZ 00447c00 f i fluidsim.obj
 0002:00015c30       ??0?$MatrixBase@V?$Transpose@V?$Matrix@M$02$02$0A@$02$02@Eigen@@@Eigen@@@Eigen@@IAE@XZ 00447c30 f i fluidsim.obj
 0002:00015c60       ??0?$PlainObjectBase@V?$Matrix@M$01$01$0A@$01$01@Eigen@@@Eigen@@QAE@XZ 00447c60 f i fluidsim.obj
 0002:00015c90       ??0?$PlainObjectBase@V?$Matrix@M$02$00$0A@$02$00@Eigen@@@Eigen@@QAE@HHH@Z 00447c90 f i fluidsim.obj
 0002:00015ce0       ??0?$PlainObjectBase@V?$Matrix@M$02$00$0A@$02$00@Eigen@@@Eigen@@QAE@XZ 00447ce0 f i fluidsim.obj
 0002:00015d10       ??0?$PlainObjectBase@V?$Matrix@M$02$02$00$02$02@Eigen@@@Eigen@@QAE@HHH@Z 00447d10 f i fluidsim.obj
 0002:00015d60       ??0?$PlainObjectBase@V?$Matrix@M$02$02$00$02$02@Eigen@@@Eigen@@QAE@XZ 00447d60 f i fluidsim.obj
 0002:00015d90       ??0?$PlainObjectBase@V?$Matrix@M$02$02$0A@$02$02@Eigen@@@Eigen@@QAE@HHH@Z 00447d90 f i fluidsim.obj
 0002:00015de0       ??0?$PlainObjectBase@V?$Matrix@M$02$02$0A@$02$02@Eigen@@@Eigen@@QAE@XZ 00447de0 f i fluidsim.obj
 0002:00015e10       ??0?$ReturnByValue@U?$inverse_impl@V?$Matrix@M$02$02$0A@$02$02@Eigen@@@internal@Eigen@@@Eigen@@QAE@XZ 00447e10 f i fluidsim.obj
 0002:00015e40       ??0?$SelfCwiseBinaryOp@U?$scalar_difference_op@M@internal@Eigen@@V?$Matrix@M$02$00$0A@$02$00@3@V?$CoeffBasedProduct@$$CBV?$CwiseUnaryOp@U?$scalar_multiple_op@M@internal@Eigen@@$$CBV?$Matrix@M$02$02$0A@$02$02@3@@Eigen@@ABV?$Matrix@M$02$00$0A@$02$00@2@$05@3@@Eigen@@QAE@AAV?$Matrix@M$02$00$0A@$02$00@1@ABU?$scalar_difference_op@M@internal@1@@Z 00447e40 f i fluidsim.obj
 0002:00015e80       ??0?$SelfCwiseBinaryOp@U?$scalar_product_op@MM@internal@Eigen@@V?$Block@V?$Matrix@M$02$02$0A@$02$02@Eigen@@$02$00$00@3@V?$CwiseNullaryOp@U?$scalar_constant_op@M@internal@Eigen@@V?$Matrix@M$02$00$0A@$02$00@3@@3@@Eigen@@QAE@AAV?$Block@V?$Matrix@M$02$02$0A@$02$02@Eigen@@$02$00$00@1@ABU?$scalar_product_op@MM@internal@1@@Z 00447e80 f i fluidsim.obj
 0002:00015ec0       ??0?$SelfCwiseBinaryOp@U?$scalar_sum_op@M@internal@Eigen@@V?$Matrix@M$02$02$0A@$02$02@3@V?$CoeffBasedProduct@$$CBV?$CwiseUnaryOp@U?$scalar_multiple_op@M@internal@Eigen@@$$CBV?$Matrix@M$02$00$0A@$02$00@3@@Eigen@@$$CBV?$Transpose@V?$Matrix@M$02$00$0A@$02$00@Eigen@@@2@$0BAA@@3@@Eigen@@QAE@AAV?$Matrix@M$02$02$0A@$02$02@1@ABU?$scalar_sum_op@M@internal@1@@Z 00447ec0 f i fluidsim.obj
 0002:00015f00       ??0?$SwapWrapper@V?$Block@V?$Matrix@M$02$02$0A@$02$02@Eigen@@$02$00$00@Eigen@@@Eigen@@QAE@AAV?$Block@V?$Matrix@M$02$02$0A@$02$02@Eigen@@$02$00$00@1@@Z 00447f00 f i fluidsim.obj
 0002:00015f40       ??0?$Transpose@$$CBV?$CwiseUnaryOp@U?$scalar_multiple_op@M@internal@Eigen@@$$CBV?$Matrix@M$02$00$0A@$02$00@3@@Eigen@@@Eigen@@QAE@ABV?$CwiseUnaryOp@U?$scalar_multiple_op@M@internal@Eigen@@$$CBV?$Matrix@M$02$00$0A@$02$00@3@@1@@Z 00447f40 f i fluidsim.obj
 0002:00015f80       ??0?$Transpose@$$CBV?$Matrix@M$02$00$0A@$02$00@Eigen@@@Eigen@@QAE@ABV?$Matrix@M$02$00$0A@$02$00@1@@Z 00447f80 f i fluidsim.obj
 0002:00015fc0       ??0?$Transpose@V?$Matrix@M$02$00$0A@$02$00@Eigen@@@Eigen@@QAE@AAV?$Matrix@M$02$00$0A@$02$00@1@@Z 00447fc0 f i fluidsim.obj
 0002:00016000       ??0?$Transpose@V?$Matrix@M$02$02$0A@$02$02@Eigen@@@Eigen@@QAE@AAV?$Matrix@M$02$02$0A@$02$02@1@@Z 00448000 f i fluidsim.obj
 0002:00016040       ??0?$TransposeImpl@$$CBV?$CwiseUnaryOp@U?$scalar_multiple_op@M@internal@Eigen@@$$CBV?$Matrix@M$02$00$0A@$02$00@3@@Eigen@@UDense@2@@Eigen@@QAE@XZ 00448040 f i fluidsim.obj
 0002:00016070       ??0?$TransposeImpl@$$CBV?$Matrix@M$02$00$0A@$02$00@Eigen@@UDense@2@@Eigen@@QAE@XZ 00448070 f i fluidsim.obj
 0002:000160a0       ??0?$TransposeImpl@V?$Matrix@M$02$00$0A@$02$00@Eigen@@UDense@2@@Eigen@@QAE@XZ 004480a0 f i fluidsim.obj
 0002:000160d0       ??0?$TransposeImpl@V?$Matrix@M$02$02$0A@$02$02@Eigen@@UDense@2@@Eigen@@QAE@XZ 004480d0 f i fluidsim.obj
 0002:00016100       ??0?$Vec@$02I@@QAE@III@Z   00448100 f i fluidsim.obj
 0002:00016160       ??0?$Vec@$02M@@QAE@M@Z     00448160 f i fluidsim.obj
 0002:000161c0       ??0?$Vec@$02M@@QAE@MMM@Z   004481c0 f i fluidsim.obj
 0002:00016230       ??0?$Vec@$02M@@QAE@XZ      00448230 f i fluidsim.obj
 0002:00016250       ??0?$VectorBlock@V?$Matrix@M$02$00$0A@$02$00@Eigen@@$0?0@Eigen@@QAE@AAV?$Matrix@M$02$00$0A@$02$00@1@HH@Z 00448250 f i fluidsim.obj
 0002:00016310       ??0?$_String_alloc@$0A@U?$_String_base_types@DV?$allocator@D@std@@@std@@@std@@QAE@ABV?$allocator@D@1@@Z 00448310 f i fluidsim.obj
 0002:00016340       ??0?$_String_const_iterator@V?$_String_val@U?$_Simple_types@D@std@@@std@@@std@@QAE@PBDPBU_Container_base0@1@@Z 00448340 f i fluidsim.obj
 0002:00016380       ??0?$_String_iterator@V?$_String_val@U?$_Simple_types@D@std@@@std@@@std@@QAE@PADPBU_Container_base0@1@@Z 00448380 f i fluidsim.obj
 0002:000163c0       ??0?$_String_val@U?$_Simple_types@D@std@@@std@@QAE@XZ 004483c0 f i fluidsim.obj
 0002:00016400       ??0?$_Vector_alloc@$0A@U?$_Vec_base_types@U?$Vec@$02I@@V?$allocator@U?$Vec@$02I@@@std@@@std@@@std@@QAE@ABV?$allocator@U?$Vec@$02I@@@1@@Z 00448400 f i fluidsim.obj
 0002:00016430       ??0?$_Vector_alloc@$0A@U?$_Vec_base_types@U?$Vec@$02M@@V?$allocator@U?$Vec@$02M@@@std@@@std@@@std@@QAE@ABV?$allocator@U?$Vec@$02M@@@1@@Z 00448430 f i fluidsim.obj
 0002:00016460       ??0?$_Vector_const_iterator@V?$_Vector_val@U?$_Simple_types@UParticle@@@std@@@std@@@std@@QAE@PAUParticle@@PBU_Container_base0@1@@Z 00448460 f i fluidsim.obj
 0002:000164a0       ??0?$_Vector_iterator@V?$_Vector_val@U?$_Simple_types@UParticle@@@std@@@std@@@std@@QAE@PAUParticle@@PBU_Container_base0@1@@Z 004484a0 f i fluidsim.obj
 0002:000164e0       ??0?$_Vector_val@U?$_Simple_types@U?$Vec@$02I@@@std@@@std@@QAE@XZ 004484e0 f i fluidsim.obj
 0002:00016520       ??0?$_Vector_val@U?$_Simple_types@U?$Vec@$02M@@@std@@@std@@QAE@XZ 00448520 f i fluidsim.obj
 0002:00016560       ??0?$_Wrap_alloc@V?$allocator@D@std@@@std@@QAE@ABV?$allocator@D@1@@Z 00448560 f i fluidsim.obj
 0002:00016590       ??0?$_Wrap_alloc@V?$allocator@D@std@@@std@@QAE@XZ 00448590 f i fluidsim.obj
 0002:000165c0       ??0?$_Wrap_alloc@V?$allocator@U?$Vec@$02I@@@std@@@std@@QAE@XZ 004485c0 f i fluidsim.obj
 0002:000165f0       ??0?$_Wrap_alloc@V?$allocator@U?$Vec@$02M@@@std@@@std@@QAE@XZ 004485f0 f i fluidsim.obj
 0002:00016620       ??0?$_Wrap_alloc@V?$allocator@UParticle@@@std@@@std@@QAE@XZ 00448620 f i fluidsim.obj
 0002:00016650       ??0?$allocator@D@std@@QAE@ABV01@@Z 00448650 f i fluidsim.obj
 0002:00016670       ??0?$allocator@D@std@@QAE@XZ 00448670 f i fluidsim.obj
 0002:00016690       ??0?$allocator@U?$Vec@$02I@@@std@@QAE@XZ 00448690 f i fluidsim.obj
 0002:000166b0       ??0?$allocator@U?$Vec@$02M@@@std@@QAE@XZ 004486b0 f i fluidsim.obj
 0002:000166d0       ??0?$allocator@UParticle@@@std@@QAE@XZ 004486d0 f i fluidsim.obj
 0002:000166f0       ??0?$basic_filebuf@DU?$char_traits@D@std@@@std@@QAE@PAU_iobuf@@@Z 004486f0 f i fluidsim.obj
 0002:00016780       ??0?$basic_ifstream@DU?$char_traits@D@std@@@std@@QAE@ABV?$basic_string@DU?$char_traits@D@std@@V?$allocator@D@2@@1@HH@Z 00448780 f i fluidsim.obj
 0002:000168d0       ??0?$basic_ofstream@DU?$char_traits@D@std@@@std@@QAE@PBDHH@Z 004488d0 f i fluidsim.obj
 0002:00016a20       ??0?$basic_string@DU?$char_traits@D@std@@V?$allocator@D@2@@std@@QAE@$$QAV01@@Z 00448a20 f i fluidsim.obj
 0002:00016a90       ??0?$basic_string@DU?$char_traits@D@std@@V?$allocator@D@2@@std@@QAE@ABV01@@Z 00448a90 f i fluidsim.obj
 0002:00016b00       ??0?$basic_string@DU?$char_traits@D@std@@V?$allocator@D@2@@std@@QAE@ABV01@IIABV?$allocator@D@1@@Z 00448b00 f i fluidsim.obj
 0002:00016b60       ??0?$basic_string@DU?$char_traits@D@std@@V?$allocator@D@2@@std@@QAE@ID@Z 00448b60 f i fluidsim.obj
 0002:00016bc0       ??0?$basic_string@DU?$char_traits@D@std@@V?$allocator@D@2@@std@@QAE@PBD@Z 00448bc0 f i fluidsim.obj
 0002:00016c20       ??0?$basic_string@DU?$char_traits@D@std@@V?$allocator@D@2@@std@@QAE@XZ 00448c20 f i fluidsim.obj
 0002:00016c60       ??0?$basic_stringbuf@DU?$char_traits@D@std@@V?$allocator@D@2@@std@@QAE@ABV?$basic_string@DU?$char_traits@D@std@@V?$allocator@D@2@@1@H@Z 00448c60 f i fluidsim.obj
 0002:00016d20       ??0?$basic_stringstream@DU?$char_traits@D@std@@V?$allocator@D@2@@std@@QAE@ABV?$basic_string@DU?$char_traits@D@std@@V?$allocator@D@2@@1@H@Z 00448d20 f i fluidsim.obj
 0002:00016e40       ??0?$fpos@H@std@@QAE@H_J@Z 00448e40 f i fluidsim.obj
 0002:00016e90       ??0?$fpos@H@std@@QAE@_J@Z  00448e90 f i fluidsim.obj
 0002:00016ef0       ??0?$inverse_impl@V?$Matrix@M$02$02$0A@$02$02@Eigen@@@internal@Eigen@@QAE@ABV?$Matrix@M$02$02$0A@$02$02@2@@Z 00448ef0 f i fluidsim.obj
 0002:00016f30       ??0?$plain_array@M$02$0A@$0A@@internal@Eigen@@QAE@XZ 00448f30 f i fluidsim.obj
 0002:00016f50       ??0?$plain_array@M$03$0A@$0BA@@internal@Eigen@@QAE@XZ 00448f50 f i fluidsim.obj
 0002:00016fa0       ??0?$plain_array@M$08$00$0A@@internal@Eigen@@QAE@XZ 00448fa0 f i fluidsim.obj
 0002:00016fc0       ??0?$plain_array@M$08$0A@$0A@@internal@Eigen@@QAE@XZ 00448fc0 f i fluidsim.obj
 0002:00016fe0       ??0?$scalar_constant_op@M@internal@Eigen@@QAE@ABM@Z 00448fe0 f i fluidsim.obj
 0002:00017010       ??0?$scalar_constant_op@M@internal@Eigen@@QAE@ABU012@@Z 00449010 f i fluidsim.obj
 0002:00017040       ??0?$scalar_multiple_op@M@internal@Eigen@@QAE@ABM@Z 00449040 f i fluidsim.obj
 0002:00017070       ??0?$scalar_multiple_op@M@internal@Eigen@@QAE@ABU012@@Z 00449070 f i fluidsim.obj
 0002:000170a0       ??0?$variable_if_dynamic@H$00@internal@Eigen@@QAE@H@Z 004490a0 f i fluidsim.obj
 0002:000170e0       ??0?$variable_if_dynamic@H$01@internal@Eigen@@QAE@H@Z 004490e0 f i fluidsim.obj
 0002:00017120       ??0?$variable_if_dynamic@H$02@internal@Eigen@@QAE@H@Z 00449120 f i fluidsim.obj
 0002:00017160       ??0?$variable_if_dynamic@H$0?0@internal@Eigen@@QAE@H@Z 00449160 f i fluidsim.obj
 0002:00017190       ??0?$vector@U?$Vec@$02I@@V?$allocator@U?$Vec@$02I@@@std@@@std@@QAE@XZ 00449190 f i fluidsim.obj
 0002:000171c0       ??0?$vector@U?$Vec@$02M@@V?$allocator@U?$Vec@$02M@@@std@@@std@@QAE@XZ 004491c0 f i fluidsim.obj
 0002:000171f0       ??0Particle@@QAE@ABU0@@Z   004491f0 f i fluidsim.obj
 0002:00017300       ??0Particle@@QAE@U?$Vec@$02M@@M@Z 00449300 f i fluidsim.obj
 0002:00017460       ??0_Generic_error_category@std@@QAE@XZ 00449460 f i fluidsim.obj
 0002:00017490       ??0_Ignore@std@@QAE@XZ     00449490 f i fluidsim.obj
 0002:000174b0       ??0_Iostream_error_category@std@@QAE@XZ 004494b0 f i fluidsim.obj
 0002:000174e0       ??0_Sentry_base@?$basic_istream@DU?$char_traits@D@std@@@std@@QAE@AAV12@@Z 004494e0 f i fluidsim.obj
 0002:00017560       ??0_Sentry_base@?$basic_ostream@DU?$char_traits@D@std@@@std@@QAE@AAV12@@Z 00449560 f i fluidsim.obj
 0002:000175e0       ??0_System_error_category@std@@QAE@XZ 004495e0 f i fluidsim.obj
 0002:00017610       ??0bad_alloc@std@@QAE@ABV01@@Z 00449610 f i fluidsim.obj
 0002:00017650       ??0bad_alloc@std@@QAE@XZ   00449650 f i fluidsim.obj
 0002:000176a0       ??0error_category@std@@QAE@XZ 004496a0 f i fluidsim.obj
 0002:000176d0       ??0error_condition@std@@QAE@HABVerror_category@1@@Z 004496d0 f i fluidsim.obj
 0002:00017710       ??0sentry@?$basic_istream@DU?$char_traits@D@std@@@std@@QAE@AAV12@_N@Z 00449710 f i fluidsim.obj
 0002:000177a0       ??0sentry@?$basic_ostream@DU?$char_traits@D@std@@@std@@QAE@AAV12@@Z 004497a0 f i fluidsim.obj
 0002:000178a0       ??1?$CommaInitializer@V?$Matrix@M$01$01$0A@$01$01@Eigen@@@Eigen@@QAE@XZ 004498a0 f i fluidsim.obj
 0002:00017920       ??1?$basic_filebuf@DU?$char_traits@D@std@@@std@@UAE@XZ 00449920 f i fluidsim.obj
 0002:00017980       ??1?$basic_ifstream@DU?$char_traits@D@std@@@std@@UAE@XZ 00449980 f i fluidsim.obj
 0002:000179f0       ??1?$basic_ofstream@DU?$char_traits@D@std@@@std@@UAE@XZ 004499f0 f i fluidsim.obj
 0002:00017a60       ??1?$basic_string@DU?$char_traits@D@std@@V?$allocator@D@2@@std@@QAE@XZ 00449a60 f i fluidsim.obj
 0002:00017a90       ??1?$basic_stringbuf@DU?$char_traits@D@std@@V?$allocator@D@2@@std@@UAE@XZ 00449a90 f i fluidsim.obj
 0002:00017ad0       ??1?$basic_stringstream@DU?$char_traits@D@std@@V?$allocator@D@2@@std@@UAE@XZ 00449ad0 f i fluidsim.obj
 0002:00017b40       ??1?$vector@U?$Vec@$02I@@V?$allocator@U?$Vec@$02I@@@std@@@std@@QAE@XZ 00449b40 f i fluidsim.obj
 0002:00017b70       ??1?$vector@U?$Vec@$02M@@V?$allocator@U?$Vec@$02M@@@std@@@std@@QAE@XZ 00449b70 f i fluidsim.obj
 0002:00017ba0       ??1_Generic_error_category@std@@UAE@XZ 00449ba0 f i fluidsim.obj
 0002:00017bd0       ??1_Iostream_error_category@std@@UAE@XZ 00449bd0 f i fluidsim.obj
 0002:00017c00       ??1_Sentry_base@?$basic_istream@DU?$char_traits@D@std@@@std@@QAE@XZ 00449c00 f i fluidsim.obj
 0002:00017c70       ??1_Sentry_base@?$basic_ostream@DU?$char_traits@D@std@@@std@@QAE@XZ 00449c70 f i fluidsim.obj
 0002:00017ce0       ??1_System_error_category@std@@UAE@XZ 00449ce0 f i fluidsim.obj
 0002:00017d10       ??1bad_alloc@std@@UAE@XZ   00449d10 f i fluidsim.obj
 0002:00017d40       ??1error_category@std@@UAE@XZ 00449d40 f i fluidsim.obj
 0002:00017d70       ??1locale@std@@QAE@XZ      00449d70 f i fluidsim.obj
 0002:00017de0       ??1sentry@?$basic_istream@DU?$char_traits@D@std@@@std@@QAE@XZ 00449de0 f i fluidsim.obj
 0002:00017e10       ??1sentry@?$basic_ostream@DU?$char_traits@D@std@@@std@@QAE@XZ 00449e10 f i fluidsim.obj
 0002:00017e50       ??2@YAPAXIPAX@Z            00449e50 f i fluidsim.obj
 0002:00017e70       ??3@YAXPAX0@Z              00449e70 f i fluidsim.obj
 0002:00017e90       ??4?$Array1@M@@QAEAAU0@ABU0@@Z 00449e90 f i fluidsim.obj
 0002:00017f60       ??4?$Array3@MU?$Array1@M@@@@QAEAAU0@ABU0@@Z 00449f60 f i fluidsim.obj
 0002:00017fc0       ??4?$Matrix@M$02$02$0A@$02$02@Eigen@@QAEAAV01@ABV01@@Z 00449fc0 f i fluidsim.obj
 0002:00017ff0       ??4?$SelfCwiseBinaryOp@U?$scalar_difference_op@M@internal@Eigen@@V?$Matrix@M$02$00$0A@$02$00@3@V?$CoeffBasedProduct@$$CBV?$CwiseUnaryOp@U?$scalar_multiple_op@M@internal@Eigen@@$$CBV?$Matrix@M$02$02$0A@$02$02@3@@Eigen@@ABV?$Matrix@M$02$00$0A@$02$00@2@$05@3@@Eigen@@QAEAAV01@ABV?$CoeffBasedProduct@$$CBV?$CwiseUnaryOp@U?$scalar_multiple_op@M@internal@Eigen@@$$CBV?$Matrix@M$02$02$0A@$02$02@3@@Eigen@@ABV?$Matrix@M$02$00$0A@$02$00@2@$05@1@@Z 00449ff0 f i fluidsim.obj
 0002:00018030       ??4?$SelfCwiseBinaryOp@U?$scalar_product_op@MM@internal@Eigen@@V?$Block@V?$Matrix@M$02$02$0A@$02$02@Eigen@@$02$00$00@3@V?$CwiseNullaryOp@U?$scalar_constant_op@M@internal@Eigen@@V?$Matrix@M$02$00$0A@$02$00@3@@3@@Eigen@@QAEAAV01@ABV?$CwiseNullaryOp@U?$scalar_constant_op@M@internal@Eigen@@V?$Matrix@M$02$00$0A@$02$00@3@@1@@Z 0044a030 f i fluidsim.obj
 0002:00018090       ??4?$SelfCwiseBinaryOp@U?$scalar_sum_op@M@internal@Eigen@@V?$Matrix@M$02$02$0A@$02$02@3@V?$CoeffBasedProduct@$$CBV?$CwiseUnaryOp@U?$scalar_multiple_op@M@internal@Eigen@@$$CBV?$Matrix@M$02$00$0A@$02$00@3@@Eigen@@$$CBV?$Transpose@V?$Matrix@M$02$00$0A@$02$00@Eigen@@@2@$0BAA@@3@@Eigen@@QAEAAV01@ABV?$CoeffBasedProduct@$$CBV?$CwiseUnaryOp@U?$scalar_multiple_op@M@internal@Eigen@@$$CBV?$Matrix@M$02$00$0A@$02$00@3@@Eigen@@$$CBV?$Transpose@V?$Matrix@M$02$00$0A@$02$00@Eigen@@@2@$0BAA@@1@@Z 0044a090 f i fluidsim.obj
 0002:000180e0       ??4?$basic_string@DU?$char_traits@D@std@@V?$allocator@D@2@@std@@QAEAAV01@PBD@Z 0044a0e0 f i fluidsim.obj
 0002:00018110       ??4Particle@@QAEAAU0@ABU0@@Z 0044a110 f i fluidsim.obj
 0002:00018220       ??6?$DenseBase@V?$Matrix@M$01$01$0A@$01$01@Eigen@@@Eigen@@QAE?AU?$CommaInitializer@V?$Matrix@M$01$01$0A@$01$01@Eigen@@@1@ABM@Z 0044a220 f i fluidsim.obj
 0002:00018270       ??8error_category@std@@QBE_NABV01@@Z 0044a270 f i fluidsim.obj
 0002:000182b0       ??8error_condition@std@@QBE_NABV01@@Z 0044a2b0 f i fluidsim.obj
 0002:00018330       ??A?$Array1@H@@QAEAAHK@Z   0044a330 f i fluidsim.obj
 0002:00018360       ??A?$Array1@M@@QAEAAMK@Z   0044a360 f i fluidsim.obj
 0002:00018390       ??A?$Array1@M@@QBEABMK@Z   0044a390 f i fluidsim.obj
 0002:000183c0       ??A?$Vec@$02M@@QAEAAMH@Z   0044a3c0 f i fluidsim.obj
 0002:00018410       ??A?$Vec@$02M@@QBEABMH@Z   0044a410 f i fluidsim.obj
 0002:00018460       ??A?$vector@UParticle@@V?$allocator@UParticle@@@std@@@std@@QAEAAUParticle@@I@Z 0044a460 f i fluidsim.obj
 0002:00018490       ??B?$CoeffBasedProduct@$$CBV?$CwiseUnaryOp@U?$scalar_multiple_op@M@internal@Eigen@@$$CBV?$Matrix@M$02$02$0A@$02$02@3@@Eigen@@ABV?$Matrix@M$02$00$0A@$02$00@2@$05@Eigen@@QBEABV?$Matrix@M$02$00$0A@$02$00@1@XZ 0044a490 f i fluidsim.obj
 0002:000184e0       ??B?$CoeffBasedProduct@ABV?$Matrix@M$02$02$0A@$02$02@Eigen@@$$CBV?$Transpose@V?$Matrix@M$02$02$0A@$02$02@Eigen@@@2@$05@Eigen@@QBEABV?$Matrix@M$02$02$00$02$02@1@XZ 0044a4e0 f i fluidsim.obj
 0002:00018530       ??B?$CoeffBasedProduct@ABV?$Matrix@M$02$02$0A@$02$02@Eigen@@ABV12@$05@Eigen@@QBEABV?$Matrix@M$02$02$0A@$02$02@1@XZ 0044a530 f i fluidsim.obj
 0002:00018580       ??B?$CoeffBasedProduct@ABV?$Matrix@M$02$02$0A@$02$02@Eigen@@V12@$05@Eigen@@QBEABV?$Matrix@M$02$02$0A@$02$02@1@XZ 0044a580 f i fluidsim.obj
 0002:000185d0       ??B?$fpos@H@std@@QBE_JXZ   0044a5d0 f i fluidsim.obj
 0002:00018610       ??Bsentry@?$basic_istream@DU?$char_traits@D@std@@@std@@QBEPQ?$_Bool_struct@V?$basic_istream@DU?$char_traits@D@std@@@std@@@2@HXZ 0044a610 f i fluidsim.obj
 0002:00018650       ??Bsentry@?$basic_ostream@DU?$char_traits@D@std@@@std@@QBEPQ?$_Bool_struct@V?$basic_ostream@DU?$char_traits@D@std@@@std@@@2@HXZ 0044a650 f i fluidsim.obj
 0002:00018690       ??D?$JacobiRotation@M@Eigen@@QAE?AV01@ABV01@@Z 0044a690 f i fluidsim.obj
 0002:000187b0       ??D?$MatrixBase@V?$Matrix@M$02$00$0A@$02$00@Eigen@@@Eigen@@QBE?BV?$CwiseUnaryOp@U?$scalar_multiple_op@M@internal@Eigen@@$$CBV?$Matrix@M$02$00$0A@$02$00@3@@1@ABM@Z 0044a7b0 f i fluidsim.obj
 0002:00018800       ??D?$MatrixBase@V?$Matrix@M$02$02$0A@$02$02@Eigen@@@Eigen@@QBE?BV?$CwiseUnaryOp@U?$scalar_multiple_op@M@internal@Eigen@@$$CBV?$Matrix@M$02$02$0A@$02$02@3@@1@ABM@Z 0044a800 f i fluidsim.obj
 0002:00018850       ??D?$Vec@$02M@@QBE?AU0@M@Z 0044a850 f i fluidsim.obj
 0002:000188e0       ??D?$_String_const_iterator@V?$_String_val@U?$_Simple_types@D@std@@@std@@@std@@QBEABDXZ 0044a8e0 f i fluidsim.obj
 0002:00018900       ??D?$_String_iterator@V?$_String_val@U?$_Simple_types@D@std@@@std@@@std@@QBEAADXZ 0044a900 f i fluidsim.obj
 0002:00018930       ??DEigen@@YA?BV?$CwiseUnaryOp@U?$scalar_multiple_op@M@internal@Eigen@@$$CBV?$Matrix@M$02$00$0A@$02$00@3@@0@ABMABV?$MatrixBase@V?$Matrix@M$02$00$0A@$02$00@Eigen@@@0@@Z 0044a930 f i fluidsim.obj
 0002:00018960       ??DEigen@@YA?BV?$CwiseUnaryOp@U?$scalar_multiple_op@M@internal@Eigen@@$$CBV?$Matrix@M$02$02$0A@$02$02@3@@0@ABMABV?$MatrixBase@V?$Matrix@M$02$02$0A@$02$02@Eigen@@@0@@Z 0044a960 f i fluidsim.obj
 0002:00018990       ??G?$Vec@$02M@@QBE?AU0@ABU0@@Z 0044a990 f i fluidsim.obj
 0002:00018a10       ??G?$_Vector_const_iterator@V?$_Vector_val@U?$_Simple_types@UParticle@@@std@@@std@@@std@@QBEHABV01@@Z 0044aa10 f i fluidsim.obj
 0002:00018a50       ??G?$_Vector_iterator@V?$_Vector_val@U?$_Simple_types@UParticle@@@std@@@std@@@std@@QBEHABV?$_Vector_const_iterator@V?$_Vector_val@U?$_Simple_types@UParticle@@@std@@@std@@@1@@Z 0044aa50 f i fluidsim.obj
 0002:00018a80       ??H?$Vec@$02M@@QBE?AU0@ABU0@@Z 0044aa80 f i fluidsim.obj
 0002:00018b00       ??K?$Vec@$02M@@QBE?AU0@M@Z 0044ab00 f i fluidsim.obj
 0002:00018b90       ??Q?$CommaInitializer@V?$Matrix@M$01$01$0A@$01$01@Eigen@@@Eigen@@QAEAAU01@ABM@Z 0044ab90 f i fluidsim.obj
 0002:00018ce0       ??R?$Array3@HU?$Array1@H@@@@QAEAAHHHH@Z 0044ace0 f i fluidsim.obj
 0002:00018d80       ??R?$Array3@MU?$Array1@M@@@@QAEAAMHHH@Z 0044ad80 f i fluidsim.obj
 0002:00018e20       ??R?$Array3@MU?$Array1@M@@@@QBEABMHHH@Z 0044ae20 f i fluidsim.obj
 0002:00018ec0       ??R?$DenseCoeffsBase@V?$Matrix@M$02$00$0A@$02$00@Eigen@@$00@Eigen@@QAEAAMH@Z 0044aec0 f i fluidsim.obj
 0002:00018f30       ??R?$DenseCoeffsBase@V?$Matrix@M$02$02$0A@$02$02@Eigen@@$00@Eigen@@QAEAAMHH@Z 0044af30 f i fluidsim.obj
 0002:00018fc0       ??R?$max_coeff_visitor@V?$Block@V?$Matrix@M$02$00$0A@$02$00@Eigen@@$0?0$00$0A@@Eigen@@@internal@Eigen@@QAEXABMHH@Z 0044afc0 f i fluidsim.obj
 0002:00019020       ??R?$scalar_abs2_op@M@internal@Eigen@@QBE?BMABM@Z 0044b020 f i fluidsim.obj
 0002:00019050       ??R?$scalar_difference_op@M@internal@Eigen@@QBE?BMABM0@Z 0044b050 f i fluidsim.obj
 0002:00019090       ??R?$scalar_multiple_op@M@internal@Eigen@@QBEMABM@Z 0044b090 f i fluidsim.obj
 0002:000190d0       ??R?$scalar_product_op@MM@internal@Eigen@@QBE?BMABM0@Z 0044b0d0 f i fluidsim.obj
 0002:00019110       ??R?$scalar_sum_op@M@internal@Eigen@@QBE?BMABM0@Z 0044b110 f i fluidsim.obj
 0002:00019150       ??X?$DenseBase@V?$Block@V?$Matrix@M$02$02$0A@$02$02@Eigen@@$02$00$00@Eigen@@@Eigen@@QAEAAV?$Block@V?$Matrix@M$02$02$0A@$02$02@Eigen@@$02$00$00@1@ABM@Z 0044b150 f i fluidsim.obj
 0002:000191d0       ??X?$Vec@$02M@@QAE?AU0@M@Z 0044b1d0 f i fluidsim.obj
 0002:00019250       ??Y?$Vec@$02M@@QAE?AU0@ABU0@@Z 0044b250 f i fluidsim.obj
 0002:000192e0       ??Y?$basic_string@DU?$char_traits@D@std@@V?$allocator@D@2@@std@@QAEAAV01@D@Z 0044b2e0 f i fluidsim.obj
 0002:00019310       ??Z?$Vec@$02M@@QAE?AU0@ABU0@@Z 0044b310 f i fluidsim.obj
 0002:000193a0       ??_0?$Vec@$02M@@QAE?AU0@M@Z 0044b3a0 f i fluidsim.obj
 0002:00019420       ??_D?$basic_ifstream@DU?$char_traits@D@std@@@std@@QAEXXZ 0044b420 f i fluidsim.obj
 0002:00019460       ??_D?$basic_ofstream@DU?$char_traits@D@std@@@std@@QAEXXZ 0044b460 f i fluidsim.obj
 0002:000194a0       ??_D?$basic_stringstream@DU?$char_traits@D@std@@V?$allocator@D@2@@std@@QAEXXZ 0044b4a0 f i fluidsim.obj
 0002:000194d4       ??_E?$basic_ifstream@DU?$char_traits@D@std@@@std@@$4PPPPPPPM@A@AEPAXI@Z 0044b4d4 f i fluidsim.obj
 0002:000194de       ??_E?$basic_ofstream@DU?$char_traits@D@std@@@std@@$4PPPPPPPM@A@AEPAXI@Z 0044b4de f i fluidsim.obj
 0002:000194e8       ??_E?$basic_stringstream@DU?$char_traits@D@std@@V?$allocator@D@2@@std@@$4PPPPPPPM@A@AEPAXI@Z 0044b4e8 f i fluidsim.obj
 0002:00019500       ??_E?$basic_filebuf@DU?$char_traits@D@std@@@std@@UAEPAXI@Z 0044b500 f i fluidsim.obj
 0002:00019500       ??_G?$basic_filebuf@DU?$char_traits@D@std@@@std@@UAEPAXI@Z 0044b500 f i fluidsim.obj
 0002:00019550       ??_E?$basic_ifstream@DU?$char_traits@D@std@@@std@@UAEPAXI@Z 0044b550 f i fluidsim.obj
 0002:00019550       ??_G?$basic_ifstream@DU?$char_traits@D@std@@@std@@UAEPAXI@Z 0044b550 f i fluidsim.obj
 0002:000195a0       ??_G?$basic_ofstream@DU?$char_traits@D@std@@@std@@UAEPAXI@Z 0044b5a0 f i fluidsim.obj
 0002:000195a0       ??_E?$basic_ofstream@DU?$char_traits@D@std@@@std@@UAEPAXI@Z 0044b5a0 f i fluidsim.obj
 0002:000195f0       ??_E?$basic_stringbuf@DU?$char_traits@D@std@@V?$allocator@D@2@@std@@UAEPAXI@Z 0044b5f0 f i fluidsim.obj
 0002:000195f0       ??_G?$basic_stringbuf@DU?$char_traits@D@std@@V?$allocator@D@2@@std@@UAEPAXI@Z 0044b5f0 f i fluidsim.obj
 0002:00019640       ??_E?$basic_stringstream@DU?$char_traits@D@std@@V?$allocator@D@2@@std@@UAEPAXI@Z 0044b640 f i fluidsim.obj
 0002:00019640       ??_G?$basic_stringstream@DU?$char_traits@D@std@@V?$allocator@D@2@@std@@UAEPAXI@Z 0044b640 f i fluidsim.obj
 0002:00019690       ??_E_Generic_error_category@std@@UAEPAXI@Z 0044b690 f i fluidsim.obj
 0002:00019690       ??_G_Generic_error_category@std@@UAEPAXI@Z 0044b690 f i fluidsim.obj
 0002:000196e0       ??_G_Iostream_error_category@std@@UAEPAXI@Z 0044b6e0 f i fluidsim.obj
 0002:000196e0       ??_E_Iostream_error_category@std@@UAEPAXI@Z 0044b6e0 f i fluidsim.obj
 0002:00019730       ??_G_System_error_category@std@@UAEPAXI@Z 0044b730 f i fluidsim.obj
 0002:00019730       ??_E_System_error_category@std@@UAEPAXI@Z 0044b730 f i fluidsim.obj
 0002:00019780       ??_Ebad_alloc@std@@UAEPAXI@Z 0044b780 f i fluidsim.obj
 0002:00019780       ??_Gbad_alloc@std@@UAEPAXI@Z 0044b780 f i fluidsim.obj
 0002:000197d0       ??_Gerror_category@std@@UAEPAXI@Z 0044b7d0 f i fluidsim.obj
 0002:000197d0       ??_Eerror_category@std@@UAEPAXI@Z 0044b7d0 f i fluidsim.obj
 0002:00019820       ?Constant@?$DenseBase@V?$Matrix@M$02$00$0A@$02$00@Eigen@@@Eigen@@SA?BV?$CwiseNullaryOp@U?$scalar_constant_op@M@internal@Eigen@@V?$Matrix@M$02$00$0A@$02$00@3@@2@ABM@Z 0044b820 f i fluidsim.obj
 0002:00019860       ?Constant@?$DenseBase@V?$Matrix@M$02$00$0A@$02$00@Eigen@@@Eigen@@SA?BV?$CwiseNullaryOp@U?$scalar_constant_op@M@internal@Eigen@@V?$Matrix@M$02$00$0A@$02$00@3@@2@HHABM@Z 0044b860 f i fluidsim.obj
 0002:000198b0       ?Constant@?$DenseBase@V?$Matrix@M$02$02$0A@$02$02@Eigen@@@Eigen@@SA?BV?$CwiseNullaryOp@U?$scalar_constant_op@M@internal@Eigen@@V?$Matrix@M$02$02$0A@$02$02@3@@2@ABM@Z 0044b8b0 f i fluidsim.obj
 0002:000198f0       ?Identity@?$MatrixBase@V?$Matrix@M$02$02$0A@$02$02@Eigen@@@Eigen@@SA?BV?$CwiseNullaryOp@U?$scalar_identity_op@M@internal@Eigen@@V?$Matrix@M$02$02$0A@$02$02@3@@2@HH@Z 0044b8f0 f i fluidsim.obj
 0002:00019930       ?Identity@?$MatrixBase@V?$Matrix@M$02$02$0A@$02$02@Eigen@@@Eigen@@SA?BV?$CwiseNullaryOp@U?$scalar_identity_op@M@internal@Eigen@@V?$Matrix@M$02$02$0A@$02$02@3@@2@XZ 0044b930 f i fluidsim.obj
 0002:00019970       ?Zero@?$DenseBase@V?$Matrix@M$02$00$0A@$02$00@Eigen@@@Eigen@@SA?BV?$CwiseNullaryOp@U?$scalar_constant_op@M@internal@Eigen@@V?$Matrix@M$02$00$0A@$02$00@3@@2@XZ 0044b970 f i fluidsim.obj
 0002:000199b0       ?Zero@?$DenseBase@V?$Matrix@M$02$02$0A@$02$02@Eigen@@@Eigen@@SA?BV?$CwiseNullaryOp@U?$scalar_constant_op@M@internal@Eigen@@V?$Matrix@M$02$02$0A@$02$02@3@@2@XZ 0044b9b0 f i fluidsim.obj
 0002:000199ec       ?_Add_vtordisp1@?$basic_istream@DU?$char_traits@D@std@@@std@@$4PPPPPPPM@FA@AEXXZ 0044b9ec f i fluidsim.obj
 0002:000199fb       ?_Add_vtordisp1@?$basic_istream@DU?$char_traits@D@std@@@std@@$4PPPPPPPM@FI@AEXXZ 0044b9fb f i fluidsim.obj
 0002:00019a0a       ?_Add_vtordisp2@?$basic_ostream@DU?$char_traits@D@std@@@std@@$4PPPPPPPM@FA@AEXXZ 0044ba0a f i fluidsim.obj
 0002:00019a19       ?_Add_vtordisp2@?$basic_ostream@DU?$char_traits@D@std@@@std@@$4PPPPPPPM@FI@AEXXZ 0044ba19 f i fluidsim.obj
 0002:00019a30       ?_Adopt@_Iterator_base0@std@@QAEXPBX@Z 0044ba30 f i fluidsim.obj
 0002:00019a50       ?_Assign_rv@?$basic_string@DU?$char_traits@D@std@@V?$allocator@D@2@@std@@QAEX$$QAV12@@Z 0044ba50 f i fluidsim.obj
 0002:00019b00       ?_Chassign@?$basic_string@DU?$char_traits@D@std@@V?$allocator@D@2@@std@@QAEXIID@Z 0044bb00 f i fluidsim.obj
 0002:00019b70       ?_Compat@?$_Vector_const_iterator@V?$_Vector_val@U?$_Simple_types@UParticle@@@std@@@std@@@std@@QBEXABV12@@Z 0044bb70 f i fluidsim.obj
 0002:00019b90       ?_Copy@?$basic_string@DU?$char_traits@D@std@@V?$allocator@D@2@@std@@QAEXII@Z 0044bb90 f i fluidsim.obj
 0002:00019dc0       ?_Destroy@?$vector@U?$Vec@$02I@@V?$allocator@U?$Vec@$02I@@@std@@@std@@IAEXPAU?$Vec@$02I@@0@Z 0044bdc0 f i fluidsim.obj
 0002:00019e10       ?_Destroy@?$vector@U?$Vec@$02M@@V?$allocator@U?$Vec@$02M@@@std@@@std@@IAEXPAU?$Vec@$02M@@0@Z 0044be10 f i fluidsim.obj
 0002:00019e60       ?_Destroy@?$vector@UParticle@@V?$allocator@UParticle@@@std@@@std@@IAEXPAUParticle@@0@Z 0044be60 f i fluidsim.obj
 0002:00019eb0       ?_Endwrite@?$basic_filebuf@DU?$char_traits@D@std@@@std@@IAE_NXZ 0044beb0 f i fluidsim.obj
 0002:0001a170       ?_Eos@?$basic_string@DU?$char_traits@D@std@@V?$allocator@D@2@@std@@QAEXI@Z 0044c170 f i fluidsim.obj
 0002:0001a1c0       ?_Getal@?$_String_alloc@$0A@U?$_String_base_types@DV?$allocator@D@std@@@std@@@std@@QBE?AU?$_Wrap_alloc@V?$allocator@D@std@@@2@XZ 0044c1c0 f i fluidsim.obj
 0002:0001a1f0       ?_Getal@?$_Vector_alloc@$0A@U?$_Vec_base_types@U?$Vec@$02I@@V?$allocator@U?$Vec@$02I@@@std@@@std@@@std@@QBE?AU?$_Wrap_alloc@V?$allocator@U?$Vec@$02I@@@std@@@2@XZ 0044c1f0 f i fluidsim.obj
 0002:0001a220       ?_Getal@?$_Vector_alloc@$0A@U?$_Vec_base_types@U?$Vec@$02M@@V?$allocator@U?$Vec@$02M@@@std@@@std@@@std@@QBE?AU?$_Wrap_alloc@V?$allocator@U?$Vec@$02M@@@std@@@2@XZ 0044c220 f i fluidsim.obj
 0002:0001a250       ?_Getal@?$_Vector_alloc@$0A@U?$_Vec_base_types@UParticle@@V?$allocator@UParticle@@@std@@@std@@@std@@QBE?AU?$_Wrap_alloc@V?$allocator@UParticle@@@std@@@2@XZ 0044c250 f i fluidsim.obj
 0002:0001a280       ?_Getfacet@locale@std@@QBEPBVfacet@12@I@Z 0044c280 f i fluidsim.obj
 0002:0001a330       ?_Getstate@?$basic_stringbuf@DU?$char_traits@D@std@@V?$allocator@D@2@@std@@AAEHH@Z 0044c330 f i fluidsim.obj
 0002:0001a3b0       ?_Grow@?$basic_string@DU?$char_traits@D@std@@V?$allocator@D@2@@std@@QAE_NI_N@Z 0044c3b0 f i fluidsim.obj
 0002:0001a490       ?_Grow_to@?$vector@U?$Vec@$02I@@V?$allocator@U?$Vec@$02I@@@std@@@std@@IBEII@Z 0044c490 f i fluidsim.obj
 0002:0001a510       ?_Grow_to@?$vector@U?$Vec@$02M@@V?$allocator@U?$Vec@$02M@@@std@@@std@@IBEII@Z 0044c510 f i fluidsim.obj
 0002:0001a590       ?_Grow_to@?$vector@UParticle@@V?$allocator@UParticle@@@std@@@std@@IBEII@Z 0044c590 f i fluidsim.obj
 0002:0001a610       ?_Init@?$basic_filebuf@DU?$char_traits@D@std@@@std@@IAEXPAU_iobuf@@W4_Initfl@12@@Z 0044c610 f i fluidsim.obj
 0002:0001a700       ?_Init@?$basic_stringbuf@DU?$char_traits@D@std@@V?$allocator@D@2@@std@@IAEXPBDIH@Z 0044c700 f i fluidsim.obj
 0002:0001a850       ?_Initcvt@?$basic_filebuf@DU?$char_traits@D@std@@@std@@IAEXPBV?$codecvt@DDH@2@@Z 0044c850 f i fluidsim.obj
 0002:0001a8b0       ?_Inside@?$basic_string@DU?$char_traits@D@std@@V?$allocator@D@2@@std@@QAE_NPBD@Z 0044c8b0 f i fluidsim.obj
 0002:0001a910       ?_Inside@?$vector@U?$Vec@$02I@@V?$allocator@U?$Vec@$02I@@@std@@@std@@IBE_NPBU?$Vec@$02I@@@Z 0044c910 f i fluidsim.obj
 0002:0001a960       ?_Inside@?$vector@U?$Vec@$02M@@V?$allocator@U?$Vec@$02M@@@std@@@std@@IBE_NPBU?$Vec@$02M@@@Z 0044c960 f i fluidsim.obj
 0002:0001a9b0       ?_Inside@?$vector@UParticle@@V?$allocator@UParticle@@@std@@@std@@IBE_NPBUParticle@@@Z 0044c9b0 f i fluidsim.obj
 0002:0001aa00       ?_Lock@?$basic_filebuf@DU?$char_traits@D@std@@@std@@UAEXXZ 0044ca00 f i fluidsim.obj
 0002:0001aa40       ?_Myptr@?$_String_val@U?$_Simple_types@D@std@@@std@@QAEPADXZ 0044ca40 f i fluidsim.obj
 0002:0001aa90       ?_Myptr@?$_String_val@U?$_Simple_types@D@std@@@std@@QBEPBDXZ 0044ca90 f i fluidsim.obj
 0002:0001aae0       ?_Orphan_range@?$vector@U?$Vec@$02I@@V?$allocator@U?$Vec@$02I@@@std@@@std@@IBEXPAU?$Vec@$02I@@0@Z 0044cae0 f i fluidsim.obj
 0002:0001ab00       ?_Orphan_range@?$vector@U?$Vec@$02M@@V?$allocator@U?$Vec@$02M@@@std@@@std@@IBEXPAU?$Vec@$02M@@0@Z 0044cb00 f i fluidsim.obj
 0002:0001ab20       ?_Orphan_range@?$vector@UParticle@@V?$allocator@UParticle@@@std@@@std@@IBEXPAUParticle@@0@Z 0044cb20 f i fluidsim.obj
 0002:0001ab40       ?_Reallocate@?$vector@U?$Vec@$02I@@V?$allocator@U?$Vec@$02I@@@std@@@std@@IAEXI@Z 0044cb40 f i fluidsim.obj
 0002:0001acd0       ?_Reallocate@?$vector@U?$Vec@$02M@@V?$allocator@U?$Vec@$02M@@@std@@@std@@IAEXI@Z 0044ccd0 f i fluidsim.obj
 0002:0001ae60       ?_Reallocate@?$vector@UParticle@@V?$allocator@UParticle@@@std@@@std@@IAEXI@Z 0044ce60 f i fluidsim.obj
 0002:0001b000       ?_Reserve@?$vector@U?$Vec@$02I@@V?$allocator@U?$Vec@$02I@@@std@@@std@@IAEXI@Z 0044d000 f i fluidsim.obj
 0002:0001b080       ?_Reserve@?$vector@U?$Vec@$02M@@V?$allocator@U?$Vec@$02M@@@std@@@std@@IAEXI@Z 0044d080 f i fluidsim.obj
 0002:0001b100       ?_Reserve@?$vector@UParticle@@V?$allocator@UParticle@@@std@@@std@@IAEXI@Z 0044d100 f i fluidsim.obj
 0002:0001b180       ?_Reset_back@?$basic_filebuf@DU?$char_traits@D@std@@@std@@AAEXXZ 0044d180 f i fluidsim.obj
 0002:0001b1e0       ?_Set_back@?$basic_filebuf@DU?$char_traits@D@std@@@std@@AAEXXZ 0044d1e0 f i fluidsim.obj
 0002:0001b260       ?_Tidy@?$basic_string@DU?$char_traits@D@std@@V?$allocator@D@2@@std@@QAEX_NI@Z 0044d260 f i fluidsim.obj
 0002:0001b330       ?_Tidy@?$basic_stringbuf@DU?$char_traits@D@std@@V?$allocator@D@2@@std@@IAEXXZ 0044d330 f i fluidsim.obj
 0002:0001b400       ?_Tidy@?$vector@U?$Vec@$02I@@V?$allocator@U?$Vec@$02I@@@std@@@std@@IAEXXZ 0044d400 f i fluidsim.obj
 0002:0001b4b0       ?_Tidy@?$vector@U?$Vec@$02M@@V?$allocator@U?$Vec@$02M@@@std@@@std@@IAEXXZ 0044d4b0 f i fluidsim.obj
 0002:0001b560       ?_Unchecked@?$_Vector_iterator@V?$_Vector_val@U?$_Simple_types@UParticle@@@std@@@std@@@std@@QBEPAUParticle@@XZ 0044d560 f i fluidsim.obj
 0002:0001b580       ?_Unlock@?$basic_filebuf@DU?$char_traits@D@std@@@std@@UAEXXZ 0044d580 f i fluidsim.obj
 0002:0001b5c0       ?_Unused_capacity@?$vector@U?$Vec@$02I@@V?$allocator@U?$Vec@$02I@@@std@@@std@@QBEIXZ 0044d5c0 f i fluidsim.obj
 0002:0001b5f0       ?_Unused_capacity@?$vector@U?$Vec@$02M@@V?$allocator@U?$Vec@$02M@@@std@@@std@@QBEIXZ 0044d5f0 f i fluidsim.obj
 0002:0001b620       ?_Unused_capacity@?$vector@UParticle@@V?$allocator@UParticle@@@std@@@std@@QBEIXZ 0044d620 f i fluidsim.obj
 0002:0001b650       ?_Xlen@?$basic_string@DU?$char_traits@D@std@@V?$allocator@D@2@@std@@QBEXXZ 0044d650 f i fluidsim.obj
 0002:0001b680       ?_Xlen@?$vector@U?$Vec@$02I@@V?$allocator@U?$Vec@$02I@@@std@@@std@@IBEXXZ 0044d680 f i fluidsim.obj
 0002:0001b6b0       ?_Xlen@?$vector@U?$Vec@$02M@@V?$allocator@U?$Vec@$02M@@@std@@@std@@IBEXXZ 0044d6b0 f i fluidsim.obj
 0002:0001b6e0       ?_Xlen@?$vector@UParticle@@V?$allocator@UParticle@@@std@@@std@@IBEXXZ 0044d6e0 f i fluidsim.obj
 0002:0001b710       ?_Xran@?$basic_string@DU?$char_traits@D@std@@V?$allocator@D@2@@std@@QBEXXZ 0044d710 f i fluidsim.obj
 0002:0001b740       ?_check_template_params@?$PlainObjectBase@V?$Matrix@M$01$01$0A@$01$01@Eigen@@@Eigen@@SAXXZ 0044d740 f i fluidsim.obj
 0002:0001b760       ?_check_template_params@?$PlainObjectBase@V?$Matrix@M$02$00$0A@$02$00@Eigen@@@Eigen@@SAXXZ 0044d760 f i fluidsim.obj
 0002:0001b780       ?_check_template_params@?$PlainObjectBase@V?$Matrix@M$02$02$00$02$02@Eigen@@@Eigen@@SAXXZ 0044d780 f i fluidsim.obj
 0002:0001b7a0       ?_check_template_params@?$PlainObjectBase@V?$Matrix@M$02$02$0A@$02$02@Eigen@@@Eigen@@SAXXZ 0044d7a0 f i fluidsim.obj
 0002:0001b7c0       ?abs@@YAMM@Z               0044d7c0 f i fluidsim.obj
 0002:0001b7f0       ?advance@FluidSim@@QAEXM_N@Z 0044d7f0 f   fluidsim.obj
 0002:0001b8f0       ?advect_particles@FluidSim@@AAEXM@Z 0044d8f0 f   fluidsim.obj
 0002:0001bb10       ?allocate@?$JacobiSVD@V?$Matrix@M$02$02$0A@$02$02@Eigen@@$01@Eigen@@AAEXHHI@Z 0044db10 f i fluidsim.obj
 0002:0001bf60       ?allocate@?$_Wrap_alloc@V?$allocator@D@std@@@std@@QAEPADI@Z 0044df60 f i fluidsim.obj
 0002:0001bf90       ?allocate@?$_Wrap_alloc@V?$allocator@U?$Vec@$02I@@@std@@@std@@QAEPAU?$Vec@$02I@@I@Z 0044df90 f i fluidsim.obj
 0002:0001bfc0       ?allocate@?$_Wrap_alloc@V?$allocator@U?$Vec@$02M@@@std@@@std@@QAEPAU?$Vec@$02M@@I@Z 0044dfc0 f i fluidsim.obj
 0002:0001bff0       ?allocate@?$_Wrap_alloc@V?$allocator@UParticle@@@std@@@std@@QAEPAUParticle@@I@Z 0044dff0 f i fluidsim.obj
 0002:0001c020       ?allocate@?$allocator@D@std@@QAEPADI@Z 0044e020 f i fluidsim.obj
 0002:0001c050       ?allocate@?$allocator@U?$Vec@$02I@@@std@@QAEPAU?$Vec@$02I@@I@Z 0044e050 f i fluidsim.obj
 0002:0001c080       ?allocate@?$allocator@U?$Vec@$02M@@@std@@QAEPAU?$Vec@$02M@@I@Z 0044e080 f i fluidsim.obj
 0002:0001c0b0       ?allocate@?$allocator@UParticle@@@std@@QAEPAUParticle@@I@Z 0044e0b0 f i fluidsim.obj
 0002:0001c0e0       ?allocate@?$qr_preconditioner_impl@V?$Matrix@M$02$02$0A@$02$02@Eigen@@$01$00$0A@@internal@Eigen@@QAEXABV?$JacobiSVD@V?$Matrix@M$02$02$0A@$02$02@Eigen@@$01@3@@Z 0044e0e0 f i fluidsim.obj
 0002:0001c100       ?allocate@?$qr_preconditioner_impl@V?$Matrix@M$02$02$0A@$02$02@Eigen@@$01$0A@$0A@@internal@Eigen@@QAEXABV?$JacobiSVD@V?$Matrix@M$02$02$0A@$02$02@Eigen@@$01@3@@Z 0044e100 f i fluidsim.obj
 0002:0001c120       ?append@?$basic_string@DU?$char_traits@D@std@@V?$allocator@D@2@@std@@QAEAAV12@ABV12@@Z 0044e120 f i fluidsim.obj
 0002:0001c160       ?append@?$basic_string@DU?$char_traits@D@std@@V?$allocator@D@2@@std@@QAEAAV12@ABV12@II@Z 0044e160 f i fluidsim.obj
 0002:0001c250       ?append@?$basic_string@DU?$char_traits@D@std@@V?$allocator@D@2@@std@@QAEAAV12@ID@Z 0044e250 f i fluidsim.obj
 0002:0001c2f0       ?append@?$basic_string@DU?$char_traits@D@std@@V?$allocator@D@2@@std@@QAEAAV12@PBD@Z 0044e2f0 f i fluidsim.obj
 0002:0001c330       ?append@?$basic_string@DU?$char_traits@D@std@@V?$allocator@D@2@@std@@QAEAAV12@PBDI@Z 0044e330 f i fluidsim.obj
 0002:0001c8c0       ?apply_collision_to_grid@FluidSim@@AAEXXZ 0044e8c0 f   fluidsim.obj
 0002:0001cc20       ?apply_collision_to_particles@FluidSim@@AAEXM@Z 0044ec20 f   fluidsim.obj
 0002:0001ce10       ?apply_external_force@FluidSim@@AAEXXZ 0044ee10 f   fluidsim.obj
 0002:0001ce60       ?assign@?$basic_string@DU?$char_traits@D@std@@V?$allocator@D@2@@std@@QAEAAV12@ABV12@II@Z 0044ee60 f i fluidsim.obj
 0002:0001cf40       ?assign@?$basic_string@DU?$char_traits@D@std@@V?$allocator@D@2@@std@@QAEAAV12@ID@Z 0044ef40 f i fluidsim.obj
 0002:0001cfc0       ?assign@?$basic_string@DU?$char_traits@D@std@@V?$allocator@D@2@@std@@QAEAAV12@PBD@Z 0044efc0 f i fluidsim.obj
 0002:0001d000       ?assign@?$basic_string@DU?$char_traits@D@std@@V?$allocator@D@2@@std@@QAEAAV12@PBDI@Z 0044f000 f i fluidsim.obj
 0002:0001d0b0       ?assign@?$char_traits@D@std@@SAPADPADID@Z 0044f0b0 f i fluidsim.obj
 0002:0001d0e0       ?assign@?$char_traits@D@std@@SAXAADABD@Z 0044f0e0 f i fluidsim.obj
 0002:0001d100       ?begin@?$basic_string@DU?$char_traits@D@std@@V?$allocator@D@2@@std@@QAE?AV?$_String_iterator@V?$_String_val@U?$_Simple_types@D@std@@@std@@@2@XZ 0044f100 f i fluidsim.obj
 0002:0001d140       ?begin@?$vector@UParticle@@V?$allocator@UParticle@@@std@@@std@@QAE?AV?$_Vector_iterator@V?$_Vector_val@U?$_Simple_types@UParticle@@@std@@@std@@@2@XZ 0044f140 f i fluidsim.obj
 0002:0001d180       ?block@?$DenseBase@V?$Matrix@M$02$02$0A@$02$02@Eigen@@@Eigen@@QBE?BV?$Block@$$CBV?$Matrix@M$02$02$0A@$02$02@Eigen@@$0?0$0?0$0A@@2@HHHH@Z 0044f180 f i fluidsim.obj
 0002:0001d1d0       ?c@?$JacobiRotation@M@Eigen@@QAEAAMXZ 0044f1d0 f i fluidsim.obj
 0002:0001d1f0       ?c@?$JacobiRotation@M@Eigen@@QBEMXZ 0044f1f0 f i fluidsim.obj
 0002:0001d210       ?c_str@?$basic_string@DU?$char_traits@D@std@@V?$allocator@D@2@@std@@QBEPBDXZ 0044f210 f i fluidsim.obj
 0002:0001d240       ?capacity@?$basic_string@DU?$char_traits@D@std@@V?$allocator@D@2@@std@@QBEIXZ 0044f240 f i fluidsim.obj
 0002:0001d260       ?capacity@?$vector@U?$Vec@$02I@@V?$allocator@U?$Vec@$02I@@@std@@@std@@QBEIXZ 0044f260 f i fluidsim.obj
 0002:0001d290       ?capacity@?$vector@U?$Vec@$02M@@V?$allocator@U?$Vec@$02M@@@std@@@std@@QBEIXZ 0044f290 f i fluidsim.obj
 0002:0001d2c0       ?capacity@?$vector@UParticle@@V?$allocator@UParticle@@@std@@@std@@QBEIXZ 0044f2c0 f i fluidsim.obj
 0002:0001d2f0       ?category@error_code@std@@QBEABVerror_category@2@XZ 0044f2f0 f i fluidsim.obj
 0002:0001d310       ?category@error_condition@std@@QBEABVerror_category@2@XZ 0044f310 f i fluidsim.obj
 0002:0001d330       ?cfl@FluidSim@@AAEMXZ      0044f330 f   fluidsim.obj
 0002:0001d4e0       ?checkSanity@?$MapBase@V?$Block@$$CBV?$Matrix@M$02$02$0A@$02$02@Eigen@@$02$00$00@Eigen@@$0A@@Eigen@@IBEXXZ 0044f4e0 f i fluidsim.obj
 0002:0001d530       ?checkSanity@?$MapBase@V?$Block@$$CBV?$Matrix@M$02$02$0A@$02$02@Eigen@@$0?0$0?0$0A@@Eigen@@$0A@@Eigen@@IBEXXZ 0044f530 f i fluidsim.obj
 0002:0001d580       ?checkSanity@?$MapBase@V?$Block@V?$Matrix@M$01$01$0A@$01$01@Eigen@@$00$01$0A@@Eigen@@$0A@@Eigen@@IBEXXZ 0044f580 f i fluidsim.obj
 0002:0001d5d0       ?checkSanity@?$MapBase@V?$Block@V?$Matrix@M$02$00$0A@$02$00@Eigen@@$0?0$00$0A@@Eigen@@$0A@@Eigen@@IBEXXZ 0044f5d0 f i fluidsim.obj
 0002:0001d620       ?checkSanity@?$MapBase@V?$Block@V?$Matrix@M$02$02$0A@$02$02@Eigen@@$00$02$0A@@Eigen@@$0A@@Eigen@@IBEXXZ 0044f620 f i fluidsim.obj
 0002:0001d670       ?checkSanity@?$MapBase@V?$Block@V?$Matrix@M$02$02$0A@$02$02@Eigen@@$02$00$00@Eigen@@$0A@@Eigen@@IBEXXZ 0044f670 f i fluidsim.obj
 0002:0001d6c0       ?close@?$basic_filebuf@DU?$char_traits@D@std@@@std@@QAEPAV12@XZ 0044f6c0 f i fluidsim.obj
 0002:0001d750       ?close@?$basic_ifstream@DU?$char_traits@D@std@@@std@@QAEXXZ 0044f750 f i fluidsim.obj
 0002:0001d7a0       ?close@?$basic_ofstream@DU?$char_traits@D@std@@@std@@QAEXXZ 0044f7a0 f i fluidsim.obj
 0002:0001d7f0       ?coeff@?$CoeffBasedProduct@$$CBV?$CwiseUnaryOp@U?$scalar_multiple_op@M@internal@Eigen@@$$CBV?$Matrix@M$02$00$0A@$02$00@3@@Eigen@@$$CBV?$Transpose@V?$Matrix@M$02$00$0A@$02$00@Eigen@@@2@$0BAA@@Eigen@@QBE?BMHH@Z 0044f7f0 f i fluidsim.obj
 0002:0001d840       ?coeff@?$CoeffBasedProduct@$$CBV?$CwiseUnaryOp@U?$scalar_multiple_op@M@internal@Eigen@@$$CBV?$Matrix@M$02$02$0A@$02$02@3@@Eigen@@ABV?$Matrix@M$02$00$0A@$02$00@2@$05@Eigen@@QBE?BMHH@Z 0044f840 f i fluidsim.obj
 0002:0001d890       ?coeff@?$CoeffBasedProduct@ABV?$Matrix@M$02$02$00$02$02@Eigen@@ABV?$Matrix@M$02$02$0A@$02$02@2@$05@Eigen@@QBE?BMHH@Z 0044f890 f i fluidsim.obj
 0002:0001d8e0       ?coeff@?$CoeffBasedProduct@ABV?$Matrix@M$02$02$0A@$02$02@Eigen@@$$CBV?$Transpose@V?$Matrix@M$02$02$0A@$02$02@Eigen@@@2@$05@Eigen@@QBE?BMHH@Z 0044f8e0 f i fluidsim.obj
 0002:0001d930       ?coeff@?$CoeffBasedProduct@ABV?$Matrix@M$02$02$0A@$02$02@Eigen@@ABV12@$05@Eigen@@QBE?BMHH@Z 0044f930 f i fluidsim.obj
 0002:0001d980       ?coeff@?$CoeffBasedProduct@ABV?$Matrix@M$02$02$0A@$02$02@Eigen@@V12@$05@Eigen@@QBE?BMHH@Z 0044f980 f i fluidsim.obj
 0002:0001d9d0       ?coeff@?$CwiseBinaryOpImpl@U?$scalar_difference_op@M@internal@Eigen@@$$CBV?$Matrix@M$02$02$0A@$02$02@3@$$CBV43@UDense@3@@Eigen@@QBE?BMHH@Z 0044f9d0 f i fluidsim.obj
 0002:0001da60       ?coeff@?$CwiseBinaryOpImpl@U?$scalar_product_op@MM@internal@Eigen@@$$CBV?$Matrix@M$02$00$0A@$02$00@3@$$CBV?$Block@$$CBV?$Matrix@M$02$02$0A@$02$02@Eigen@@$02$00$00@3@UDense@3@@Eigen@@QBE?BMHH@Z 0044fa60 f i fluidsim.obj
 0002:0001daf0       ?coeff@?$CwiseNullaryOp@U?$scalar_constant_op@M@internal@Eigen@@V?$Matrix@M$02$00$0A@$02$00@3@@Eigen@@QBE?BMH@Z 0044faf0 f i fluidsim.obj
 0002:0001db20       ?coeff@?$CwiseNullaryOp@U?$scalar_constant_op@M@internal@Eigen@@V?$Matrix@M$02$02$0A@$02$02@3@@Eigen@@QBE?BMH@Z 0044fb20 f i fluidsim.obj
 0002:0001db50       ?coeff@?$CwiseNullaryOp@U?$scalar_identity_op@M@internal@Eigen@@V?$Matrix@M$02$02$0A@$02$02@3@@Eigen@@QBE?BMHH@Z 0044fb50 f i fluidsim.obj
 0002:0001db90       ?coeff@?$CwiseUnaryOpImpl@U?$scalar_abs2_op@M@internal@Eigen@@$$CBV?$CwiseBinaryOp@U?$scalar_difference_op@M@internal@Eigen@@$$CBV?$Matrix@M$02$02$0A@$02$02@3@$$CBV43@@3@UDense@3@@Eigen@@QBE?BMHH@Z 0044fb90 f i fluidsim.obj
 0002:0001dc00       ?coeff@?$CwiseUnaryOpImpl@U?$scalar_multiple_op@M@internal@Eigen@@$$CBV?$Matrix@M$02$00$0A@$02$00@3@UDense@3@@Eigen@@QBE?BMH@Z 0044fc00 f i fluidsim.obj
 0002:0001dc60       ?coeff@?$CwiseUnaryOpImpl@U?$scalar_multiple_op@M@internal@Eigen@@$$CBV?$Matrix@M$02$00$0A@$02$00@3@UDense@3@@Eigen@@QBE?BMHH@Z 0044fc60 f i fluidsim.obj
 0002:0001dcc0       ?coeff@?$CwiseUnaryOpImpl@U?$scalar_multiple_op@M@internal@Eigen@@$$CBV?$Matrix@M$02$02$0A@$02$02@3@UDense@3@@Eigen@@QBE?BMHH@Z 0044fcc0 f i fluidsim.obj
 0002:0001dd20       ?coeff@?$DenseCoeffsBase@V?$CwiseBinaryOp@U?$scalar_product_op@MM@internal@Eigen@@$$CBV?$Matrix@M$02$00$0A@$02$00@3@$$CBV?$Block@$$CBV?$Matrix@M$02$02$0A@$02$02@Eigen@@$02$00$00@3@@Eigen@@$0A@@Eigen@@QBEMHH@Z 0044fd20 f i fluidsim.obj
 0002:0001dd60       ?coeff@?$DenseCoeffsBase@V?$CwiseUnaryOp@U?$scalar_abs2_op@M@internal@Eigen@@$$CBV?$CwiseBinaryOp@U?$scalar_difference_op@M@internal@Eigen@@$$CBV?$Matrix@M$02$02$0A@$02$02@3@$$CBV43@@3@@Eigen@@$0A@@Eigen@@QBEMHH@Z 0044fd60 f i fluidsim.obj
 0002:0001dda0       ?coeff@?$DenseCoeffsBase@V?$Matrix@M$01$01$0A@$01$01@Eigen@@$0A@@Eigen@@QBEABMHH@Z 0044fda0 f i fluidsim.obj
 0002:0001dde0       ?coeff@?$DenseCoeffsBase@V?$Matrix@M$02$02$0A@$02$02@Eigen@@$0A@@Eigen@@QBEABMHH@Z 0044fde0 f i fluidsim.obj
 0002:0001de20       ?coeff@?$MapBase@V?$Block@$$CBV?$Matrix@M$02$02$0A@$02$02@Eigen@@$02$00$00@Eigen@@$0A@@Eigen@@QBEABMHH@Z 0044fe20 f i fluidsim.obj
 0002:0001de70       ?coeff@?$MapBase@V?$Block@$$CBV?$Matrix@M$02$02$0A@$02$02@Eigen@@$0?0$0?0$0A@@Eigen@@$0A@@Eigen@@QBEABMHH@Z 0044fe70 f i fluidsim.obj
 0002:0001dec0       ?coeff@?$MapBase@V?$Block@V?$Matrix@M$02$00$0A@$02$00@Eigen@@$0?0$00$0A@@Eigen@@$0A@@Eigen@@QBEABMHH@Z 0044fec0 f i fluidsim.obj
 0002:0001df10       ?coeff@?$MapBase@V?$Block@V?$Matrix@M$02$02$0A@$02$02@Eigen@@$02$00$00@Eigen@@$0A@@Eigen@@QBEABMH@Z 0044ff10 f i fluidsim.obj
 0002:0001df50       ?coeff@?$PlainObjectBase@V?$Matrix@M$01$01$0A@$01$01@Eigen@@@Eigen@@QBEABMHH@Z 0044ff50 f i fluidsim.obj
 0002:0001dfc0       ?coeff@?$PlainObjectBase@V?$Matrix@M$02$00$0A@$02$00@Eigen@@@Eigen@@QBEABMH@Z 0044ffc0 f i fluidsim.obj
 0002:0001dff0       ?coeff@?$PlainObjectBase@V?$Matrix@M$02$00$0A@$02$00@Eigen@@@Eigen@@QBEABMHH@Z 0044fff0 f i fluidsim.obj
 0002:0001e060       ?coeff@?$PlainObjectBase@V?$Matrix@M$02$02$00$02$02@Eigen@@@Eigen@@QBEABMHH@Z 00450060 f i fluidsim.obj
 0002:0001e0d0       ?coeff@?$PlainObjectBase@V?$Matrix@M$02$02$0A@$02$02@Eigen@@@Eigen@@QBEABMH@Z 004500d0 f i fluidsim.obj
 0002:0001e100       ?coeff@?$PlainObjectBase@V?$Matrix@M$02$02$0A@$02$02@Eigen@@@Eigen@@QBEABMHH@Z 00450100 f i fluidsim.obj
 0002:0001e170       ?coeff@?$TransposeImpl@$$CBV?$CwiseUnaryOp@U?$scalar_multiple_op@M@internal@Eigen@@$$CBV?$Matrix@M$02$00$0A@$02$00@3@@Eigen@@UDense@2@@Eigen@@QBEMH@Z 00450170 f i fluidsim.obj
 0002:0001e1b0       ?coeff@?$TransposeImpl@V?$Matrix@M$02$00$0A@$02$00@Eigen@@UDense@2@@Eigen@@QBEABMHH@Z 004501b0 f i fluidsim.obj
 0002:0001e1f0       ?coeff@?$TransposeImpl@V?$Matrix@M$02$02$0A@$02$02@Eigen@@UDense@2@@Eigen@@QBEABMHH@Z 004501f0 f i fluidsim.obj
 0002:0001e230       ?coeffByOuterInner@?$DenseCoeffsBase@V?$CwiseBinaryOp@U?$scalar_product_op@MM@internal@Eigen@@$$CBV?$Matrix@M$02$00$0A@$02$00@3@$$CBV?$Block@$$CBV?$Matrix@M$02$02$0A@$02$02@Eigen@@$02$00$00@3@@Eigen@@$0A@@Eigen@@QBEMHH@Z 00450230 f i fluidsim.obj
 0002:0001e280       ?coeffByOuterInner@?$DenseCoeffsBase@V?$CwiseUnaryOp@U?$scalar_abs2_op@M@internal@Eigen@@$$CBV?$CwiseBinaryOp@U?$scalar_difference_op@M@internal@Eigen@@$$CBV?$Matrix@M$02$02$0A@$02$02@3@$$CBV43@@3@@Eigen@@$0A@@Eigen@@QBEMHH@Z 00450280 f i fluidsim.obj
 0002:0001e2d0       ?coeffRef@?$MapBase@V?$Block@V?$Matrix@M$01$01$0A@$01$01@Eigen@@$00$01$0A@@Eigen@@$00@Eigen@@QAEAAMH@Z 004502d0 f i fluidsim.obj
 0002:0001e310       ?coeffRef@?$MapBase@V?$Block@V?$Matrix@M$02$02$0A@$02$02@Eigen@@$00$02$0A@@Eigen@@$00@Eigen@@QAEAAMH@Z 00450310 f i fluidsim.obj
 0002:0001e350       ?coeffRef@?$MapBase@V?$Block@V?$Matrix@M$02$02$0A@$02$02@Eigen@@$02$00$00@Eigen@@$00@Eigen@@QAEAAMH@Z 00450350 f i fluidsim.obj
 0002:0001e390       ?coeffRef@?$PlainObjectBase@V?$Matrix@M$01$01$0A@$01$01@Eigen@@@Eigen@@QAEAAMHH@Z 00450390 f i fluidsim.obj
 0002:0001e400       ?coeffRef@?$PlainObjectBase@V?$Matrix@M$02$00$0A@$02$00@Eigen@@@Eigen@@QAEAAMH@Z 00450400 f i fluidsim.obj
 0002:0001e430       ?coeffRef@?$PlainObjectBase@V?$Matrix@M$02$00$0A@$02$00@Eigen@@@Eigen@@QAEAAMHH@Z 00450430 f i fluidsim.obj
 0002:0001e4a0       ?coeffRef@?$PlainObjectBase@V?$Matrix@M$02$02$00$02$02@Eigen@@@Eigen@@QAEAAMHH@Z 004504a0 f i fluidsim.obj
 0002:0001e510       ?coeffRef@?$PlainObjectBase@V?$Matrix@M$02$02$0A@$02$02@Eigen@@@Eigen@@QAEAAMH@Z 00450510 f i fluidsim.obj
 0002:0001e540       ?coeffRef@?$PlainObjectBase@V?$Matrix@M$02$02$0A@$02$02@Eigen@@@Eigen@@QAEAAMHH@Z 00450540 f i fluidsim.obj
 0002:0001e5b0       ?coeffRef@?$PlainObjectBase@V?$Matrix@M$02$02$0A@$02$02@Eigen@@@Eigen@@QBEABMHH@Z 004505b0 f i fluidsim.obj
 0002:0001e620       ?col@?$DenseBase@V?$Matrix@M$02$02$0A@$02$02@Eigen@@@Eigen@@QAE?AV?$Block@V?$Matrix@M$02$02$0A@$02$02@Eigen@@$02$00$00@2@H@Z 00450620 f i fluidsim.obj
 0002:0001e660       ?col@?$DenseBase@V?$Matrix@M$02$02$0A@$02$02@Eigen@@@Eigen@@QBE?BV?$Block@$$CBV?$Matrix@M$02$02$0A@$02$02@Eigen@@$02$00$00@2@H@Z 00450660 f i fluidsim.obj
 0002:0001e6a0       ?colIndexByOuterInner@?$DenseCoeffsBase@V?$CwiseBinaryOp@U?$scalar_product_op@MM@internal@Eigen@@$$CBV?$Matrix@M$02$00$0A@$02$00@3@$$CBV?$Block@$$CBV?$Matrix@M$02$02$0A@$02$02@Eigen@@$02$00$00@3@@Eigen@@$0A@@Eigen@@QBEHHH@Z 004506a0 f i fluidsim.obj
 0002:0001e710       ?colIndexByOuterInner@?$DenseCoeffsBase@V?$CwiseUnaryOp@U?$scalar_abs2_op@M@internal@Eigen@@$$CBV?$CwiseBinaryOp@U?$scalar_difference_op@M@internal@Eigen@@$$CBV?$Matrix@M$02$02$0A@$02$02@3@$$CBV43@@3@@Eigen@@$0A@@Eigen@@QBEHHH@Z 00450710 f i fluidsim.obj
 0002:0001e780       ?colIndexByOuterInner@?$DenseCoeffsBase@V?$Matrix@M$02$00$0A@$02$00@Eigen@@$0A@@Eigen@@QBEHHH@Z 00450780 f i fluidsim.obj
 0002:0001e7f0       ?colIndexByOuterInner@?$DenseCoeffsBase@V?$Matrix@M$02$02$00$02$02@Eigen@@$0A@@Eigen@@QBEHHH@Z 004507f0 f i fluidsim.obj
 0002:0001e860       ?colIndexByOuterInner@?$DenseCoeffsBase@V?$Matrix@M$02$02$0A@$02$02@Eigen@@$0A@@Eigen@@QBEHHH@Z 00450860 f i fluidsim.obj
 0002:0001e8d0       ?colIndexByOuterInner@?$DenseCoeffsBase@V?$SelfCwiseBinaryOp@U?$scalar_sum_op@M@internal@Eigen@@V?$Matrix@M$02$02$0A@$02$02@3@V?$CoeffBasedProduct@$$CBV?$CwiseUnaryOp@U?$scalar_multiple_op@M@internal@Eigen@@$$CBV?$Matrix@M$02$00$0A@$02$00@3@@Eigen@@$$CBV?$Transpose@V?$Matrix@M$02$00$0A@$02$00@Eigen@@@2@$0BAA@@3@@Eigen@@$0A@@Eigen@@QBEHHH@Z 004508d0 f i fluidsim.obj
 0002:0001e940       ?colStride@?$DenseCoeffsBase@V?$Block@$$CBV?$Matrix@M$02$02$0A@$02$02@Eigen@@$02$00$00@Eigen@@$01@Eigen@@QBEHXZ 00450940 f i fluidsim.obj
 0002:0001e980       ?colStride@?$DenseCoeffsBase@V?$Block@$$CBV?$Matrix@M$02$02$0A@$02$02@Eigen@@$0?0$0?0$0A@@Eigen@@$01@Eigen@@QBEHXZ 00450980 f i fluidsim.obj
 0002:0001e9c0       ?colStride@?$DenseCoeffsBase@V?$Block@V?$Matrix@M$02$00$0A@$02$00@Eigen@@$0?0$00$0A@@Eigen@@$02@Eigen@@QBEHXZ 004509c0 f i fluidsim.obj
 0002:0001ea00       ?cols@?$CoeffBasedProduct@$$CBV?$CwiseUnaryOp@U?$scalar_multiple_op@M@internal@Eigen@@$$CBV?$Matrix@M$02$00$0A@$02$00@3@@Eigen@@$$CBV?$Transpose@V?$Matrix@M$02$00$0A@$02$00@Eigen@@@2@$0BAA@@Eigen@@QBEHXZ 00450a00 f i fluidsim.obj
 0002:0001ea30       ?cols@?$CoeffBasedProduct@$$CBV?$CwiseUnaryOp@U?$scalar_multiple_op@M@internal@Eigen@@$$CBV?$Matrix@M$02$02$0A@$02$02@3@@Eigen@@ABV?$Matrix@M$02$00$0A@$02$00@2@$05@Eigen@@QBEHXZ 00450a30 f i fluidsim.obj
 0002:0001ea60       ?cols@?$CoeffBasedProduct@ABV?$Matrix@M$02$02$00$02$02@Eigen@@ABV?$Matrix@M$02$02$0A@$02$02@2@$05@Eigen@@QBEHXZ 00450a60 f i fluidsim.obj
 0002:0001ea90       ?cols@?$CoeffBasedProduct@ABV?$Matrix@M$02$02$0A@$02$02@Eigen@@$$CBV?$Transpose@V?$Matrix@M$02$02$0A@$02$02@Eigen@@@2@$05@Eigen@@QBEHXZ 00450a90 f i fluidsim.obj
 0002:0001eac0       ?cols@?$CoeffBasedProduct@ABV?$Matrix@M$02$02$0A@$02$02@Eigen@@ABV12@$05@Eigen@@QBEHXZ 00450ac0 f i fluidsim.obj
 0002:0001eaf0       ?cols@?$CoeffBasedProduct@ABV?$Matrix@M$02$02$0A@$02$02@Eigen@@V12@$05@Eigen@@QBEHXZ 00450af0 f i fluidsim.obj
 0002:0001eb20       ?cols@?$CwiseNullaryOp@U?$scalar_constant_op@M@internal@Eigen@@V?$Matrix@M$02$00$0A@$02$00@3@@Eigen@@QBEHXZ 00450b20 f i fluidsim.obj
 0002:0001eb40       ?cols@?$CwiseNullaryOp@U?$scalar_constant_op@M@internal@Eigen@@V?$Matrix@M$02$02$0A@$02$02@3@@Eigen@@QBEHXZ 00450b40 f i fluidsim.obj
 0002:0001eb60       ?cols@?$CwiseNullaryOp@U?$scalar_identity_op@M@internal@Eigen@@V?$Matrix@M$02$02$0A@$02$02@3@@Eigen@@QBEHXZ 00450b60 f i fluidsim.obj
 0002:0001eb80       ?cols@?$CwiseUnaryOp@U?$scalar_multiple_op@M@internal@Eigen@@$$CBV?$Matrix@M$02$00$0A@$02$00@3@@Eigen@@QBEHXZ 00450b80 f i fluidsim.obj
 0002:0001ebb0       ?cols@?$CwiseUnaryOp@U?$scalar_multiple_op@M@internal@Eigen@@$$CBV?$Matrix@M$02$02$0A@$02$02@3@@Eigen@@QBEHXZ 00450bb0 f i fluidsim.obj
 0002:0001ebe0       ?cols@?$DenseStorage@M$02$02$00$0A@@Eigen@@SAHXZ 00450be0 f i fluidsim.obj
 0002:0001ec00       ?cols@?$DenseStorage@M$03$01$01$0A@@Eigen@@SAHXZ 00450c00 f i fluidsim.obj
 0002:0001ec20       ?cols@?$DenseStorage@M$08$02$02$00@Eigen@@SAHXZ 00450c20 f i fluidsim.obj
 0002:0001ec40       ?cols@?$DenseStorage@M$08$02$02$0A@@Eigen@@SAHXZ 00450c40 f i fluidsim.obj
 0002:0001ec60       ?cols@?$EigenBase@V?$Block@$$CBV?$Matrix@M$02$02$0A@$02$02@Eigen@@$0?0$0?0$0A@@Eigen@@@Eigen@@QBEHXZ 00450c60 f i fluidsim.obj
 0002:0001ec90       ?cols@?$EigenBase@V?$Block@V?$Matrix@M$01$01$0A@$01$01@Eigen@@$00$01$0A@@Eigen@@@Eigen@@QBEHXZ 00450c90 f i fluidsim.obj
 0002:0001ecc0       ?cols@?$EigenBase@V?$Block@V?$Matrix@M$02$02$0A@$02$02@Eigen@@$00$02$0A@@Eigen@@@Eigen@@QBEHXZ 00450cc0 f i fluidsim.obj
 0002:0001ecf0       ?cols@?$EigenBase@V?$Block@V?$Matrix@M$02$02$0A@$02$02@Eigen@@$02$00$00@Eigen@@@Eigen@@QBEHXZ 00450cf0 f i fluidsim.obj
 0002:0001ed20       ?cols@?$EigenBase@V?$CoeffBasedProduct@$$CBV?$CwiseUnaryOp@U?$scalar_multiple_op@M@internal@Eigen@@$$CBV?$Matrix@M$02$00$0A@$02$00@3@@Eigen@@$$CBV?$Transpose@V?$Matrix@M$02$00$0A@$02$00@Eigen@@@2@$0BAA@@Eigen@@@Eigen@@QBEHXZ 00450d20 f i fluidsim.obj
 0002:0001ed50       ?cols@?$EigenBase@V?$CoeffBasedProduct@$$CBV?$CwiseUnaryOp@U?$scalar_multiple_op@M@internal@Eigen@@$$CBV?$Matrix@M$02$02$0A@$02$02@3@@Eigen@@ABV?$Matrix@M$02$00$0A@$02$00@2@$05@Eigen@@@Eigen@@QBEHXZ 00450d50 f i fluidsim.obj
 0002:0001ed80       ?cols@?$EigenBase@V?$CoeffBasedProduct@ABV?$Matrix@M$02$02$00$02$02@Eigen@@ABV?$Matrix@M$02$02$0A@$02$02@2@$05@Eigen@@@Eigen@@QBEHXZ 00450d80 f i fluidsim.obj
 0002:0001edb0       ?cols@?$EigenBase@V?$CoeffBasedProduct@ABV?$Matrix@M$02$02$0A@$02$02@Eigen@@$$CBV?$Transpose@V?$Matrix@M$02$02$0A@$02$02@Eigen@@@2@$05@Eigen@@@Eigen@@QBEHXZ 00450db0 f i fluidsim.obj
 0002:0001ede0       ?cols@?$EigenBase@V?$CoeffBasedProduct@ABV?$Matrix@M$02$02$0A@$02$02@Eigen@@ABV12@$05@Eigen@@@Eigen@@QBEHXZ 00450de0 f i fluidsim.obj
 0002:0001ee10       ?cols@?$EigenBase@V?$CoeffBasedProduct@ABV?$Matrix@M$02$02$0A@$02$02@Eigen@@V12@$05@Eigen@@@Eigen@@QBEHXZ 00450e10 f i fluidsim.obj
 0002:0001ee40       ?cols@?$EigenBase@V?$CwiseNullaryOp@U?$scalar_constant_op@M@internal@Eigen@@V?$Matrix@M$02$00$0A@$02$00@3@@Eigen@@@Eigen@@QBEHXZ 00450e40 f i fluidsim.obj
 0002:0001ee70       ?cols@?$EigenBase@V?$CwiseNullaryOp@U?$scalar_constant_op@M@internal@Eigen@@V?$Matrix@M$02$02$0A@$02$02@3@@Eigen@@@Eigen@@QBEHXZ 00450e70 f i fluidsim.obj
 0002:0001eea0       ?cols@?$EigenBase@V?$CwiseNullaryOp@U?$scalar_identity_op@M@internal@Eigen@@V?$Matrix@M$02$02$0A@$02$02@3@@Eigen@@@Eigen@@QBEHXZ 00450ea0 f i fluidsim.obj
 0002:0001eed0       ?cols@?$EigenBase@V?$Matrix@M$01$01$0A@$01$01@Eigen@@@Eigen@@QBEHXZ 00450ed0 f i fluidsim.obj
 0002:0001ef00       ?cols@?$EigenBase@V?$Matrix@M$02$00$0A@$02$00@Eigen@@@Eigen@@QBEHXZ 00450f00 f i fluidsim.obj
 0002:0001ef30       ?cols@?$EigenBase@V?$Matrix@M$02$02$00$02$02@Eigen@@@Eigen@@QBEHXZ 00450f30 f i fluidsim.obj
 0002:0001ef60       ?cols@?$EigenBase@V?$Matrix@M$02$02$0A@$02$02@Eigen@@@Eigen@@QBEHXZ 00450f60 f i fluidsim.obj
 0002:0001ef90       ?cols@?$EigenBase@V?$SwapWrapper@V?$Block@V?$Matrix@M$02$02$0A@$02$02@Eigen@@$02$00$00@Eigen@@@Eigen@@@Eigen@@QBEHXZ 00450f90 f i fluidsim.obj
 0002:0001efc0       ?cols@?$EigenBase@V?$Transpose@$$CBV?$CwiseUnaryOp@U?$scalar_multiple_op@M@internal@Eigen@@$$CBV?$Matrix@M$02$00$0A@$02$00@3@@Eigen@@@Eigen@@@Eigen@@QBEHXZ 00450fc0 f i fluidsim.obj
 0002:0001eff0       ?cols@?$MapBase@V?$Block@$$CBV?$Matrix@M$02$02$0A@$02$02@Eigen@@$02$00$00@Eigen@@$0A@@Eigen@@QBEHXZ 00450ff0 f i fluidsim.obj
 0002:0001f010       ?cols@?$MapBase@V?$Block@$$CBV?$Matrix@M$02$02$0A@$02$02@Eigen@@$0?0$0?0$0A@@Eigen@@$0A@@Eigen@@QBEHXZ 00451010 f i fluidsim.obj
 0002:0001f040       ?cols@?$MapBase@V?$Block@V?$Matrix@M$01$01$0A@$01$01@Eigen@@$00$01$0A@@Eigen@@$0A@@Eigen@@QBEHXZ 00451040 f i fluidsim.obj
 0002:0001f060       ?cols@?$MapBase@V?$Block@V?$Matrix@M$02$00$0A@$02$00@Eigen@@$0?0$00$0A@@Eigen@@$0A@@Eigen@@QBEHXZ 00451060 f i fluidsim.obj
 0002:0001f080       ?cols@?$MapBase@V?$Block@V?$Matrix@M$02$02$0A@$02$02@Eigen@@$00$02$0A@@Eigen@@$0A@@Eigen@@QBEHXZ 00451080 f i fluidsim.obj
 0002:0001f0a0       ?cols@?$MapBase@V?$Block@V?$Matrix@M$02$02$0A@$02$02@Eigen@@$02$00$00@Eigen@@$0A@@Eigen@@QBEHXZ 004510a0 f i fluidsim.obj
 0002:0001f0c0       ?cols@?$PlainObjectBase@V?$Matrix@M$01$01$0A@$01$01@Eigen@@@Eigen@@QBEHXZ 004510c0 f i fluidsim.obj
 0002:0001f0e0       ?cols@?$PlainObjectBase@V?$Matrix@M$02$00$0A@$02$00@Eigen@@@Eigen@@QBEHXZ 004510e0 f i fluidsim.obj
 0002:0001f100       ?cols@?$PlainObjectBase@V?$Matrix@M$02$02$00$02$02@Eigen@@@Eigen@@QBEHXZ 00451100 f i fluidsim.obj
 0002:0001f120       ?cols@?$PlainObjectBase@V?$Matrix@M$02$02$0A@$02$02@Eigen@@@Eigen@@QBEHXZ 00451120 f i fluidsim.obj
 0002:0001f140       ?cols@?$ReturnByValue@U?$inverse_impl@V?$Matrix@M$02$02$0A@$02$02@Eigen@@@internal@Eigen@@@Eigen@@QBEHXZ 00451140 f i fluidsim.obj
 0002:0001f170       ?cols@?$SelfCwiseBinaryOp@U?$scalar_difference_op@M@internal@Eigen@@V?$Matrix@M$02$00$0A@$02$00@3@V?$CoeffBasedProduct@$$CBV?$CwiseUnaryOp@U?$scalar_multiple_op@M@internal@Eigen@@$$CBV?$Matrix@M$02$02$0A@$02$02@3@@Eigen@@ABV?$Matrix@M$02$00$0A@$02$00@2@$05@3@@Eigen@@QBEHXZ 00451170 f i fluidsim.obj
 0002:0001f1a0       ?cols@?$SelfCwiseBinaryOp@U?$scalar_product_op@MM@internal@Eigen@@V?$Block@V?$Matrix@M$02$02$0A@$02$02@Eigen@@$02$00$00@3@V?$CwiseNullaryOp@U?$scalar_constant_op@M@internal@Eigen@@V?$Matrix@M$02$00$0A@$02$00@3@@3@@Eigen@@QBEHXZ 004511a0 f i fluidsim.obj
 0002:0001f1d0       ?cols@?$SelfCwiseBinaryOp@U?$scalar_sum_op@M@internal@Eigen@@V?$Matrix@M$02$02$0A@$02$02@3@V?$CoeffBasedProduct@$$CBV?$CwiseUnaryOp@U?$scalar_multiple_op@M@internal@Eigen@@$$CBV?$Matrix@M$02$00$0A@$02$00@3@@Eigen@@$$CBV?$Transpose@V?$Matrix@M$02$00$0A@$02$00@Eigen@@@2@$0BAA@@3@@Eigen@@QBEHXZ 004511d0 f i fluidsim.obj
 0002:0001f200       ?cols@?$SwapWrapper@V?$Block@V?$Matrix@M$02$02$0A@$02$02@Eigen@@$02$00$00@Eigen@@@Eigen@@QBEHXZ 00451200 f i fluidsim.obj
 0002:0001f230       ?cols@?$Transpose@$$CBV?$CwiseUnaryOp@U?$scalar_multiple_op@M@internal@Eigen@@$$CBV?$Matrix@M$02$00$0A@$02$00@3@@Eigen@@@Eigen@@QBEHXZ 00451230 f i fluidsim.obj
 0002:0001f260       ?cols@?$Transpose@V?$Matrix@M$02$00$0A@$02$00@Eigen@@@Eigen@@QBEHXZ 00451260 f i fluidsim.obj
 0002:0001f290       ?cols@?$Transpose@V?$Matrix@M$02$02$0A@$02$02@Eigen@@@Eigen@@QBEHXZ 00451290 f i fluidsim.obj
 0002:0001f2c0       ?cols@?$inverse_impl@V?$Matrix@M$02$02$0A@$02$02@Eigen@@@internal@Eigen@@QBEHXZ 004512c0 f i fluidsim.obj
 0002:0001f2f0       ?compare@?$basic_string@DU?$char_traits@D@std@@V?$allocator@D@2@@std@@QBEHABV12@@Z 004512f0 f i fluidsim.obj
 0002:0001f340       ?compare@?$basic_string@DU?$char_traits@D@std@@V?$allocator@D@2@@std@@QBEHIIPBDI@Z 00451340 f i fluidsim.obj
 0002:0001f430       ?compare@?$char_traits@D@std@@SAHPBD0I@Z 00451430 f i fluidsim.obj
 0002:0001f480       ?compare_particles@@YA_NUParticle@@0@Z 00451480 f   fluidsim.obj
 0002:0001f4c0       ?compute@?$JacobiSVD@V?$Matrix@M$02$02$0A@$02$02@Eigen@@$01@Eigen@@QAEAAV12@ABV?$Matrix@M$02$02$0A@$02$02@2@I@Z 004514c0 f i fluidsim.obj
 0002:0001fc40       ?computeU@?$JacobiSVD@V?$Matrix@M$02$02$0A@$02$02@Eigen@@$01@Eigen@@QBE_NXZ 00451c40 f i fluidsim.obj
 0002:0001fc90       ?computeV@?$JacobiSVD@V?$Matrix@M$02$02$0A@$02$02@Eigen@@$01@Eigen@@QBE_NXZ 00451c90 f i fluidsim.obj
 0002:00020980       ?compute_grid_forces@FluidSim@@AAEXM@Z 00452980 f   fluidsim.obj
 0002:00020a10       ?compute_index@Particle@@QAEXMHHH@Z 00452a10 f i fluidsim.obj
 0002:000210b0       ?compute_particle_vol_dens@FluidSim@@AAEXXZ 004530b0 f   fluidsim.obj
 0002:00021130       ?compute_psi@FluidSim@@AAEMV?$Matrix@M$02$02$0A@$02$02@Eigen@@00@Z 00453130 f   fluidsim.obj
 0002:00021490       ?const_cast_derived@?$EigenBase@V?$Block@V?$Matrix@M$02$02$0A@$02$02@Eigen@@$02$00$00@Eigen@@@Eigen@@QBEAAV?$Block@V?$Matrix@M$02$02$0A@$02$02@Eigen@@$02$00$00@2@XZ 00453490 f i fluidsim.obj
 0002:000214b0       ?const_cast_derived@?$EigenBase@V?$CoeffBasedProduct@$$CBV?$CwiseUnaryOp@U?$scalar_multiple_op@M@internal@Eigen@@$$CBV?$Matrix@M$02$00$0A@$02$00@3@@Eigen@@$$CBV?$Transpose@V?$Matrix@M$02$00$0A@$02$00@Eigen@@@2@$0BAA@@Eigen@@@Eigen@@QBEAAV?$CoeffBasedProduct@$$CBV?$CwiseUnaryOp@U?$scalar_multiple_op@M@internal@Eigen@@$$CBV?$Matrix@M$02$00$0A@$02$00@3@@Eigen@@$$CBV?$Transpose@V?$Matrix@M$02$00$0A@$02$00@Eigen@@@2@$0BAA@@2@XZ 004534b0 f i fluidsim.obj
 0002:000214f0       ?const_cast_derived@?$EigenBase@V?$CwiseNullaryOp@U?$scalar_constant_op@M@internal@Eigen@@V?$Matrix@M$02$00$0A@$02$00@3@@Eigen@@@Eigen@@QBEAAV?$CwiseNullaryOp@U?$scalar_constant_op@M@internal@Eigen@@V?$Matrix@M$02$00$0A@$02$00@3@@2@XZ 004534f0 f i fluidsim.obj
 0002:00021530       ?const_cast_derived@?$EigenBase@V?$Matrix@M$02$00$0A@$02$00@Eigen@@@Eigen@@QBEAAV?$Matrix@M$02$00$0A@$02$00@2@XZ 00453530 f i fluidsim.obj
 0002:00021550       ?construct@?$allocator@U?$Vec@$02M@@@std@@QAEXPAU?$Vec@$02M@@ABU3@@Z 00453550 f i fluidsim.obj
 0002:000215c0       ?copy@?$char_traits@D@std@@SAPADPADPBDI@Z 004535c0 f i fluidsim.obj
 0002:00021610       ?cwiseAbs2@?$MatrixBase@V?$CwiseBinaryOp@U?$scalar_difference_op@M@internal@Eigen@@$$CBV?$Matrix@M$02$02$0A@$02$02@3@$$CBV43@@Eigen@@@Eigen@@QBE?BV?$CwiseUnaryOp@U?$scalar_abs2_op@M@internal@Eigen@@$$CBV?$CwiseBinaryOp@U?$scalar_difference_op@M@internal@Eigen@@$$CBV?$Matrix@M$02$02$0A@$02$02@3@$$CBV43@@3@@2@XZ 00453610 f i fluidsim.obj
 0002:00021650       ?data@?$DenseStorage@M$02$02$00$0A@@Eigen@@QAEPAMXZ 00453650 f i fluidsim.obj
 0002:00021670       ?data@?$DenseStorage@M$02$02$00$0A@@Eigen@@QBEPBMXZ 00453670 f i fluidsim.obj
 0002:00021690       ?data@?$DenseStorage@M$03$01$01$0A@@Eigen@@QAEPAMXZ 00453690 f i fluidsim.obj
 0002:000216b0       ?data@?$DenseStorage@M$03$01$01$0A@@Eigen@@QBEPBMXZ 004536b0 f i fluidsim.obj
 0002:000216d0       ?data@?$DenseStorage@M$08$02$02$00@Eigen@@QAEPAMXZ 004536d0 f i fluidsim.obj
 0002:000216f0       ?data@?$DenseStorage@M$08$02$02$00@Eigen@@QBEPBMXZ 004536f0 f i fluidsim.obj
 0002:00021710       ?data@?$DenseStorage@M$08$02$02$0A@@Eigen@@QAEPAMXZ 00453710 f i fluidsim.obj
 0002:00021730       ?data@?$DenseStorage@M$08$02$02$0A@@Eigen@@QBEPBMXZ 00453730 f i fluidsim.obj
 0002:00021750       ?data@?$MapBase@V?$Block@V?$Matrix@M$02$02$0A@$02$02@Eigen@@$00$02$0A@@Eigen@@$00@Eigen@@QBEPBMXZ 00453750 f i fluidsim.obj
 0002:00021770       ?data@?$PlainObjectBase@V?$Matrix@M$02$00$0A@$02$00@Eigen@@@Eigen@@QAEPAMXZ 00453770 f i fluidsim.obj
 0002:000217a0       ?data@?$PlainObjectBase@V?$Matrix@M$02$02$0A@$02$02@Eigen@@@Eigen@@QBEPBMXZ 004537a0 f i fluidsim.obj
 0002:000217d0       ?data@?$TransposeImpl@$$CBV?$Matrix@M$02$00$0A@$02$00@Eigen@@UDense@2@@Eigen@@QAEPBMXZ 004537d0 f i fluidsim.obj
 0002:00021810       ?deallocate@?$_Wrap_alloc@V?$allocator@D@std@@@std@@QAEXPADI@Z 00453810 f i fluidsim.obj
 0002:00021840       ?deallocate@?$_Wrap_alloc@V?$allocator@U?$Vec@$02I@@@std@@@std@@QAEXPAU?$Vec@$02I@@I@Z 00453840 f i fluidsim.obj
 0002:00021870       ?deallocate@?$_Wrap_alloc@V?$allocator@U?$Vec@$02M@@@std@@@std@@QAEXPAU?$Vec@$02M@@I@Z 00453870 f i fluidsim.obj
 0002:000218a0       ?deallocate@?$_Wrap_alloc@V?$allocator@UParticle@@@std@@@std@@QAEXPAUParticle@@I@Z 004538a0 f i fluidsim.obj
 0002:000218d0       ?deallocate@?$allocator@D@std@@QAEXPADI@Z 004538d0 f i fluidsim.obj
 0002:00021900       ?deallocate@?$allocator@U?$Vec@$02I@@@std@@QAEXPAU?$Vec@$02I@@I@Z 00453900 f i fluidsim.obj
 0002:00021930       ?deallocate@?$allocator@U?$Vec@$02M@@@std@@QAEXPAU?$Vec@$02M@@I@Z 00453930 f i fluidsim.obj
 0002:00021960       ?deallocate@?$allocator@UParticle@@@std@@QAEXPAUParticle@@I@Z 00453960 f i fluidsim.obj
 0002:00021990       ?default_error_condition@_System_error_category@std@@UBE?AVerror_condition@2@H@Z 00453990 f i fluidsim.obj
 0002:00021a00       ?default_error_condition@error_category@std@@UBE?AVerror_condition@2@H@Z 00453a00 f i fluidsim.obj
 0002:00021a40       ?denorm_min@?$numeric_limits@M@std@@SAMXZ 00453a40 f i fluidsim.obj
 0002:00021a70       ?derived@?$EigenBase@V?$Block@$$CBV?$Matrix@M$02$02$0A@$02$02@Eigen@@$02$00$00@Eigen@@@Eigen@@QBEABV?$Block@$$CBV?$Matrix@M$02$02$0A@$02$02@Eigen@@$02$00$00@2@XZ 00453a70 f i fluidsim.obj
 0002:00021a90       ?derived@?$EigenBase@V?$Block@$$CBV?$Matrix@M$02$02$0A@$02$02@Eigen@@$0?0$0?0$0A@@Eigen@@@Eigen@@QBEABV?$Block@$$CBV?$Matrix@M$02$02$0A@$02$02@Eigen@@$0?0$0?0$0A@@2@XZ 00453a90 f i fluidsim.obj
 0002:00021ab0       ?derived@?$EigenBase@V?$Block@V?$Matrix@M$01$01$0A@$01$01@Eigen@@$00$01$0A@@Eigen@@@Eigen@@QBEABV?$Block@V?$Matrix@M$01$01$0A@$01$01@Eigen@@$00$01$0A@@2@XZ 00453ab0 f i fluidsim.obj
 0002:00021ad0       ?derived@?$EigenBase@V?$Block@V?$Matrix@M$02$00$0A@$02$00@Eigen@@$0?0$00$0A@@Eigen@@@Eigen@@QBEABV?$Block@V?$Matrix@M$02$00$0A@$02$00@Eigen@@$0?0$00$0A@@2@XZ 00453ad0 f i fluidsim.obj
 0002:00021af0       ?derived@?$EigenBase@V?$Block@V?$Matrix@M$02$02$0A@$02$02@Eigen@@$00$02$0A@@Eigen@@@Eigen@@QAEAAV?$Block@V?$Matrix@M$02$02$0A@$02$02@Eigen@@$00$02$0A@@2@XZ 00453af0 f i fluidsim.obj
 0002:00021b10       ?derived@?$EigenBase@V?$Block@V?$Matrix@M$02$02$0A@$02$02@Eigen@@$00$02$0A@@Eigen@@@Eigen@@QBEABV?$Block@V?$Matrix@M$02$02$0A@$02$02@Eigen@@$00$02$0A@@2@XZ 00453b10 f i fluidsim.obj
 0002:00021b30       ?derived@?$EigenBase@V?$Block@V?$Matrix@M$02$02$0A@$02$02@Eigen@@$02$00$00@Eigen@@@Eigen@@QAEAAV?$Block@V?$Matrix@M$02$02$0A@$02$02@Eigen@@$02$00$00@2@XZ 00453b30 f i fluidsim.obj
 0002:00021b50       ?derived@?$EigenBase@V?$Block@V?$Matrix@M$02$02$0A@$02$02@Eigen@@$02$00$00@Eigen@@@Eigen@@QBEABV?$Block@V?$Matrix@M$02$02$0A@$02$02@Eigen@@$02$00$00@2@XZ 00453b50 f i fluidsim.obj
 0002:00021b70       ?derived@?$EigenBase@V?$CoeffBasedProduct@$$CBV?$CwiseUnaryOp@U?$scalar_multiple_op@M@internal@Eigen@@$$CBV?$Matrix@M$02$00$0A@$02$00@3@@Eigen@@$$CBV?$Transpose@V?$Matrix@M$02$00$0A@$02$00@Eigen@@@2@$0BAA@@Eigen@@@Eigen@@QBEABV?$CoeffBasedProduct@$$CBV?$CwiseUnaryOp@U?$scalar_multiple_op@M@internal@Eigen@@$$CBV?$Matrix@M$02$00$0A@$02$00@3@@Eigen@@$$CBV?$Transpose@V?$Matrix@M$02$00$0A@$02$00@Eigen@@@2@$0BAA@@2@XZ 00453b70 f i fluidsim.obj
 0002:00021bb0       ?derived@?$EigenBase@V?$CoeffBasedProduct@$$CBV?$CwiseUnaryOp@U?$scalar_multiple_op@M@internal@Eigen@@$$CBV?$Matrix@M$02$02$0A@$02$02@3@@Eigen@@ABV?$Matrix@M$02$00$0A@$02$00@2@$05@Eigen@@@Eigen@@QBEABV?$CoeffBasedProduct@$$CBV?$CwiseUnaryOp@U?$scalar_multiple_op@M@internal@Eigen@@$$CBV?$Matrix@M$02$02$0A@$02$02@3@@Eigen@@ABV?$Matrix@M$02$00$0A@$02$00@2@$05@2@XZ 00453bb0 f i fluidsim.obj
 0002:00021bf0       ?derived@?$EigenBase@V?$CoeffBasedProduct@ABV?$Matrix@M$02$02$00$02$02@Eigen@@ABV?$Matrix@M$02$02$0A@$02$02@2@$05@Eigen@@@Eigen@@QBEABV?$CoeffBasedProduct@ABV?$Matrix@M$02$02$00$02$02@Eigen@@ABV?$Matrix@M$02$02$0A@$02$02@2@$05@2@XZ 00453bf0 f i fluidsim.obj
 0002:00021c30       ?derived@?$EigenBase@V?$CoeffBasedProduct@ABV?$Matrix@M$02$02$0A@$02$02@Eigen@@$$CBV?$Transpose@V?$Matrix@M$02$02$0A@$02$02@Eigen@@@2@$05@Eigen@@@Eigen@@QBEABV?$CoeffBasedProduct@ABV?$Matrix@M$02$02$0A@$02$02@Eigen@@$$CBV?$Transpose@V?$Matrix@M$02$02$0A@$02$02@Eigen@@@2@$05@2@XZ 00453c30 f i fluidsim.obj
 0002:00021c70       ?derived@?$EigenBase@V?$CoeffBasedProduct@ABV?$Matrix@M$02$02$0A@$02$02@Eigen@@ABV12@$05@Eigen@@@Eigen@@QBEABV?$CoeffBasedProduct@ABV?$Matrix@M$02$02$0A@$02$02@Eigen@@ABV12@$05@2@XZ 00453c70 f i fluidsim.obj
 0002:00021cb0       ?derived@?$EigenBase@V?$CoeffBasedProduct@ABV?$Matrix@M$02$02$0A@$02$02@Eigen@@V12@$05@Eigen@@@Eigen@@QBEABV?$CoeffBasedProduct@ABV?$Matrix@M$02$02$0A@$02$02@Eigen@@V12@$05@2@XZ 00453cb0 f i fluidsim.obj
 0002:00021cf0       ?derived@?$EigenBase@V?$CwiseBinaryOp@U?$scalar_difference_op@M@internal@Eigen@@$$CBV?$Matrix@M$02$02$0A@$02$02@3@$$CBV43@@Eigen@@@Eigen@@QBEABV?$CwiseBinaryOp@U?$scalar_difference_op@M@internal@Eigen@@$$CBV?$Matrix@M$02$02$0A@$02$02@3@$$CBV43@@2@XZ 00453cf0 f i fluidsim.obj
 0002:00021d30       ?derived@?$EigenBase@V?$CwiseBinaryOp@U?$scalar_product_op@MM@internal@Eigen@@$$CBV?$Matrix@M$02$00$0A@$02$00@3@$$CBV?$Block@$$CBV?$Matrix@M$02$02$0A@$02$02@Eigen@@$02$00$00@3@@Eigen@@@Eigen@@QBEABV?$CwiseBinaryOp@U?$scalar_product_op@MM@internal@Eigen@@$$CBV?$Matrix@M$02$00$0A@$02$00@3@$$CBV?$Block@$$CBV?$Matrix@M$02$02$0A@$02$02@Eigen@@$02$00$00@3@@2@XZ 00453d30 f i fluidsim.obj
 0002:00021d70       ?derived@?$EigenBase@V?$CwiseNullaryOp@U?$scalar_constant_op@M@internal@Eigen@@V?$Matrix@M$02$00$0A@$02$00@3@@Eigen@@@Eigen@@QBEABV?$CwiseNullaryOp@U?$scalar_constant_op@M@internal@Eigen@@V?$Matrix@M$02$00$0A@$02$00@3@@2@XZ 00453d70 f i fluidsim.obj
 0002:00021db0       ?derived@?$EigenBase@V?$CwiseNullaryOp@U?$scalar_constant_op@M@internal@Eigen@@V?$Matrix@M$02$02$0A@$02$02@3@@Eigen@@@Eigen@@QBEABV?$CwiseNullaryOp@U?$scalar_constant_op@M@internal@Eigen@@V?$Matrix@M$02$02$0A@$02$02@3@@2@XZ 00453db0 f i fluidsim.obj
 0002:00021df0       ?derived@?$EigenBase@V?$CwiseNullaryOp@U?$scalar_identity_op@M@internal@Eigen@@V?$Matrix@M$02$02$0A@$02$02@3@@Eigen@@@Eigen@@QBEABV?$CwiseNullaryOp@U?$scalar_identity_op@M@internal@Eigen@@V?$Matrix@M$02$02$0A@$02$02@3@@2@XZ 00453df0 f i fluidsim.obj
 0002:00021e30       ?derived@?$EigenBase@V?$CwiseUnaryOp@U?$scalar_abs2_op@M@internal@Eigen@@$$CBV?$CwiseBinaryOp@U?$scalar_difference_op@M@internal@Eigen@@$$CBV?$Matrix@M$02$02$0A@$02$02@3@$$CBV43@@3@@Eigen@@@Eigen@@QBEABV?$CwiseUnaryOp@U?$scalar_abs2_op@M@internal@Eigen@@$$CBV?$CwiseBinaryOp@U?$scalar_difference_op@M@internal@Eigen@@$$CBV?$Matrix@M$02$02$0A@$02$02@3@$$CBV43@@3@@2@XZ 00453e30 f i fluidsim.obj
 0002:00021e70       ?derived@?$EigenBase@V?$CwiseUnaryOp@U?$scalar_multiple_op@M@internal@Eigen@@$$CBV?$Matrix@M$02$00$0A@$02$00@3@@Eigen@@@Eigen@@QBEABV?$CwiseUnaryOp@U?$scalar_multiple_op@M@internal@Eigen@@$$CBV?$Matrix@M$02$00$0A@$02$00@3@@2@XZ 00453e70 f i fluidsim.obj
 0002:00021eb0       ?derived@?$EigenBase@V?$CwiseUnaryOp@U?$scalar_multiple_op@M@internal@Eigen@@$$CBV?$Matrix@M$02$02$0A@$02$02@3@@Eigen@@@Eigen@@QBEABV?$CwiseUnaryOp@U?$scalar_multiple_op@M@internal@Eigen@@$$CBV?$Matrix@M$02$02$0A@$02$02@3@@2@XZ 00453eb0 f i fluidsim.obj
 0002:00021ef0       ?derived@?$EigenBase@V?$Matrix@M$01$01$0A@$01$01@Eigen@@@Eigen@@QAEAAV?$Matrix@M$01$01$0A@$01$01@2@XZ 00453ef0 f i fluidsim.obj
 0002:00021f10       ?derived@?$EigenBase@V?$Matrix@M$01$01$0A@$01$01@Eigen@@@Eigen@@QBEABV?$Matrix@M$01$01$0A@$01$01@2@XZ 00453f10 f i fluidsim.obj
 0002:00021f30       ?derived@?$EigenBase@V?$Matrix@M$02$00$0A@$02$00@Eigen@@@Eigen@@QAEAAV?$Matrix@M$02$00$0A@$02$00@2@XZ 00453f30 f i fluidsim.obj
 0002:00021f50       ?derived@?$EigenBase@V?$Matrix@M$02$00$0A@$02$00@Eigen@@@Eigen@@QBEABV?$Matrix@M$02$00$0A@$02$00@2@XZ 00453f50 f i fluidsim.obj
 0002:00021f70       ?derived@?$EigenBase@V?$Matrix@M$02$02$00$02$02@Eigen@@@Eigen@@QAEAAV?$Matrix@M$02$02$00$02$02@2@XZ 00453f70 f i fluidsim.obj
 0002:00021f90       ?derived@?$EigenBase@V?$Matrix@M$02$02$00$02$02@Eigen@@@Eigen@@QBEABV?$Matrix@M$02$02$00$02$02@2@XZ 00453f90 f i fluidsim.obj
 0002:00021fb0       ?derived@?$EigenBase@V?$Matrix@M$02$02$0A@$02$02@Eigen@@@Eigen@@QAEAAV?$Matrix@M$02$02$0A@$02$02@2@XZ 00453fb0 f i fluidsim.obj
 0002:00021fd0       ?derived@?$EigenBase@V?$Matrix@M$02$02$0A@$02$02@Eigen@@@Eigen@@QBEABV?$Matrix@M$02$02$0A@$02$02@2@XZ 00453fd0 f i fluidsim.obj
 0002:00021ff0       ?derived@?$EigenBase@V?$ReturnByValue@U?$inverse_impl@V?$Matrix@M$02$02$0A@$02$02@Eigen@@@internal@Eigen@@@Eigen@@@Eigen@@QBEABV?$ReturnByValue@U?$inverse_impl@V?$Matrix@M$02$02$0A@$02$02@Eigen@@@internal@Eigen@@@2@XZ 00453ff0 f i fluidsim.obj
 0002:00022030       ?derived@?$EigenBase@V?$SelfCwiseBinaryOp@U?$scalar_difference_op@M@internal@Eigen@@V?$Matrix@M$02$00$0A@$02$00@3@V?$CoeffBasedProduct@$$CBV?$CwiseUnaryOp@U?$scalar_multiple_op@M@internal@Eigen@@$$CBV?$Matrix@M$02$02$0A@$02$02@3@@Eigen@@ABV?$Matrix@M$02$00$0A@$02$00@2@$05@3@@Eigen@@@Eigen@@QAEAAV?$SelfCwiseBinaryOp@U?$scalar_difference_op@M@internal@Eigen@@V?$Matrix@M$02$00$0A@$02$00@3@V?$CoeffBasedProduct@$$CBV?$CwiseUnaryOp@U?$scalar_multiple_op@M@internal@Eigen@@$$CBV?$Matrix@M$02$02$0A@$02$02@3@@Eigen@@ABV?$Matrix@M$02$00$0A@$02$00@2@$05@3@@2@XZ 00454030 f i fluidsim.obj
 0002:00022050       ?derived@?$EigenBase@V?$SelfCwiseBinaryOp@U?$scalar_difference_op@M@internal@Eigen@@V?$Matrix@M$02$00$0A@$02$00@3@V?$CoeffBasedProduct@$$CBV?$CwiseUnaryOp@U?$scalar_multiple_op@M@internal@Eigen@@$$CBV?$Matrix@M$02$02$0A@$02$02@3@@Eigen@@ABV?$Matrix@M$02$00$0A@$02$00@2@$05@3@@Eigen@@@Eigen@@QBEABV?$SelfCwiseBinaryOp@U?$scalar_difference_op@M@internal@Eigen@@V?$Matrix@M$02$00$0A@$02$00@3@V?$CoeffBasedProduct@$$CBV?$CwiseUnaryOp@U?$scalar_multiple_op@M@internal@Eigen@@$$CBV?$Matrix@M$02$02$0A@$02$02@3@@Eigen@@ABV?$Matrix@M$02$00$0A@$02$00@2@$05@3@@2@XZ 00454050 f i fluidsim.obj
 0002:00022070       ?derived@?$EigenBase@V?$SelfCwiseBinaryOp@U?$scalar_product_op@MM@internal@Eigen@@V?$Block@V?$Matrix@M$02$02$0A@$02$02@Eigen@@$02$00$00@3@V?$CwiseNullaryOp@U?$scalar_constant_op@M@internal@Eigen@@V?$Matrix@M$02$00$0A@$02$00@3@@3@@Eigen@@@Eigen@@QAEAAV?$SelfCwiseBinaryOp@U?$scalar_product_op@MM@internal@Eigen@@V?$Block@V?$Matrix@M$02$02$0A@$02$02@Eigen@@$02$00$00@3@V?$CwiseNullaryOp@U?$scalar_constant_op@M@internal@Eigen@@V?$Matrix@M$02$00$0A@$02$00@3@@3@@2@XZ 00454070 f i fluidsim.obj
 0002:00022090       ?derived@?$EigenBase@V?$SelfCwiseBinaryOp@U?$scalar_product_op@MM@internal@Eigen@@V?$Block@V?$Matrix@M$02$02$0A@$02$02@Eigen@@$02$00$00@3@V?$CwiseNullaryOp@U?$scalar_constant_op@M@internal@Eigen@@V?$Matrix@M$02$00$0A@$02$00@3@@3@@Eigen@@@Eigen@@QBEABV?$SelfCwiseBinaryOp@U?$scalar_product_op@MM@internal@Eigen@@V?$Block@V?$Matrix@M$02$02$0A@$02$02@Eigen@@$02$00$00@3@V?$CwiseNullaryOp@U?$scalar_constant_op@M@internal@Eigen@@V?$Matrix@M$02$00$0A@$02$00@3@@3@@2@XZ 00454090 f i fluidsim.obj
 0002:000220b0       ?derived@?$EigenBase@V?$SelfCwiseBinaryOp@U?$scalar_sum_op@M@internal@Eigen@@V?$Matrix@M$02$02$0A@$02$02@3@V?$CoeffBasedProduct@$$CBV?$CwiseUnaryOp@U?$scalar_multiple_op@M@internal@Eigen@@$$CBV?$Matrix@M$02$00$0A@$02$00@3@@Eigen@@$$CBV?$Transpose@V?$Matrix@M$02$00$0A@$02$00@Eigen@@@2@$0BAA@@3@@Eigen@@@Eigen@@QAEAAV?$SelfCwiseBinaryOp@U?$scalar_sum_op@M@internal@Eigen@@V?$Matrix@M$02$02$0A@$02$02@3@V?$CoeffBasedProduct@$$CBV?$CwiseUnaryOp@U?$scalar_multiple_op@M@internal@Eigen@@$$CBV?$Matrix@M$02$00$0A@$02$00@3@@Eigen@@$$CBV?$Transpose@V?$Matrix@M$02$00$0A@$02$00@Eigen@@@2@$0BAA@@3@@2@XZ 004540b0 f i fluidsim.obj
 0002:000220d0       ?derived@?$EigenBase@V?$SelfCwiseBinaryOp@U?$scalar_sum_op@M@internal@Eigen@@V?$Matrix@M$02$02$0A@$02$02@3@V?$CoeffBasedProduct@$$CBV?$CwiseUnaryOp@U?$scalar_multiple_op@M@internal@Eigen@@$$CBV?$Matrix@M$02$00$0A@$02$00@3@@Eigen@@$$CBV?$Transpose@V?$Matrix@M$02$00$0A@$02$00@Eigen@@@2@$0BAA@@3@@Eigen@@@Eigen@@QBEABV?$SelfCwiseBinaryOp@U?$scalar_sum_op@M@internal@Eigen@@V?$Matrix@M$02$02$0A@$02$02@3@V?$CoeffBasedProduct@$$CBV?$CwiseUnaryOp@U?$scalar_multiple_op@M@internal@Eigen@@$$CBV?$Matrix@M$02$00$0A@$02$00@3@@Eigen@@$$CBV?$Transpose@V?$Matrix@M$02$00$0A@$02$00@Eigen@@@2@$0BAA@@3@@2@XZ 004540d0 f i fluidsim.obj
 0002:000220f0       ?derived@?$EigenBase@V?$SwapWrapper@V?$Block@V?$Matrix@M$02$02$0A@$02$02@Eigen@@$02$00$00@Eigen@@@Eigen@@@Eigen@@QAEAAV?$SwapWrapper@V?$Block@V?$Matrix@M$02$02$0A@$02$02@Eigen@@$02$00$00@Eigen@@@2@XZ 004540f0 f i fluidsim.obj
 0002:00022110       ?derived@?$EigenBase@V?$SwapWrapper@V?$Block@V?$Matrix@M$02$02$0A@$02$02@Eigen@@$02$00$00@Eigen@@@Eigen@@@Eigen@@QBEABV?$SwapWrapper@V?$Block@V?$Matrix@M$02$02$0A@$02$02@Eigen@@$02$00$00@Eigen@@@2@XZ 00454110 f i fluidsim.obj
 0002:00022130       ?derived@?$EigenBase@V?$Transpose@$$CBV?$CwiseUnaryOp@U?$scalar_multiple_op@M@internal@Eigen@@$$CBV?$Matrix@M$02$00$0A@$02$00@3@@Eigen@@@Eigen@@@Eigen@@QBEABV?$Transpose@$$CBV?$CwiseUnaryOp@U?$scalar_multiple_op@M@internal@Eigen@@$$CBV?$Matrix@M$02$00$0A@$02$00@3@@Eigen@@@2@XZ 00454130 f i fluidsim.obj
 0002:00022150       ?derived@?$EigenBase@V?$Transpose@$$CBV?$Matrix@M$02$00$0A@$02$00@Eigen@@@Eigen@@@Eigen@@QAEAAV?$Transpose@$$CBV?$Matrix@M$02$00$0A@$02$00@Eigen@@@2@XZ 00454150 f i fluidsim.obj
 0002:00022170       ?derived@?$EigenBase@V?$Transpose@V?$Matrix@M$02$00$0A@$02$00@Eigen@@@Eigen@@@Eigen@@QBEABV?$Transpose@V?$Matrix@M$02$00$0A@$02$00@Eigen@@@2@XZ 00454170 f i fluidsim.obj
 0002:00022190       ?derived@?$EigenBase@V?$Transpose@V?$Matrix@M$02$02$0A@$02$02@Eigen@@@Eigen@@@Eigen@@QBEABV?$Transpose@V?$Matrix@M$02$02$0A@$02$02@Eigen@@@2@XZ 00454190 f i fluidsim.obj
 0002:000221b0       ?determinant@?$MatrixBase@V?$Matrix@M$02$02$0A@$02$02@Eigen@@@Eigen@@QBEMXZ 004541b0 f i fluidsim.obj
 0002:00022220       ?end@?$vector@UParticle@@V?$allocator@UParticle@@@std@@@std@@QAE?AV?$_Vector_iterator@V?$_Vector_val@U?$_Simple_types@UParticle@@@std@@@std@@@2@XZ 00454220 f i fluidsim.obj
 0002:00022260       ?eof@?$char_traits@D@std@@SAHXZ 00454260 f i fluidsim.obj
 0002:00022280       ?epsilon@?$GenericNumTraits@M@Eigen@@SAMXZ 00454280 f i fluidsim.obj
 0002:000222a0       ?epsilon@?$numeric_limits@M@std@@SAMXZ 004542a0 f i fluidsim.obj
 0002:000222c0       ?eq@?$char_traits@D@std@@SA_NABD0@Z 004542c0 f i fluidsim.obj
 0002:00022300       ?eq_int_type@?$char_traits@D@std@@SA_NABH0@Z 00454300 f i fluidsim.obj
 0002:00022340       ?equivalent@error_category@std@@UBE_NABVerror_code@2@H@Z 00454340 f i fluidsim.obj
 0002:000223a0       ?equivalent@error_category@std@@UBE_NHABVerror_condition@2@@Z 004543a0 f i fluidsim.obj
 0002:000223f0       ?erase@?$basic_string@DU?$char_traits@D@std@@V?$allocator@D@2@@std@@QAEAAV12@I@Z 004543f0 f i fluidsim.obj
 0002:00022440       ?erase@?$basic_string@DU?$char_traits@D@std@@V?$allocator@D@2@@std@@QAEAAV12@II@Z 00454440 f i fluidsim.obj
 0002:000224f0       ?eval@?$DenseBase@V?$CoeffBasedProduct@ABV?$Matrix@M$02$02$00$02$02@Eigen@@ABV?$Matrix@M$02$02$0A@$02$02@2@$05@Eigen@@@Eigen@@QBE?BV?$Matrix@M$02$02$0A@$02$02@2@XZ 004544f0 f i fluidsim.obj
 0002:00022550       ?eval@?$DenseBase@V?$CoeffBasedProduct@ABV?$Matrix@M$02$02$0A@$02$02@Eigen@@$$CBV?$Transpose@V?$Matrix@M$02$02$0A@$02$02@Eigen@@@2@$05@Eigen@@@Eigen@@QBE?BV?$Matrix@M$02$02$00$02$02@2@XZ 00454550 f i fluidsim.obj
 0002:000225b0       ?exp@@YAMM@Z               004545b0 f i fluidsim.obj
 0002:000225e0       ?extract@?$blas_traits@V?$Block@V?$Matrix@M$02$02$0A@$02$02@Eigen@@$00$02$0A@@Eigen@@@internal@Eigen@@SAABV?$Block@V?$Matrix@M$02$02$0A@$02$02@Eigen@@$00$02$0A@@3@ABV43@@Z 004545e0 f i fluidsim.obj
 0002:00022600       ?extract@?$blas_traits@V?$CwiseUnaryOp@U?$scalar_multiple_op@M@internal@Eigen@@$$CBV?$Matrix@M$02$00$0A@$02$00@3@@Eigen@@@internal@Eigen@@SAABV?$Matrix@M$02$00$0A@$02$00@3@ABV?$CwiseUnaryOp@U?$scalar_multiple_op@M@internal@Eigen@@$$CBV?$Matrix@M$02$00$0A@$02$00@3@@3@@Z 00454600 f i fluidsim.obj
 0002:00022630       ?extract@?$blas_traits@V?$Matrix@M$02$00$0A@$02$00@Eigen@@@internal@Eigen@@SAABV?$Matrix@M$02$00$0A@$02$00@3@ABV43@@Z 00454630 f i fluidsim.obj
 0002:00022650       ?extract@?$blas_traits@V?$Matrix@M$02$02$0A@$02$02@Eigen@@@internal@Eigen@@SAABV?$Matrix@M$02$02$0A@$02$02@3@ABV43@@Z 00454650 f i fluidsim.obj
 0002:00022670       ?extract@?$blas_traits@V?$Transpose@$$CBV?$CwiseUnaryOp@U?$scalar_multiple_op@M@internal@Eigen@@$$CBV?$Matrix@M$02$00$0A@$02$00@3@@Eigen@@@Eigen@@@internal@Eigen@@SA?AV?$Transpose@$$CBV?$Matrix@M$02$00$0A@$02$00@Eigen@@@3@ABV?$Transpose@$$CBV?$CwiseUnaryOp@U?$scalar_multiple_op@M@internal@Eigen@@$$CBV?$Matrix@M$02$00$0A@$02$00@3@@Eigen@@@3@@Z 00454670 f i fluidsim.obj
 0002:000226b0       ?fabs@@YAMM@Z              004546b0 f i fluidsim.obj
 0002:000226e0       ?find_particle_indices@FluidSim@@AAEXHHHAAH0@Z 004546e0 f   fluidsim.obj
 0002:00022780       ?floor@@YAMM@Z             00454780 f i fluidsim.obj
 0002:000227b0       ?functor@?$CwiseBinaryOp@U?$scalar_difference_op@M@internal@Eigen@@$$CBV?$Matrix@M$02$02$0A@$02$02@3@$$CBV43@@Eigen@@QBEABU?$scalar_difference_op@M@internal@2@XZ 004547b0 f i fluidsim.obj
 0002:000227d0       ?functor@?$CwiseBinaryOp@U?$scalar_product_op@MM@internal@Eigen@@$$CBV?$Matrix@M$02$00$0A@$02$00@3@$$CBV?$Block@$$CBV?$Matrix@M$02$02$0A@$02$02@Eigen@@$02$00$00@3@@Eigen@@QBEABU?$scalar_product_op@MM@internal@2@XZ 004547d0 f i fluidsim.obj
 0002:000227f0       ?functor@?$CwiseUnaryOp@U?$scalar_abs2_op@M@internal@Eigen@@$$CBV?$CwiseBinaryOp@U?$scalar_difference_op@M@internal@Eigen@@$$CBV?$Matrix@M$02$02$0A@$02$02@3@$$CBV43@@3@@Eigen@@QBEABU?$scalar_abs2_op@M@internal@2@XZ 004547f0 f i fluidsim.obj
 0002:00022810       ?functor@?$CwiseUnaryOp@U?$scalar_multiple_op@M@internal@Eigen@@$$CBV?$Matrix@M$02$00$0A@$02$00@3@@Eigen@@QBEABU?$scalar_multiple_op@M@internal@2@XZ 00454810 f i fluidsim.obj
 0002:00022830       ?functor@?$CwiseUnaryOp@U?$scalar_multiple_op@M@internal@Eigen@@$$CBV?$Matrix@M$02$02$0A@$02$02@3@@Eigen@@QBEABU?$scalar_multiple_op@M@internal@2@XZ 00454830 f i fluidsim.obj
 0002:00022850       ?generic_category@std@@YAABVerror_category@1@XZ 00454850 f i fluidsim.obj
 0002:00022870       ?get_allocator@?$basic_string@DU?$char_traits@D@std@@V?$allocator@D@2@@std@@QBE?AV?$allocator@D@2@XZ 00454870 f i fluidsim.obj
 0002:000228b0       ?get_velocity@FluidSim@@QAE?AU?$Vec@$02M@@ABU2@@Z 004548b0 f   fluidsim.obj
 0002:00022ad0       ?get_weight@@YAMMHHHU?$Vec@$02M@@@Z 00454ad0 f   fluidsim.obj
 0002:00022bb0       ?get_weight_1d@@YAMM@Z     00454bb0 f   fluidsim.obj
 0002:00022db0       ?get_weight_gradient@@YA?AV?$Matrix@M$02$00$0A@$02$00@Eigen@@MHHHU?$Vec@$02M@@@Z 00454db0 f   fluidsim.obj
 0002:00023100       ?imbue@?$basic_filebuf@DU?$char_traits@D@std@@@std@@MAEXABVlocale@2@@Z 00455100 f i fluidsim.obj
 0002:00023140       ?init@?$BlockImpl_dense@$$CBV?$Matrix@M$02$02$0A@$02$02@Eigen@@$02$00$00$00@internal@Eigen@@IAEXXZ 00455140 f i fluidsim.obj
 0002:000231a0       ?init@?$BlockImpl_dense@$$CBV?$Matrix@M$02$02$0A@$02$02@Eigen@@$0?0$0?0$0A@$00@internal@Eigen@@IAEXXZ 004551a0 f i fluidsim.obj
 0002:00023200       ?init@?$BlockImpl_dense@V?$Matrix@M$01$01$0A@$01$01@Eigen@@$00$01$0A@$00@internal@Eigen@@IAEXXZ 00455200 f i fluidsim.obj
 0002:00023250       ?init@?$BlockImpl_dense@V?$Matrix@M$02$00$0A@$02$00@Eigen@@$0?0$00$0A@$00@internal@Eigen@@IAEXXZ 00455250 f i fluidsim.obj
 0002:000232b0       ?init@?$BlockImpl_dense@V?$Matrix@M$02$02$0A@$02$02@Eigen@@$00$02$0A@$00@internal@Eigen@@IAEXXZ 004552b0 f i fluidsim.obj
 0002:00023300       ?init@?$BlockImpl_dense@V?$Matrix@M$02$02$0A@$02$02@Eigen@@$02$00$00$00@internal@Eigen@@IAEXXZ 00455300 f i fluidsim.obj
 0002:00023360       ?init@?$coeff_visitor@V?$Block@V?$Matrix@M$02$00$0A@$02$00@Eigen@@$0?0$00$0A@@Eigen@@@internal@Eigen@@QAEXABMHH@Z 00455360 f i fluidsim.obj
 0002:000233a0       ?initialize@FluidSim@@QAEXMHHH@Z 004553a0 f   fluidsim.obj
 0002:000236e0       ?initialize_phi@FluidSim@@AAEXV?$basic_string@DU?$char_traits@D@std@@V?$allocator@D@2@@std@@AAU?$Array3@MU?$Array1@M@@@@_N@Z 004556e0 f   fluidsim.obj
 0002:00024a70       ?innerSize@?$DenseBase@V?$Matrix@M$01$01$0A@$01$01@Eigen@@@Eigen@@QBEHXZ 00456a70 f i fluidsim.obj
 0002:00024ad0       ?innerSize@?$DenseBase@V?$Matrix@M$02$00$0A@$02$00@Eigen@@@Eigen@@QBEHXZ 00456ad0 f i fluidsim.obj
 0002:00024b40       ?innerSize@?$DenseBase@V?$Matrix@M$02$02$0A@$02$02@Eigen@@@Eigen@@QBEHXZ 00456b40 f i fluidsim.obj
 0002:00024ba0       ?innerStride@?$BlockImpl_dense@$$CBV?$Matrix@M$02$02$0A@$02$02@Eigen@@$02$00$00$00@internal@Eigen@@QBEHXZ 00456ba0 f i fluidsim.obj
 0002:00024bf0       ?innerStride@?$BlockImpl_dense@$$CBV?$Matrix@M$02$02$0A@$02$02@Eigen@@$0?0$0?0$0A@$00@internal@Eigen@@QBEHXZ 00456bf0 f i fluidsim.obj
 0002:00024c40       ?innerStride@?$BlockImpl_dense@V?$Matrix@M$01$01$0A@$01$01@Eigen@@$00$01$0A@$00@internal@Eigen@@QBEHXZ 00456c40 f i fluidsim.obj
 0002:00024c90       ?innerStride@?$BlockImpl_dense@V?$Matrix@M$02$00$0A@$02$00@Eigen@@$0?0$00$0A@$00@internal@Eigen@@QBEHXZ 00456c90 f i fluidsim.obj
 0002:00024ce0       ?innerStride@?$BlockImpl_dense@V?$Matrix@M$02$02$0A@$02$02@Eigen@@$00$02$0A@$00@internal@Eigen@@QBEHXZ 00456ce0 f i fluidsim.obj
 0002:00024d30       ?innerStride@?$BlockImpl_dense@V?$Matrix@M$02$02$0A@$02$02@Eigen@@$02$00$00$00@internal@Eigen@@QBEHXZ 00456d30 f i fluidsim.obj
 0002:00024d80       ?innerStride@?$DenseCoeffsBase@V?$Block@$$CBV?$Matrix@M$02$02$0A@$02$02@Eigen@@$02$00$00@Eigen@@$01@Eigen@@QBEHXZ 00456d80 f i fluidsim.obj
 0002:00024db0       ?innerStride@?$DenseCoeffsBase@V?$Block@$$CBV?$Matrix@M$02$02$0A@$02$02@Eigen@@$0?0$0?0$0A@@Eigen@@$01@Eigen@@QBEHXZ 00456db0 f i fluidsim.obj
 0002:00024de0       ?innerStride@?$DenseCoeffsBase@V?$Block@V?$Matrix@M$01$01$0A@$01$01@Eigen@@$00$01$0A@@Eigen@@$02@Eigen@@QBEHXZ 00456de0 f i fluidsim.obj
 0002:00024e10       ?innerStride@?$DenseCoeffsBase@V?$Block@V?$Matrix@M$02$00$0A@$02$00@Eigen@@$0?0$00$0A@@Eigen@@$02@Eigen@@QBEHXZ 00456e10 f i fluidsim.obj
 0002:00024e40       ?innerStride@?$DenseCoeffsBase@V?$Block@V?$Matrix@M$02$02$0A@$02$02@Eigen@@$00$02$0A@@Eigen@@$02@Eigen@@QBEHXZ 00456e40 f i fluidsim.obj
 0002:00024e70       ?innerStride@?$DenseCoeffsBase@V?$Block@V?$Matrix@M$02$02$0A@$02$02@Eigen@@$02$00$00@Eigen@@$02@Eigen@@QBEHXZ 00456e70 f i fluidsim.obj
 0002:00024ea0       ?innerStride@?$Matrix@M$01$01$0A@$01$01@Eigen@@QBEHXZ 00456ea0 f i fluidsim.obj
 0002:00024ec0       ?innerStride@?$Matrix@M$02$00$0A@$02$00@Eigen@@QBEHXZ 00456ec0 f i fluidsim.obj
 0002:00024ee0       ?innerStride@?$Matrix@M$02$02$0A@$02$02@Eigen@@QBEHXZ 00456ee0 f i fluidsim.obj
 0002:00024f00       ?insert@?$basic_string@DU?$char_traits@D@std@@V?$allocator@D@2@@std@@QAEAAV12@IABV12@@Z 00456f00 f i fluidsim.obj
 0002:00024f40       ?insert@?$basic_string@DU?$char_traits@D@std@@V?$allocator@D@2@@std@@QAEAAV12@IABV12@II@Z 00456f40 f i fluidsim.obj
 0002:000250d0       ?inverse@?$MatrixBase@V?$Matrix@M$02$02$0A@$02$02@Eigen@@@Eigen@@QBE?BU?$inverse_impl@V?$Matrix@M$02$02$0A@$02$02@Eigen@@@internal@2@XZ 004570d0 f i fluidsim.obj
 0002:00025140       ?length@?$char_traits@D@std@@SAIPBD@Z 00457140 f i fluidsim.obj
 0002:00025190       ?lhs@?$CwiseBinaryOp@U?$scalar_difference_op@M@internal@Eigen@@$$CBV?$Matrix@M$02$02$0A@$02$02@3@$$CBV43@@Eigen@@QBEABV?$Matrix@M$02$02$0A@$02$02@2@XZ 00457190 f i fluidsim.obj
 0002:000251b0       ?lhs@?$CwiseBinaryOp@U?$scalar_product_op@MM@internal@Eigen@@$$CBV?$Matrix@M$02$00$0A@$02$00@3@$$CBV?$Block@$$CBV?$Matrix@M$02$02$0A@$02$02@Eigen@@$02$00$00@3@@Eigen@@QBEABV?$Matrix@M$02$00$0A@$02$00@2@XZ 004571b0 f i fluidsim.obj
 0002:000251d0       ?load_levelset@FluidSim@@AAE_NV?$basic_string@DU?$char_traits@D@std@@V?$allocator@D@2@@std@@AAU?$Array3@MU?$Array1@M@@@@@Z 004571d0 f   fluidsim.obj
 0002:00025520       ?makeJacobi@?$JacobiRotation@M@Eigen@@QAE_NABM00@Z 00457520 f i fluidsim.obj
 0002:000257c0       ?matrixU@?$JacobiSVD@V?$Matrix@M$02$02$0A@$02$02@Eigen@@$01@Eigen@@QBEABV?$Matrix@M$02$02$0A@$02$02@2@XZ 004577c0 f i fluidsim.obj
 0002:00025850       ?matrixV@?$JacobiSVD@V?$Matrix@M$02$02$0A@$02$02@Eigen@@$01@Eigen@@QBEABV?$Matrix@M$02$02$0A@$02$02@2@XZ 00457850 f i fluidsim.obj
 0002:000258f0       ?max_size@?$_Wrap_alloc@V?$allocator@D@std@@@std@@QBEIXZ 004578f0 f i fluidsim.obj
 0002:00025920       ?max_size@?$_Wrap_alloc@V?$allocator@U?$Vec@$02I@@@std@@@std@@QBEIXZ 00457920 f i fluidsim.obj
 0002:00025950       ?max_size@?$_Wrap_alloc@V?$allocator@U?$Vec@$02M@@@std@@@std@@QBEIXZ 00457950 f i fluidsim.obj
 0002:00025980       ?max_size@?$_Wrap_alloc@V?$allocator@UParticle@@@std@@@std@@QBEIXZ 00457980 f i fluidsim.obj
 0002:000259b0       ?max_size@?$allocator@D@std@@QBEIXZ 004579b0 f i fluidsim.obj
 0002:000259d0       ?max_size@?$allocator@U?$Vec@$02I@@@std@@QBEIXZ 004579d0 f i fluidsim.obj
 0002:000259f0       ?max_size@?$allocator@U?$Vec@$02M@@@std@@QBEIXZ 004579f0 f i fluidsim.obj
 0002:00025a10       ?max_size@?$allocator@UParticle@@@std@@QBEIXZ 00457a10 f i fluidsim.obj
 0002:00025a30       ?max_size@?$allocator_traits@V?$allocator@D@std@@@std@@SAIABV?$allocator@D@2@@Z 00457a30 f i fluidsim.obj
 0002:00025a50       ?max_size@?$allocator_traits@V?$allocator@U?$Vec@$02I@@@std@@@std@@SAIABV?$allocator@U?$Vec@$02I@@@2@@Z 00457a50 f i fluidsim.obj
 0002:00025a70       ?max_size@?$allocator_traits@V?$allocator@U?$Vec@$02M@@@std@@@std@@SAIABV?$allocator@U?$Vec@$02M@@@2@@Z 00457a70 f i fluidsim.obj
 0002:00025a90       ?max_size@?$allocator_traits@V?$allocator@UParticle@@@std@@@std@@SAIABV?$allocator@UParticle@@@2@@Z 00457a90 f i fluidsim.obj
 0002:00025ab0       ?max_size@?$basic_string@DU?$char_traits@D@std@@V?$allocator@D@2@@std@@QBEIXZ 00457ab0 f i fluidsim.obj
 0002:00025b10       ?max_size@?$vector@U?$Vec@$02I@@V?$allocator@U?$Vec@$02I@@@std@@@std@@QBEIXZ 00457b10 f i fluidsim.obj
 0002:00025b40       ?max_size@?$vector@U?$Vec@$02M@@V?$allocator@U?$Vec@$02M@@@std@@@std@@QBEIXZ 00457b40 f i fluidsim.obj
 0002:00025b70       ?max_size@?$vector@UParticle@@V?$allocator@UParticle@@@std@@@std@@QBEIXZ 00457b70 f i fluidsim.obj
 0002:00025ba0       ?message@_Generic_error_category@std@@UBE?AV?$basic_string@DU?$char_traits@D@std@@V?$allocator@D@2@@2@H@Z 00457ba0 f i fluidsim.obj
 0002:00025c10       ?message@_Iostream_error_category@std@@UBE?AV?$basic_string@DU?$char_traits@D@std@@V?$allocator@D@2@@2@H@Z 00457c10 f i fluidsim.obj
 0002:00025c90       ?message@_System_error_category@std@@UBE?AV?$basic_string@DU?$char_traits@D@std@@V?$allocator@D@2@@2@H@Z 00457c90 f i fluidsim.obj
 0002:00025d00       ?move@?$char_traits@D@std@@SAPADPADPBDI@Z 00457d00 f i fluidsim.obj
 0002:00025d50       ?name@_Generic_error_category@std@@UBEPBDXZ 00457d50 f i fluidsim.obj
 0002:00025d70       ?name@_Iostream_error_category@std@@UBEPBDXZ 00457d70 f i fluidsim.obj
 0002:00025d90       ?name@_System_error_category@std@@UBEPBDXZ 00457d90 f i fluidsim.obj
 0002:00025db0       ?nestedExpression@?$CwiseUnaryOp@U?$scalar_abs2_op@M@internal@Eigen@@$$CBV?$CwiseBinaryOp@U?$scalar_difference_op@M@internal@Eigen@@$$CBV?$Matrix@M$02$02$0A@$02$02@3@$$CBV43@@3@@Eigen@@QBEABV?$CwiseBinaryOp@U?$scalar_difference_op@M@internal@Eigen@@$$CBV?$Matrix@M$02$02$0A@$02$02@3@$$CBV43@@2@XZ 00457db0 f i fluidsim.obj
 0002:00025dd0       ?nestedExpression@?$CwiseUnaryOp@U?$scalar_multiple_op@M@internal@Eigen@@$$CBV?$Matrix@M$02$00$0A@$02$00@3@@Eigen@@QBEABV?$Matrix@M$02$00$0A@$02$00@2@XZ 00457dd0 f i fluidsim.obj
 0002:00025df0       ?nestedExpression@?$CwiseUnaryOp@U?$scalar_multiple_op@M@internal@Eigen@@$$CBV?$Matrix@M$02$02$0A@$02$02@3@@Eigen@@QBEABV?$Matrix@M$02$02$0A@$02$02@2@XZ 00457df0 f i fluidsim.obj
 0002:00025e10       ?nestedExpression@?$Transpose@$$CBV?$CwiseUnaryOp@U?$scalar_multiple_op@M@internal@Eigen@@$$CBV?$Matrix@M$02$00$0A@$02$00@3@@Eigen@@@Eigen@@QBEABV?$CwiseUnaryOp@U?$scalar_multiple_op@M@internal@Eigen@@$$CBV?$Matrix@M$02$00$0A@$02$00@3@@2@XZ 00457e10 f i fluidsim.obj
 0002:00025e30       ?nestedExpression@?$Transpose@$$CBV?$Matrix@M$02$00$0A@$02$00@Eigen@@@Eigen@@QAEAAV?$Matrix@M$02$00$0A@$02$00@2@XZ 00457e30 f i fluidsim.obj
 0002:00025e60       ?nestedExpression@?$Transpose@V?$Matrix@M$02$00$0A@$02$00@Eigen@@@Eigen@@QBEABV?$Matrix@M$02$00$0A@$02$00@2@XZ 00457e60 f i fluidsim.obj
 0002:00025e80       ?nestedExpression@?$Transpose@V?$Matrix@M$02$02$0A@$02$02@Eigen@@@Eigen@@QBEABV?$Matrix@M$02$02$0A@$02$02@2@XZ 00457e80 f i fluidsim.obj
 0002:00025ea0       ?not_eof@?$char_traits@D@std@@SAHABH@Z 00457ea0 f i fluidsim.obj
 0002:00025f00       ?open@?$basic_filebuf@DU?$char_traits@D@std@@@std@@QAEPAV12@PBDHH@Z 00457f00 f i fluidsim.obj
 0002:00025ff0       ?outerStride@?$BlockImpl_dense@$$CBV?$Matrix@M$02$02$0A@$02$02@Eigen@@$02$00$00$00@internal@Eigen@@QBEHXZ 00457ff0 f i fluidsim.obj
 0002:00026010       ?outerStride@?$BlockImpl_dense@$$CBV?$Matrix@M$02$02$0A@$02$02@Eigen@@$0?0$0?0$0A@$00@internal@Eigen@@QBEHXZ 00458010 f i fluidsim.obj
 0002:00026030       ?outerStride@?$BlockImpl_dense@V?$Matrix@M$02$00$0A@$02$00@Eigen@@$0?0$00$0A@$00@internal@Eigen@@QBEHXZ 00458030 f i fluidsim.obj
 0002:00026050       ?outerStride@?$DenseCoeffsBase@V?$Block@$$CBV?$Matrix@M$02$02$0A@$02$02@Eigen@@$02$00$00@Eigen@@$01@Eigen@@QBEHXZ 00458050 f i fluidsim.obj
 0002:00026080       ?outerStride@?$DenseCoeffsBase@V?$Block@$$CBV?$Matrix@M$02$02$0A@$02$02@Eigen@@$0?0$0?0$0A@@Eigen@@$01@Eigen@@QBEHXZ 00458080 f i fluidsim.obj
 0002:000260b0       ?outerStride@?$DenseCoeffsBase@V?$Block@V?$Matrix@M$02$00$0A@$02$00@Eigen@@$0?0$00$0A@@Eigen@@$02@Eigen@@QBEHXZ 004580b0 f i fluidsim.obj
 0002:000260e0       ?outerStride@?$Matrix@M$01$01$0A@$01$01@Eigen@@QBEHXZ 004580e0 f i fluidsim.obj
 0002:00026110       ?outerStride@?$Matrix@M$02$00$0A@$02$00@Eigen@@QBEHXZ 00458110 f i fluidsim.obj
 0002:00026140       ?outerStride@?$Matrix@M$02$02$0A@$02$02@Eigen@@QBEHXZ 00458140 f i fluidsim.obj
 0002:00026170       ?overflow@?$basic_filebuf@DU?$char_traits@D@std@@@std@@MAEHH@Z 00458170 f i fluidsim.obj
 0002:000265c0       ?overflow@?$basic_stringbuf@DU?$char_traits@D@std@@V?$allocator@D@2@@std@@MAEHH@Z 004585c0 f i fluidsim.obj
 0002:00026970       ?pbackfail@?$basic_filebuf@DU?$char_traits@D@std@@@std@@MAEHH@Z 00458970 f i fluidsim.obj
 0002:00026b20       ?pbackfail@?$basic_stringbuf@DU?$char_traits@D@std@@V?$allocator@D@2@@std@@MAEHH@Z 00458b20 f i fluidsim.obj
 0002:00026c50       ?pmul@?$conj_helper@T__m128@@T1@$0A@$0A@@internal@Eigen@@QBE?AT__m128@@ABT4@0@Z 00458c50 f i fluidsim.obj
 0002:00026cb0       ?pow@@YAMMH@Z              00458cb0 f i fluidsim.obj
 0002:00026ce0       ?push_back@?$vector@U?$Vec@$02I@@V?$allocator@U?$Vec@$02I@@@std@@@std@@QAEX$$QAU?$Vec@$02I@@@Z 00458ce0 f i fluidsim.obj
 0002:00026e50       ?push_back@?$vector@U?$Vec@$02M@@V?$allocator@U?$Vec@$02M@@@std@@@std@@QAEXABU?$Vec@$02M@@@Z 00458e50 f i fluidsim.obj
 0002:00026fb0       ?push_back@?$vector@UParticle@@V?$allocator@UParticle@@@std@@@std@@QAEX$$QAUParticle@@@Z 00458fb0 f i fluidsim.obj
 0002:00027130       ?randhash@@YAII@Z          00459130 f i fluidsim.obj
 0002:000271a0       ?randhashf@@YAMI@Z         004591a0 f i fluidsim.obj
 0002:00027bd0       ?rasterize_particle_data@FluidSim@@AAEXXZ 00459bd0 f   fluidsim.obj
 0002:00027d00       ?reserve@?$Array1@H@@QAEXK@Z 00459d00 f i fluidsim.obj
 0002:00027da0       ?reserve@?$Array1@M@@QAEXK@Z 00459da0 f i fluidsim.obj
 0002:00027e40       ?resize@?$Array1@H@@QAEXK@Z 00459e40 f i fluidsim.obj
 0002:00027e90       ?resize@?$Array1@M@@QAEXK@Z 00459e90 f i fluidsim.obj
 0002:00027ee0       ?resize@?$Array3@HU?$Array1@H@@@@QAEXHHH@Z 00459ee0 f i fluidsim.obj
 0002:00027f70       ?resize@?$Array3@MU?$Array1@M@@@@QAEXHHH@Z 00459f70 f i fluidsim.obj
 0002:00028000       ?resize@?$DenseStorage@M$02$02$00$0A@@Eigen@@QAEXHHH@Z 0045a000 f i fluidsim.obj
 0002:00028020       ?resize@?$DenseStorage@M$08$02$02$00@Eigen@@QAEXHHH@Z 0045a020 f i fluidsim.obj
 0002:00028040       ?resize@?$DenseStorage@M$08$02$02$0A@@Eigen@@QAEXHHH@Z 0045a040 f i fluidsim.obj
 0002:00028060       ?resize@?$PlainObjectBase@V?$Matrix@M$02$00$0A@$02$00@Eigen@@@Eigen@@QAEXH@Z 0045a060 f i fluidsim.obj
 0002:000280e0       ?resize@?$PlainObjectBase@V?$Matrix@M$02$00$0A@$02$00@Eigen@@@Eigen@@QAEXHH@Z 0045a0e0 f i fluidsim.obj
 0002:000281b0       ?resize@?$PlainObjectBase@V?$Matrix@M$02$02$00$02$02@Eigen@@@Eigen@@QAEXHH@Z 0045a1b0 f i fluidsim.obj
 0002:00028280       ?resize@?$PlainObjectBase@V?$Matrix@M$02$02$0A@$02$02@Eigen@@@Eigen@@QAEXHH@Z 0045a280 f i fluidsim.obj
 0002:00028350       ?rhs@?$CwiseBinaryOp@U?$scalar_difference_op@M@internal@Eigen@@$$CBV?$Matrix@M$02$02$0A@$02$02@3@$$CBV43@@Eigen@@QBEABV?$Matrix@M$02$02$0A@$02$02@2@XZ 0045a350 f i fluidsim.obj
 0002:00028370       ?rhs@?$CwiseBinaryOp@U?$scalar_product_op@MM@internal@Eigen@@$$CBV?$Matrix@M$02$00$0A@$02$00@3@$$CBV?$Block@$$CBV?$Matrix@M$02$02$0A@$02$02@Eigen@@$02$00$00@3@@Eigen@@QBEABV?$Block@$$CBV?$Matrix@M$02$02$0A@$02$02@Eigen@@$02$00$00@2@XZ 0045a370 f i fluidsim.obj
 0002:00028390       ?row@?$DenseBase@V?$Matrix@M$01$01$0A@$01$01@Eigen@@@Eigen@@QAE?AV?$Block@V?$Matrix@M$01$01$0A@$01$01@Eigen@@$00$01$0A@@2@H@Z 0045a390 f i fluidsim.obj
 0002:000283d0       ?row@?$DenseBase@V?$Matrix@M$02$02$0A@$02$02@Eigen@@@Eigen@@QAE?AV?$Block@V?$Matrix@M$02$02$0A@$02$02@Eigen@@$00$02$0A@@2@H@Z 0045a3d0 f i fluidsim.obj
 0002:00028410       ?rowIndexByOuterInner@?$DenseCoeffsBase@V?$CwiseBinaryOp@U?$scalar_product_op@MM@internal@Eigen@@$$CBV?$Matrix@M$02$00$0A@$02$00@3@$$CBV?$Block@$$CBV?$Matrix@M$02$02$0A@$02$02@Eigen@@$02$00$00@3@@Eigen@@$0A@@Eigen@@QBEHHH@Z 0045a410 f i fluidsim.obj
 0002:00028480       ?rowIndexByOuterInner@?$DenseCoeffsBase@V?$CwiseUnaryOp@U?$scalar_abs2_op@M@internal@Eigen@@$$CBV?$CwiseBinaryOp@U?$scalar_difference_op@M@internal@Eigen@@$$CBV?$Matrix@M$02$02$0A@$02$02@3@$$CBV43@@3@@Eigen@@$0A@@Eigen@@QBEHHH@Z 0045a480 f i fluidsim.obj
 0002:000284f0       ?rowIndexByOuterInner@?$DenseCoeffsBase@V?$Matrix@M$02$00$0A@$02$00@Eigen@@$0A@@Eigen@@QBEHHH@Z 0045a4f0 f i fluidsim.obj
 0002:00028560       ?rowIndexByOuterInner@?$DenseCoeffsBase@V?$Matrix@M$02$02$00$02$02@Eigen@@$0A@@Eigen@@QBEHHH@Z 0045a560 f i fluidsim.obj
 0002:000285d0       ?rowIndexByOuterInner@?$DenseCoeffsBase@V?$Matrix@M$02$02$0A@$02$02@Eigen@@$0A@@Eigen@@QBEHHH@Z 0045a5d0 f i fluidsim.obj
 0002:00028640       ?rowIndexByOuterInner@?$DenseCoeffsBase@V?$SelfCwiseBinaryOp@U?$scalar_sum_op@M@internal@Eigen@@V?$Matrix@M$02$02$0A@$02$02@3@V?$CoeffBasedProduct@$$CBV?$CwiseUnaryOp@U?$scalar_multiple_op@M@internal@Eigen@@$$CBV?$Matrix@M$02$00$0A@$02$00@3@@Eigen@@$$CBV?$Transpose@V?$Matrix@M$02$00$0A@$02$00@Eigen@@@2@$0BAA@@3@@Eigen@@$0A@@Eigen@@QBEHHH@Z 0045a640 f i fluidsim.obj
 0002:000286b0       ?rowStride@?$DenseCoeffsBase@V?$Block@$$CBV?$Matrix@M$02$02$0A@$02$02@Eigen@@$02$00$00@Eigen@@$01@Eigen@@QBEHXZ 0045a6b0 f i fluidsim.obj
 0002:000286f0       ?rowStride@?$DenseCoeffsBase@V?$Block@$$CBV?$Matrix@M$02$02$0A@$02$02@Eigen@@$0?0$0?0$0A@@Eigen@@$01@Eigen@@QBEHXZ 0045a6f0 f i fluidsim.obj
 0002:00028730       ?rowStride@?$DenseCoeffsBase@V?$Block@V?$Matrix@M$02$00$0A@$02$00@Eigen@@$0?0$00$0A@@Eigen@@$02@Eigen@@QBEHXZ 0045a730 f i fluidsim.obj
 0002:00028770       ?rows@?$CoeffBasedProduct@$$CBV?$CwiseUnaryOp@U?$scalar_multiple_op@M@internal@Eigen@@$$CBV?$Matrix@M$02$00$0A@$02$00@3@@Eigen@@$$CBV?$Transpose@V?$Matrix@M$02$00$0A@$02$00@Eigen@@@2@$0BAA@@Eigen@@QBEHXZ 0045a770 f i fluidsim.obj
 0002:000287a0       ?rows@?$CoeffBasedProduct@$$CBV?$CwiseUnaryOp@U?$scalar_multiple_op@M@internal@Eigen@@$$CBV?$Matrix@M$02$02$0A@$02$02@3@@Eigen@@ABV?$Matrix@M$02$00$0A@$02$00@2@$05@Eigen@@QBEHXZ 0045a7a0 f i fluidsim.obj
 0002:000287d0       ?rows@?$CoeffBasedProduct@ABV?$Matrix@M$02$02$00$02$02@Eigen@@ABV?$Matrix@M$02$02$0A@$02$02@2@$05@Eigen@@QBEHXZ 0045a7d0 f i fluidsim.obj
 0002:00028800       ?rows@?$CoeffBasedProduct@ABV?$Matrix@M$02$02$0A@$02$02@Eigen@@$$CBV?$Transpose@V?$Matrix@M$02$02$0A@$02$02@Eigen@@@2@$05@Eigen@@QBEHXZ 0045a800 f i fluidsim.obj
 0002:00028830       ?rows@?$CoeffBasedProduct@ABV?$Matrix@M$02$02$0A@$02$02@Eigen@@ABV12@$05@Eigen@@QBEHXZ 0045a830 f i fluidsim.obj
 0002:00028860       ?rows@?$CoeffBasedProduct@ABV?$Matrix@M$02$02$0A@$02$02@Eigen@@V12@$05@Eigen@@QBEHXZ 0045a860 f i fluidsim.obj
 0002:00028890       ?rows@?$CwiseNullaryOp@U?$scalar_constant_op@M@internal@Eigen@@V?$Matrix@M$02$00$0A@$02$00@3@@Eigen@@QBEHXZ 0045a890 f i fluidsim.obj
 0002:000288b0       ?rows@?$CwiseNullaryOp@U?$scalar_constant_op@M@internal@Eigen@@V?$Matrix@M$02$02$0A@$02$02@3@@Eigen@@QBEHXZ 0045a8b0 f i fluidsim.obj
 0002:000288d0       ?rows@?$CwiseNullaryOp@U?$scalar_identity_op@M@internal@Eigen@@V?$Matrix@M$02$02$0A@$02$02@3@@Eigen@@QBEHXZ 0045a8d0 f i fluidsim.obj
 0002:000288f0       ?rows@?$CwiseUnaryOp@U?$scalar_multiple_op@M@internal@Eigen@@$$CBV?$Matrix@M$02$00$0A@$02$00@3@@Eigen@@QBEHXZ 0045a8f0 f i fluidsim.obj
 0002:00028920       ?rows@?$CwiseUnaryOp@U?$scalar_multiple_op@M@internal@Eigen@@$$CBV?$Matrix@M$02$02$0A@$02$02@3@@Eigen@@QBEHXZ 0045a920 f i fluidsim.obj
 0002:00028950       ?rows@?$DenseStorage@M$02$02$00$0A@@Eigen@@SAHXZ 0045a950 f i fluidsim.obj
 0002:00028970       ?rows@?$DenseStorage@M$03$01$01$0A@@Eigen@@SAHXZ 0045a970 f i fluidsim.obj
 0002:00028990       ?rows@?$DenseStorage@M$08$02$02$00@Eigen@@SAHXZ 0045a990 f i fluidsim.obj
 0002:000289b0       ?rows@?$DenseStorage@M$08$02$02$0A@@Eigen@@SAHXZ 0045a9b0 f i fluidsim.obj
 0002:000289d0       ?rows@?$EigenBase@V?$Block@$$CBV?$Matrix@M$02$02$0A@$02$02@Eigen@@$0?0$0?0$0A@@Eigen@@@Eigen@@QBEHXZ 0045a9d0 f i fluidsim.obj
 0002:00028a00       ?rows@?$EigenBase@V?$Block@V?$Matrix@M$01$01$0A@$01$01@Eigen@@$00$01$0A@@Eigen@@@Eigen@@QBEHXZ 0045aa00 f i fluidsim.obj
 0002:00028a30       ?rows@?$EigenBase@V?$Block@V?$Matrix@M$02$02$0A@$02$02@Eigen@@$00$02$0A@@Eigen@@@Eigen@@QBEHXZ 0045aa30 f i fluidsim.obj
 0002:00028a60       ?rows@?$EigenBase@V?$Block@V?$Matrix@M$02$02$0A@$02$02@Eigen@@$02$00$00@Eigen@@@Eigen@@QBEHXZ 0045aa60 f i fluidsim.obj
 0002:00028a90       ?rows@?$EigenBase@V?$CoeffBasedProduct@$$CBV?$CwiseUnaryOp@U?$scalar_multiple_op@M@internal@Eigen@@$$CBV?$Matrix@M$02$00$0A@$02$00@3@@Eigen@@$$CBV?$Transpose@V?$Matrix@M$02$00$0A@$02$00@Eigen@@@2@$0BAA@@Eigen@@@Eigen@@QBEHXZ 0045aa90 f i fluidsim.obj
 0002:00028ac0       ?rows@?$EigenBase@V?$CoeffBasedProduct@$$CBV?$CwiseUnaryOp@U?$scalar_multiple_op@M@internal@Eigen@@$$CBV?$Matrix@M$02$02$0A@$02$02@3@@Eigen@@ABV?$Matrix@M$02$00$0A@$02$00@2@$05@Eigen@@@Eigen@@QBEHXZ 0045aac0 f i fluidsim.obj
 0002:00028af0       ?rows@?$EigenBase@V?$CoeffBasedProduct@ABV?$Matrix@M$02$02$00$02$02@Eigen@@ABV?$Matrix@M$02$02$0A@$02$02@2@$05@Eigen@@@Eigen@@QBEHXZ 0045aaf0 f i fluidsim.obj
 0002:00028b20       ?rows@?$EigenBase@V?$CoeffBasedProduct@ABV?$Matrix@M$02$02$0A@$02$02@Eigen@@$$CBV?$Transpose@V?$Matrix@M$02$02$0A@$02$02@Eigen@@@2@$05@Eigen@@@Eigen@@QBEHXZ 0045ab20 f i fluidsim.obj
 0002:00028b50       ?rows@?$EigenBase@V?$CoeffBasedProduct@ABV?$Matrix@M$02$02$0A@$02$02@Eigen@@ABV12@$05@Eigen@@@Eigen@@QBEHXZ 0045ab50 f i fluidsim.obj
 0002:00028b80       ?rows@?$EigenBase@V?$CoeffBasedProduct@ABV?$Matrix@M$02$02$0A@$02$02@Eigen@@V12@$05@Eigen@@@Eigen@@QBEHXZ 0045ab80 f i fluidsim.obj
 0002:00028bb0       ?rows@?$EigenBase@V?$CwiseNullaryOp@U?$scalar_constant_op@M@internal@Eigen@@V?$Matrix@M$02$00$0A@$02$00@3@@Eigen@@@Eigen@@QBEHXZ 0045abb0 f i fluidsim.obj
 0002:00028be0       ?rows@?$EigenBase@V?$CwiseNullaryOp@U?$scalar_constant_op@M@internal@Eigen@@V?$Matrix@M$02$02$0A@$02$02@3@@Eigen@@@Eigen@@QBEHXZ 0045abe0 f i fluidsim.obj
 0002:00028c10       ?rows@?$EigenBase@V?$CwiseNullaryOp@U?$scalar_identity_op@M@internal@Eigen@@V?$Matrix@M$02$02$0A@$02$02@3@@Eigen@@@Eigen@@QBEHXZ 0045ac10 f i fluidsim.obj
 0002:00028c40       ?rows@?$EigenBase@V?$Matrix@M$01$01$0A@$01$01@Eigen@@@Eigen@@QBEHXZ 0045ac40 f i fluidsim.obj
 0002:00028c70       ?rows@?$EigenBase@V?$Matrix@M$02$00$0A@$02$00@Eigen@@@Eigen@@QBEHXZ 0045ac70 f i fluidsim.obj
 0002:00028ca0       ?rows@?$EigenBase@V?$Matrix@M$02$02$00$02$02@Eigen@@@Eigen@@QBEHXZ 0045aca0 f i fluidsim.obj
 0002:00028cd0       ?rows@?$EigenBase@V?$Matrix@M$02$02$0A@$02$02@Eigen@@@Eigen@@QBEHXZ 0045acd0 f i fluidsim.obj
 0002:00028d00       ?rows@?$EigenBase@V?$SwapWrapper@V?$Block@V?$Matrix@M$02$02$0A@$02$02@Eigen@@$02$00$00@Eigen@@@Eigen@@@Eigen@@QBEHXZ 0045ad00 f i fluidsim.obj
 0002:00028d30       ?rows@?$EigenBase@V?$Transpose@$$CBV?$CwiseUnaryOp@U?$scalar_multiple_op@M@internal@Eigen@@$$CBV?$Matrix@M$02$00$0A@$02$00@3@@Eigen@@@Eigen@@@Eigen@@QBEHXZ 0045ad30 f i fluidsim.obj
 0002:00028d60       ?rows@?$MapBase@V?$Block@$$CBV?$Matrix@M$02$02$0A@$02$02@Eigen@@$02$00$00@Eigen@@$0A@@Eigen@@QBEHXZ 0045ad60 f i fluidsim.obj
 0002:00028d80       ?rows@?$MapBase@V?$Block@$$CBV?$Matrix@M$02$02$0A@$02$02@Eigen@@$0?0$0?0$0A@@Eigen@@$0A@@Eigen@@QBEHXZ 0045ad80 f i fluidsim.obj
 0002:00028db0       ?rows@?$MapBase@V?$Block@V?$Matrix@M$01$01$0A@$01$01@Eigen@@$00$01$0A@@Eigen@@$0A@@Eigen@@QBEHXZ 0045adb0 f i fluidsim.obj
 0002:00028dd0       ?rows@?$MapBase@V?$Block@V?$Matrix@M$02$00$0A@$02$00@Eigen@@$0?0$00$0A@@Eigen@@$0A@@Eigen@@QBEHXZ 0045add0 f i fluidsim.obj
 0002:00028e00       ?rows@?$MapBase@V?$Block@V?$Matrix@M$02$02$0A@$02$02@Eigen@@$00$02$0A@@Eigen@@$0A@@Eigen@@QBEHXZ 0045ae00 f i fluidsim.obj
 0002:00028e20       ?rows@?$MapBase@V?$Block@V?$Matrix@M$02$02$0A@$02$02@Eigen@@$02$00$00@Eigen@@$0A@@Eigen@@QBEHXZ 0045ae20 f i fluidsim.obj
 0002:00028e40       ?rows@?$PlainObjectBase@V?$Matrix@M$01$01$0A@$01$01@Eigen@@@Eigen@@QBEHXZ 0045ae40 f i fluidsim.obj
 0002:00028e60       ?rows@?$PlainObjectBase@V?$Matrix@M$02$00$0A@$02$00@Eigen@@@Eigen@@QBEHXZ 0045ae60 f i fluidsim.obj
 0002:00028e80       ?rows@?$PlainObjectBase@V?$Matrix@M$02$02$00$02$02@Eigen@@@Eigen@@QBEHXZ 0045ae80 f i fluidsim.obj
 0002:00028ea0       ?rows@?$PlainObjectBase@V?$Matrix@M$02$02$0A@$02$02@Eigen@@@Eigen@@QBEHXZ 0045aea0 f i fluidsim.obj
 0002:00028ec0       ?rows@?$ReturnByValue@U?$inverse_impl@V?$Matrix@M$02$02$0A@$02$02@Eigen@@@internal@Eigen@@@Eigen@@QBEHXZ 0045aec0 f i fluidsim.obj
 0002:00028ef0       ?rows@?$SelfCwiseBinaryOp@U?$scalar_difference_op@M@internal@Eigen@@V?$Matrix@M$02$00$0A@$02$00@3@V?$CoeffBasedProduct@$$CBV?$CwiseUnaryOp@U?$scalar_multiple_op@M@internal@Eigen@@$$CBV?$Matrix@M$02$02$0A@$02$02@3@@Eigen@@ABV?$Matrix@M$02$00$0A@$02$00@2@$05@3@@Eigen@@QBEHXZ 0045aef0 f i fluidsim.obj
 0002:00028f20       ?rows@?$SelfCwiseBinaryOp@U?$scalar_product_op@MM@internal@Eigen@@V?$Block@V?$Matrix@M$02$02$0A@$02$02@Eigen@@$02$00$00@3@V?$CwiseNullaryOp@U?$scalar_constant_op@M@internal@Eigen@@V?$Matrix@M$02$00$0A@$02$00@3@@3@@Eigen@@QBEHXZ 0045af20 f i fluidsim.obj
 0002:00028f50       ?rows@?$SelfCwiseBinaryOp@U?$scalar_sum_op@M@internal@Eigen@@V?$Matrix@M$02$02$0A@$02$02@3@V?$CoeffBasedProduct@$$CBV?$CwiseUnaryOp@U?$scalar_multiple_op@M@internal@Eigen@@$$CBV?$Matrix@M$02$00$0A@$02$00@3@@Eigen@@$$CBV?$Transpose@V?$Matrix@M$02$00$0A@$02$00@Eigen@@@2@$0BAA@@3@@Eigen@@QBEHXZ 0045af50 f i fluidsim.obj
 0002:00028f80       ?rows@?$SwapWrapper@V?$Block@V?$Matrix@M$02$02$0A@$02$02@Eigen@@$02$00$00@Eigen@@@Eigen@@QBEHXZ 0045af80 f i fluidsim.obj
 0002:00028fb0       ?rows@?$Transpose@$$CBV?$CwiseUnaryOp@U?$scalar_multiple_op@M@internal@Eigen@@$$CBV?$Matrix@M$02$00$0A@$02$00@3@@Eigen@@@Eigen@@QBEHXZ 0045afb0 f i fluidsim.obj
 0002:00028fe0       ?rows@?$Transpose@V?$Matrix@M$02$00$0A@$02$00@Eigen@@@Eigen@@QBEHXZ 0045afe0 f i fluidsim.obj
 0002:00029010       ?rows@?$Transpose@V?$Matrix@M$02$02$0A@$02$02@Eigen@@@Eigen@@QBEHXZ 0045b010 f i fluidsim.obj
 0002:00029040       ?rows@?$inverse_impl@V?$Matrix@M$02$02$0A@$02$02@Eigen@@@internal@Eigen@@QBEHXZ 0045b040 f i fluidsim.obj
 0002:00029070       ?run@?$abs2_impl@M@internal@Eigen@@SAMABM@Z 0045b070 f i fluidsim.obj
 0002:000290a0       ?run@?$assign_DefaultTraversal_CompleteUnrolling@V?$Matrix@M$02$00$0A@$02$00@Eigen@@V?$CoeffBasedProduct@$$CBV?$CwiseUnaryOp@U?$scalar_multiple_op@M@internal@Eigen@@$$CBV?$Matrix@M$02$02$0A@$02$02@3@@Eigen@@ABV?$Matrix@M$02$00$0A@$02$00@2@$05@2@$00$02@internal@Eigen@@SAXAAV?$Matrix@M$02$00$0A@$02$00@3@ABV?$CoeffBasedProduct@$$CBV?$CwiseUnaryOp@U?$scalar_multiple_op@M@internal@Eigen@@$$CBV?$Matrix@M$02$02$0A@$02$02@3@@Eigen@@ABV?$Matrix@M$02$00$0A@$02$00@2@$05@3@@Z 0045b0a0 f i fluidsim.obj
 0002:00029100       ?run@?$assign_DefaultTraversal_CompleteUnrolling@V?$Matrix@M$02$00$0A@$02$00@Eigen@@V?$CoeffBasedProduct@$$CBV?$CwiseUnaryOp@U?$scalar_multiple_op@M@internal@Eigen@@$$CBV?$Matrix@M$02$02$0A@$02$02@3@@Eigen@@ABV?$Matrix@M$02$00$0A@$02$00@2@$05@2@$01$02@internal@Eigen@@SAXAAV?$Matrix@M$02$00$0A@$02$00@3@ABV?$CoeffBasedProduct@$$CBV?$CwiseUnaryOp@U?$scalar_multiple_op@M@internal@Eigen@@$$CBV?$Matrix@M$02$02$0A@$02$02@3@@Eigen@@ABV?$Matrix@M$02$00$0A@$02$00@2@$05@3@@Z 0045b100 f i fluidsim.obj
 0002:00029160       ?run@?$assign_DefaultTraversal_CompleteUnrolling@V?$Matrix@M$02$00$0A@$02$00@Eigen@@V?$CoeffBasedProduct@$$CBV?$CwiseUnaryOp@U?$scalar_multiple_op@M@internal@Eigen@@$$CBV?$Matrix@M$02$02$0A@$02$02@3@@Eigen@@ABV?$Matrix@M$02$00$0A@$02$00@2@$05@2@$02$02@internal@Eigen@@SAXAAV?$Matrix@M$02$00$0A@$02$00@3@ABV?$CoeffBasedProduct@$$CBV?$CwiseUnaryOp@U?$scalar_multiple_op@M@internal@Eigen@@$$CBV?$Matrix@M$02$02$0A@$02$02@3@@Eigen@@ABV?$Matrix@M$02$00$0A@$02$00@2@$05@3@@Z 0045b160 f i fluidsim.obj
 0002:00029180       ?run@?$assign_DefaultTraversal_CompleteUnrolling@V?$Matrix@M$02$00$0A@$02$00@Eigen@@V?$CoeffBasedProduct@$$CBV?$CwiseUnaryOp@U?$scalar_multiple_op@M@internal@Eigen@@$$CBV?$Matrix@M$02$02$0A@$02$02@3@@Eigen@@ABV?$Matrix@M$02$00$0A@$02$00@2@$05@2@$0A@$02@internal@Eigen@@SAXAAV?$Matrix@M$02$00$0A@$02$00@3@ABV?$CoeffBasedProduct@$$CBV?$CwiseUnaryOp@U?$scalar_multiple_op@M@internal@Eigen@@$$CBV?$Matrix@M$02$02$0A@$02$02@3@@Eigen@@ABV?$Matrix@M$02$00$0A@$02$00@2@$05@3@@Z 0045b180 f i fluidsim.obj
 0002:000291e0       ?run@?$assign_DefaultTraversal_CompleteUnrolling@V?$Matrix@M$02$02$00$02$02@Eigen@@V?$CoeffBasedProduct@ABV?$Matrix@M$02$02$0A@$02$02@Eigen@@$$CBV?$Transpose@V?$Matrix@M$02$02$0A@$02$02@Eigen@@@2@$05@2@$00$08@internal@Eigen@@SAXAAV?$Matrix@M$02$02$00$02$02@3@ABV?$CoeffBasedProduct@ABV?$Matrix@M$02$02$0A@$02$02@Eigen@@$$CBV?$Transpose@V?$Matrix@M$02$02$0A@$02$02@Eigen@@@2@$05@3@@Z 0045b1e0 f i fluidsim.obj
 0002:00029240       ?run@?$assign_DefaultTraversal_CompleteUnrolling@V?$Matrix@M$02$02$00$02$02@Eigen@@V?$CoeffBasedProduct@ABV?$Matrix@M$02$02$0A@$02$02@Eigen@@$$CBV?$Transpose@V?$Matrix@M$02$02$0A@$02$02@Eigen@@@2@$05@2@$01$08@internal@Eigen@@SAXAAV?$Matrix@M$02$02$00$02$02@3@ABV?$CoeffBasedProduct@ABV?$Matrix@M$02$02$0A@$02$02@Eigen@@$$CBV?$Transpose@V?$Matrix@M$02$02$0A@$02$02@Eigen@@@2@$05@3@@Z 0045b240 f i fluidsim.obj
 0002:000292a0       ?run@?$assign_DefaultTraversal_CompleteUnrolling@V?$Matrix@M$02$02$00$02$02@Eigen@@V?$CoeffBasedProduct@ABV?$Matrix@M$02$02$0A@$02$02@Eigen@@$$CBV?$Transpose@V?$Matrix@M$02$02$0A@$02$02@Eigen@@@2@$05@2@$02$08@internal@Eigen@@SAXAAV?$Matrix@M$02$02$00$02$02@3@ABV?$CoeffBasedProduct@ABV?$Matrix@M$02$02$0A@$02$02@Eigen@@$$CBV?$Transpose@V?$Matrix@M$02$02$0A@$02$02@Eigen@@@2@$05@3@@Z 0045b2a0 f i fluidsim.obj
 0002:00029300       ?run@?$assign_DefaultTraversal_CompleteUnrolling@V?$Matrix@M$02$02$00$02$02@Eigen@@V?$CoeffBasedProduct@ABV?$Matrix@M$02$02$0A@$02$02@Eigen@@$$CBV?$Transpose@V?$Matrix@M$02$02$0A@$02$02@Eigen@@@2@$05@2@$03$08@internal@Eigen@@SAXAAV?$Matrix@M$02$02$00$02$02@3@ABV?$CoeffBasedProduct@ABV?$Matrix@M$02$02$0A@$02$02@Eigen@@$$CBV?$Transpose@V?$Matrix@M$02$02$0A@$02$02@Eigen@@@2@$05@3@@Z 0045b300 f i fluidsim.obj
 0002:00029360       ?run@?$assign_DefaultTraversal_CompleteUnrolling@V?$Matrix@M$02$02$00$02$02@Eigen@@V?$CoeffBasedProduct@ABV?$Matrix@M$02$02$0A@$02$02@Eigen@@$$CBV?$Transpose@V?$Matrix@M$02$02$0A@$02$02@Eigen@@@2@$05@2@$04$08@internal@Eigen@@SAXAAV?$Matrix@M$02$02$00$02$02@3@ABV?$CoeffBasedProduct@ABV?$Matrix@M$02$02$0A@$02$02@Eigen@@$$CBV?$Transpose@V?$Matrix@M$02$02$0A@$02$02@Eigen@@@2@$05@3@@Z 0045b360 f i fluidsim.obj
 0002:000293c0       ?run@?$assign_DefaultTraversal_CompleteUnrolling@V?$Matrix@M$02$02$00$02$02@Eigen@@V?$CoeffBasedProduct@ABV?$Matrix@M$02$02$0A@$02$02@Eigen@@$$CBV?$Transpose@V?$Matrix@M$02$02$0A@$02$02@Eigen@@@2@$05@2@$05$08@internal@Eigen@@SAXAAV?$Matrix@M$02$02$00$02$02@3@ABV?$CoeffBasedProduct@ABV?$Matrix@M$02$02$0A@$02$02@Eigen@@$$CBV?$Transpose@V?$Matrix@M$02$02$0A@$02$02@Eigen@@@2@$05@3@@Z 0045b3c0 f i fluidsim.obj
 0002:00029420       ?run@?$assign_DefaultTraversal_CompleteUnrolling@V?$Matrix@M$02$02$00$02$02@Eigen@@V?$CoeffBasedProduct@ABV?$Matrix@M$02$02$0A@$02$02@Eigen@@$$CBV?$Transpose@V?$Matrix@M$02$02$0A@$02$02@Eigen@@@2@$05@2@$06$08@internal@Eigen@@SAXAAV?$Matrix@M$02$02$00$02$02@3@ABV?$CoeffBasedProduct@ABV?$Matrix@M$02$02$0A@$02$02@Eigen@@$$CBV?$Transpose@V?$Matrix@M$02$02$0A@$02$02@Eigen@@@2@$05@3@@Z 0045b420 f i fluidsim.obj
 0002:00029480       ?run@?$assign_DefaultTraversal_CompleteUnrolling@V?$Matrix@M$02$02$00$02$02@Eigen@@V?$CoeffBasedProduct@ABV?$Matrix@M$02$02$0A@$02$02@Eigen@@$$CBV?$Transpose@V?$Matrix@M$02$02$0A@$02$02@Eigen@@@2@$05@2@$07$08@internal@Eigen@@SAXAAV?$Matrix@M$02$02$00$02$02@3@ABV?$CoeffBasedProduct@ABV?$Matrix@M$02$02$0A@$02$02@Eigen@@$$CBV?$Transpose@V?$Matrix@M$02$02$0A@$02$02@Eigen@@@2@$05@3@@Z 0045b480 f i fluidsim.obj
 0002:000294e0       ?run@?$assign_DefaultTraversal_CompleteUnrolling@V?$Matrix@M$02$02$00$02$02@Eigen@@V?$CoeffBasedProduct@ABV?$Matrix@M$02$02$0A@$02$02@Eigen@@$$CBV?$Transpose@V?$Matrix@M$02$02$0A@$02$02@Eigen@@@2@$05@2@$08$08@internal@Eigen@@SAXAAV?$Matrix@M$02$02$00$02$02@3@ABV?$CoeffBasedProduct@ABV?$Matrix@M$02$02$0A@$02$02@Eigen@@$$CBV?$Transpose@V?$Matrix@M$02$02$0A@$02$02@Eigen@@@2@$05@3@@Z 0045b4e0 f i fluidsim.obj
 0002:00029500       ?run@?$assign_DefaultTraversal_CompleteUnrolling@V?$Matrix@M$02$02$00$02$02@Eigen@@V?$CoeffBasedProduct@ABV?$Matrix@M$02$02$0A@$02$02@Eigen@@$$CBV?$Transpose@V?$Matrix@M$02$02$0A@$02$02@Eigen@@@2@$05@2@$0A@$08@internal@Eigen@@SAXAAV?$Matrix@M$02$02$00$02$02@3@ABV?$CoeffBasedProduct@ABV?$Matrix@M$02$02$0A@$02$02@Eigen@@$$CBV?$Transpose@V?$Matrix@M$02$02$0A@$02$02@Eigen@@@2@$05@3@@Z 0045b500 f i fluidsim.obj
 0002:00029560       ?run@?$assign_DefaultTraversal_CompleteUnrolling@V?$Matrix@M$02$02$0A@$02$02@Eigen@@V?$Block@$$CBV?$Matrix@M$02$02$0A@$02$02@Eigen@@$0?0$0?0$0A@@2@$00$08@internal@Eigen@@SAXAAV?$Matrix@M$02$02$0A@$02$02@3@ABV?$Block@$$CBV?$Matrix@M$02$02$0A@$02$02@Eigen@@$0?0$0?0$0A@@3@@Z 0045b560 f i fluidsim.obj
 0002:000295a0       ?run@?$assign_DefaultTraversal_CompleteUnrolling@V?$Matrix@M$02$02$0A@$02$02@Eigen@@V?$Block@$$CBV?$Matrix@M$02$02$0A@$02$02@Eigen@@$0?0$0?0$0A@@2@$01$08@internal@Eigen@@SAXAAV?$Matrix@M$02$02$0A@$02$02@3@ABV?$Block@$$CBV?$Matrix@M$02$02$0A@$02$02@Eigen@@$0?0$0?0$0A@@3@@Z 0045b5a0 f i fluidsim.obj
 0002:000295e0       ?run@?$assign_DefaultTraversal_CompleteUnrolling@V?$Matrix@M$02$02$0A@$02$02@Eigen@@V?$Block@$$CBV?$Matrix@M$02$02$0A@$02$02@Eigen@@$0?0$0?0$0A@@2@$02$08@internal@Eigen@@SAXAAV?$Matrix@M$02$02$0A@$02$02@3@ABV?$Block@$$CBV?$Matrix@M$02$02$0A@$02$02@Eigen@@$0?0$0?0$0A@@3@@Z 0045b5e0 f i fluidsim.obj
 0002:00029620       ?run@?$assign_DefaultTraversal_CompleteUnrolling@V?$Matrix@M$02$02$0A@$02$02@Eigen@@V?$Block@$$CBV?$Matrix@M$02$02$0A@$02$02@Eigen@@$0?0$0?0$0A@@2@$03$08@internal@Eigen@@SAXAAV?$Matrix@M$02$02$0A@$02$02@3@ABV?$Block@$$CBV?$Matrix@M$02$02$0A@$02$02@Eigen@@$0?0$0?0$0A@@3@@Z 0045b620 f i fluidsim.obj
 0002:00029660       ?run@?$assign_DefaultTraversal_CompleteUnrolling@V?$Matrix@M$02$02$0A@$02$02@Eigen@@V?$Block@$$CBV?$Matrix@M$02$02$0A@$02$02@Eigen@@$0?0$0?0$0A@@2@$04$08@internal@Eigen@@SAXAAV?$Matrix@M$02$02$0A@$02$02@3@ABV?$Block@$$CBV?$Matrix@M$02$02$0A@$02$02@Eigen@@$0?0$0?0$0A@@3@@Z 0045b660 f i fluidsim.obj
 0002:000296a0       ?run@?$assign_DefaultTraversal_CompleteUnrolling@V?$Matrix@M$02$02$0A@$02$02@Eigen@@V?$Block@$$CBV?$Matrix@M$02$02$0A@$02$02@Eigen@@$0?0$0?0$0A@@2@$05$08@internal@Eigen@@SAXAAV?$Matrix@M$02$02$0A@$02$02@3@ABV?$Block@$$CBV?$Matrix@M$02$02$0A@$02$02@Eigen@@$0?0$0?0$0A@@3@@Z 0045b6a0 f i fluidsim.obj
 0002:000296e0       ?run@?$assign_DefaultTraversal_CompleteUnrolling@V?$Matrix@M$02$02$0A@$02$02@Eigen@@V?$Block@$$CBV?$Matrix@M$02$02$0A@$02$02@Eigen@@$0?0$0?0$0A@@2@$06$08@internal@Eigen@@SAXAAV?$Matrix@M$02$02$0A@$02$02@3@ABV?$Block@$$CBV?$Matrix@M$02$02$0A@$02$02@Eigen@@$0?0$0?0$0A@@3@@Z 0045b6e0 f i fluidsim.obj
 0002:00029720       ?run@?$assign_DefaultTraversal_CompleteUnrolling@V?$Matrix@M$02$02$0A@$02$02@Eigen@@V?$Block@$$CBV?$Matrix@M$02$02$0A@$02$02@Eigen@@$0?0$0?0$0A@@2@$07$08@internal@Eigen@@SAXAAV?$Matrix@M$02$02$0A@$02$02@3@ABV?$Block@$$CBV?$Matrix@M$02$02$0A@$02$02@Eigen@@$0?0$0?0$0A@@3@@Z 0045b720 f i fluidsim.obj
 0002:00029760       ?run@?$assign_DefaultTraversal_CompleteUnrolling@V?$Matrix@M$02$02$0A@$02$02@Eigen@@V?$Block@$$CBV?$Matrix@M$02$02$0A@$02$02@Eigen@@$0?0$0?0$0A@@2@$08$08@internal@Eigen@@SAXAAV?$Matrix@M$02$02$0A@$02$02@3@ABV?$Block@$$CBV?$Matrix@M$02$02$0A@$02$02@Eigen@@$0?0$0?0$0A@@3@@Z 0045b760 f i fluidsim.obj
 0002:00029780       ?run@?$assign_DefaultTraversal_CompleteUnrolling@V?$Matrix@M$02$02$0A@$02$02@Eigen@@V?$Block@$$CBV?$Matrix@M$02$02$0A@$02$02@Eigen@@$0?0$0?0$0A@@2@$0A@$08@internal@Eigen@@SAXAAV?$Matrix@M$02$02$0A@$02$02@3@ABV?$Block@$$CBV?$Matrix@M$02$02$0A@$02$02@Eigen@@$0?0$0?0$0A@@3@@Z 0045b780 f i fluidsim.obj
 0002:000297c0       ?run@?$assign_DefaultTraversal_CompleteUnrolling@V?$Matrix@M$02$02$0A@$02$02@Eigen@@V?$CoeffBasedProduct@ABV?$Matrix@M$02$02$00$02$02@Eigen@@ABV?$Matrix@M$02$02$0A@$02$02@2@$05@2@$00$08@internal@Eigen@@SAXAAV?$Matrix@M$02$02$0A@$02$02@3@ABV?$CoeffBasedProduct@ABV?$Matrix@M$02$02$00$02$02@Eigen@@ABV?$Matrix@M$02$02$0A@$02$02@2@$05@3@@Z 0045b7c0 f i fluidsim.obj
 0002:00029820       ?run@?$assign_DefaultTraversal_CompleteUnrolling@V?$Matrix@M$02$02$0A@$02$02@Eigen@@V?$CoeffBasedProduct@ABV?$Matrix@M$02$02$00$02$02@Eigen@@ABV?$Matrix@M$02$02$0A@$02$02@2@$05@2@$01$08@internal@Eigen@@SAXAAV?$Matrix@M$02$02$0A@$02$02@3@ABV?$CoeffBasedProduct@ABV?$Matrix@M$02$02$00$02$02@Eigen@@ABV?$Matrix@M$02$02$0A@$02$02@2@$05@3@@Z 0045b820 f i fluidsim.obj
 0002:00029880       ?run@?$assign_DefaultTraversal_CompleteUnrolling@V?$Matrix@M$02$02$0A@$02$02@Eigen@@V?$CoeffBasedProduct@ABV?$Matrix@M$02$02$00$02$02@Eigen@@ABV?$Matrix@M$02$02$0A@$02$02@2@$05@2@$02$08@internal@Eigen@@SAXAAV?$Matrix@M$02$02$0A@$02$02@3@ABV?$CoeffBasedProduct@ABV?$Matrix@M$02$02$00$02$02@Eigen@@ABV?$Matrix@M$02$02$0A@$02$02@2@$05@3@@Z 0045b880 f i fluidsim.obj
 0002:000298e0       ?run@?$assign_DefaultTraversal_CompleteUnrolling@V?$Matrix@M$02$02$0A@$02$02@Eigen@@V?$CoeffBasedProduct@ABV?$Matrix@M$02$02$00$02$02@Eigen@@ABV?$Matrix@M$02$02$0A@$02$02@2@$05@2@$03$08@internal@Eigen@@SAXAAV?$Matrix@M$02$02$0A@$02$02@3@ABV?$CoeffBasedProduct@ABV?$Matrix@M$02$02$00$02$02@Eigen@@ABV?$Matrix@M$02$02$0A@$02$02@2@$05@3@@Z 0045b8e0 f i fluidsim.obj
 0002:00029940       ?run@?$assign_DefaultTraversal_CompleteUnrolling@V?$Matrix@M$02$02$0A@$02$02@Eigen@@V?$CoeffBasedProduct@ABV?$Matrix@M$02$02$00$02$02@Eigen@@ABV?$Matrix@M$02$02$0A@$02$02@2@$05@2@$04$08@internal@Eigen@@SAXAAV?$Matrix@M$02$02$0A@$02$02@3@ABV?$CoeffBasedProduct@ABV?$Matrix@M$02$02$00$02$02@Eigen@@ABV?$Matrix@M$02$02$0A@$02$02@2@$05@3@@Z 0045b940 f i fluidsim.obj
 0002:000299a0       ?run@?$assign_DefaultTraversal_CompleteUnrolling@V?$Matrix@M$02$02$0A@$02$02@Eigen@@V?$CoeffBasedProduct@ABV?$Matrix@M$02$02$00$02$02@Eigen@@ABV?$Matrix@M$02$02$0A@$02$02@2@$05@2@$05$08@internal@Eigen@@SAXAAV?$Matrix@M$02$02$0A@$02$02@3@ABV?$CoeffBasedProduct@ABV?$Matrix@M$02$02$00$02$02@Eigen@@ABV?$Matrix@M$02$02$0A@$02$02@2@$05@3@@Z 0045b9a0 f i fluidsim.obj
 0002:00029a00       ?run@?$assign_DefaultTraversal_CompleteUnrolling@V?$Matrix@M$02$02$0A@$02$02@Eigen@@V?$CoeffBasedProduct@ABV?$Matrix@M$02$02$00$02$02@Eigen@@ABV?$Matrix@M$02$02$0A@$02$02@2@$05@2@$06$08@internal@Eigen@@SAXAAV?$Matrix@M$02$02$0A@$02$02@3@ABV?$CoeffBasedProduct@ABV?$Matrix@M$02$02$00$02$02@Eigen@@ABV?$Matrix@M$02$02$0A@$02$02@2@$05@3@@Z 0045ba00 f i fluidsim.obj
 0002:00029a60       ?run@?$assign_DefaultTraversal_CompleteUnrolling@V?$Matrix@M$02$02$0A@$02$02@Eigen@@V?$CoeffBasedProduct@ABV?$Matrix@M$02$02$00$02$02@Eigen@@ABV?$Matrix@M$02$02$0A@$02$02@2@$05@2@$07$08@internal@Eigen@@SAXAAV?$Matrix@M$02$02$0A@$02$02@3@ABV?$CoeffBasedProduct@ABV?$Matrix@M$02$02$00$02$02@Eigen@@ABV?$Matrix@M$02$02$0A@$02$02@2@$05@3@@Z 0045ba60 f i fluidsim.obj
 0002:00029ac0       ?run@?$assign_DefaultTraversal_CompleteUnrolling@V?$Matrix@M$02$02$0A@$02$02@Eigen@@V?$CoeffBasedProduct@ABV?$Matrix@M$02$02$00$02$02@Eigen@@ABV?$Matrix@M$02$02$0A@$02$02@2@$05@2@$08$08@internal@Eigen@@SAXAAV?$Matrix@M$02$02$0A@$02$02@3@ABV?$CoeffBasedProduct@ABV?$Matrix@M$02$02$00$02$02@Eigen@@ABV?$Matrix@M$02$02$0A@$02$02@2@$05@3@@Z 0045bac0 f i fluidsim.obj
 0002:00029ae0       ?run@?$assign_DefaultTraversal_CompleteUnrolling@V?$Matrix@M$02$02$0A@$02$02@Eigen@@V?$CoeffBasedProduct@ABV?$Matrix@M$02$02$00$02$02@Eigen@@ABV?$Matrix@M$02$02$0A@$02$02@2@$05@2@$0A@$08@internal@Eigen@@SAXAAV?$Matrix@M$02$02$0A@$02$02@3@ABV?$CoeffBasedProduct@ABV?$Matrix@M$02$02$00$02$02@Eigen@@ABV?$Matrix@M$02$02$0A@$02$02@2@$05@3@@Z 0045bae0 f i fluidsim.obj
 0002:00029b40       ?run@?$assign_DefaultTraversal_CompleteUnrolling@V?$Matrix@M$02$02$0A@$02$02@Eigen@@V?$CoeffBasedProduct@ABV?$Matrix@M$02$02$0A@$02$02@Eigen@@$$CBV?$Transpose@V?$Matrix@M$02$02$0A@$02$02@Eigen@@@2@$05@2@$00$08@internal@Eigen@@SAXAAV?$Matrix@M$02$02$0A@$02$02@3@ABV?$CoeffBasedProduct@ABV?$Matrix@M$02$02$0A@$02$02@Eigen@@$$CBV?$Transpose@V?$Matrix@M$02$02$0A@$02$02@Eigen@@@2@$05@3@@Z 0045bb40 f i fluidsim.obj
 0002:00029ba0       ?run@?$assign_DefaultTraversal_CompleteUnrolling@V?$Matrix@M$02$02$0A@$02$02@Eigen@@V?$CoeffBasedProduct@ABV?$Matrix@M$02$02$0A@$02$02@Eigen@@$$CBV?$Transpose@V?$Matrix@M$02$02$0A@$02$02@Eigen@@@2@$05@2@$01$08@internal@Eigen@@SAXAAV?$Matrix@M$02$02$0A@$02$02@3@ABV?$CoeffBasedProduct@ABV?$Matrix@M$02$02$0A@$02$02@Eigen@@$$CBV?$Transpose@V?$Matrix@M$02$02$0A@$02$02@Eigen@@@2@$05@3@@Z 0045bba0 f i fluidsim.obj
 0002:00029c00       ?run@?$assign_DefaultTraversal_CompleteUnrolling@V?$Matrix@M$02$02$0A@$02$02@Eigen@@V?$CoeffBasedProduct@ABV?$Matrix@M$02$02$0A@$02$02@Eigen@@$$CBV?$Transpose@V?$Matrix@M$02$02$0A@$02$02@Eigen@@@2@$05@2@$02$08@internal@Eigen@@SAXAAV?$Matrix@M$02$02$0A@$02$02@3@ABV?$CoeffBasedProduct@ABV?$Matrix@M$02$02$0A@$02$02@Eigen@@$$CBV?$Transpose@V?$Matrix@M$02$02$0A@$02$02@Eigen@@@2@$05@3@@Z 0045bc00 f i fluidsim.obj
 0002:00029c60       ?run@?$assign_DefaultTraversal_CompleteUnrolling@V?$Matrix@M$02$02$0A@$02$02@Eigen@@V?$CoeffBasedProduct@ABV?$Matrix@M$02$02$0A@$02$02@Eigen@@$$CBV?$Transpose@V?$Matrix@M$02$02$0A@$02$02@Eigen@@@2@$05@2@$03$08@internal@Eigen@@SAXAAV?$Matrix@M$02$02$0A@$02$02@3@ABV?$CoeffBasedProduct@ABV?$Matrix@M$02$02$0A@$02$02@Eigen@@$$CBV?$Transpose@V?$Matrix@M$02$02$0A@$02$02@Eigen@@@2@$05@3@@Z 0045bc60 f i fluidsim.obj
 0002:00029cc0       ?run@?$assign_DefaultTraversal_CompleteUnrolling@V?$Matrix@M$02$02$0A@$02$02@Eigen@@V?$CoeffBasedProduct@ABV?$Matrix@M$02$02$0A@$02$02@Eigen@@$$CBV?$Transpose@V?$Matrix@M$02$02$0A@$02$02@Eigen@@@2@$05@2@$04$08@internal@Eigen@@SAXAAV?$Matrix@M$02$02$0A@$02$02@3@ABV?$CoeffBasedProduct@ABV?$Matrix@M$02$02$0A@$02$02@Eigen@@$$CBV?$Transpose@V?$Matrix@M$02$02$0A@$02$02@Eigen@@@2@$05@3@@Z 0045bcc0 f i fluidsim.obj
 0002:00029d20       ?run@?$assign_DefaultTraversal_CompleteUnrolling@V?$Matrix@M$02$02$0A@$02$02@Eigen@@V?$CoeffBasedProduct@ABV?$Matrix@M$02$02$0A@$02$02@Eigen@@$$CBV?$Transpose@V?$Matrix@M$02$02$0A@$02$02@Eigen@@@2@$05@2@$05$08@internal@Eigen@@SAXAAV?$Matrix@M$02$02$0A@$02$02@3@ABV?$CoeffBasedProduct@ABV?$Matrix@M$02$02$0A@$02$02@Eigen@@$$CBV?$Transpose@V?$Matrix@M$02$02$0A@$02$02@Eigen@@@2@$05@3@@Z 0045bd20 f i fluidsim.obj
 0002:00029d80       ?run@?$assign_DefaultTraversal_CompleteUnrolling@V?$Matrix@M$02$02$0A@$02$02@Eigen@@V?$CoeffBasedProduct@ABV?$Matrix@M$02$02$0A@$02$02@Eigen@@$$CBV?$Transpose@V?$Matrix@M$02$02$0A@$02$02@Eigen@@@2@$05@2@$06$08@internal@Eigen@@SAXAAV?$Matrix@M$02$02$0A@$02$02@3@ABV?$CoeffBasedProduct@ABV?$Matrix@M$02$02$0A@$02$02@Eigen@@$$CBV?$Transpose@V?$Matrix@M$02$02$0A@$02$02@Eigen@@@2@$05@3@@Z 0045bd80 f i fluidsim.obj
 0002:00029de0       ?run@?$assign_DefaultTraversal_CompleteUnrolling@V?$Matrix@M$02$02$0A@$02$02@Eigen@@V?$CoeffBasedProduct@ABV?$Matrix@M$02$02$0A@$02$02@Eigen@@$$CBV?$Transpose@V?$Matrix@M$02$02$0A@$02$02@Eigen@@@2@$05@2@$07$08@internal@Eigen@@SAXAAV?$Matrix@M$02$02$0A@$02$02@3@ABV?$CoeffBasedProduct@ABV?$Matrix@M$02$02$0A@$02$02@Eigen@@$$CBV?$Transpose@V?$Matrix@M$02$02$0A@$02$02@Eigen@@@2@$05@3@@Z 0045bde0 f i fluidsim.obj
 0002:00029e40       ?run@?$assign_DefaultTraversal_CompleteUnrolling@V?$Matrix@M$02$02$0A@$02$02@Eigen@@V?$CoeffBasedProduct@ABV?$Matrix@M$02$02$0A@$02$02@Eigen@@$$CBV?$Transpose@V?$Matrix@M$02$02$0A@$02$02@Eigen@@@2@$05@2@$08$08@internal@Eigen@@SAXAAV?$Matrix@M$02$02$0A@$02$02@3@ABV?$CoeffBasedProduct@ABV?$Matrix@M$02$02$0A@$02$02@Eigen@@$$CBV?$Transpose@V?$Matrix@M$02$02$0A@$02$02@Eigen@@@2@$05@3@@Z 0045be40 f i fluidsim.obj
 0002:00029e60       ?run@?$assign_DefaultTraversal_CompleteUnrolling@V?$Matrix@M$02$02$0A@$02$02@Eigen@@V?$CoeffBasedProduct@ABV?$Matrix@M$02$02$0A@$02$02@Eigen@@$$CBV?$Transpose@V?$Matrix@M$02$02$0A@$02$02@Eigen@@@2@$05@2@$0A@$08@internal@Eigen@@SAXAAV?$Matrix@M$02$02$0A@$02$02@3@ABV?$CoeffBasedProduct@ABV?$Matrix@M$02$02$0A@$02$02@Eigen@@$$CBV?$Transpose@V?$Matrix@M$02$02$0A@$02$02@Eigen@@@2@$05@3@@Z 0045be60 f i fluidsim.obj
 0002:00029ec0       ?run@?$assign_DefaultTraversal_CompleteUnrolling@V?$Matrix@M$02$02$0A@$02$02@Eigen@@V?$CoeffBasedProduct@ABV?$Matrix@M$02$02$0A@$02$02@Eigen@@ABV12@$05@2@$00$08@internal@Eigen@@SAXAAV?$Matrix@M$02$02$0A@$02$02@3@ABV?$CoeffBasedProduct@ABV?$Matrix@M$02$02$0A@$02$02@Eigen@@ABV12@$05@3@@Z 0045bec0 f i fluidsim.obj
 0002:00029f20       ?run@?$assign_DefaultTraversal_CompleteUnrolling@V?$Matrix@M$02$02$0A@$02$02@Eigen@@V?$CoeffBasedProduct@ABV?$Matrix@M$02$02$0A@$02$02@Eigen@@ABV12@$05@2@$01$08@internal@Eigen@@SAXAAV?$Matrix@M$02$02$0A@$02$02@3@ABV?$CoeffBasedProduct@ABV?$Matrix@M$02$02$0A@$02$02@Eigen@@ABV12@$05@3@@Z 0045bf20 f i fluidsim.obj
 0002:00029f80       ?run@?$assign_DefaultTraversal_CompleteUnrolling@V?$Matrix@M$02$02$0A@$02$02@Eigen@@V?$CoeffBasedProduct@ABV?$Matrix@M$02$02$0A@$02$02@Eigen@@ABV12@$05@2@$02$08@internal@Eigen@@SAXAAV?$Matrix@M$02$02$0A@$02$02@3@ABV?$CoeffBasedProduct@ABV?$Matrix@M$02$02$0A@$02$02@Eigen@@ABV12@$05@3@@Z 0045bf80 f i fluidsim.obj
 0002:00029fe0       ?run@?$assign_DefaultTraversal_CompleteUnrolling@V?$Matrix@M$02$02$0A@$02$02@Eigen@@V?$CoeffBasedProduct@ABV?$Matrix@M$02$02$0A@$02$02@Eigen@@ABV12@$05@2@$03$08@internal@Eigen@@SAXAAV?$Matrix@M$02$02$0A@$02$02@3@ABV?$CoeffBasedProduct@ABV?$Matrix@M$02$02$0A@$02$02@Eigen@@ABV12@$05@3@@Z 0045bfe0 f i fluidsim.obj
 0002:0002a040       ?run@?$assign_DefaultTraversal_CompleteUnrolling@V?$Matrix@M$02$02$0A@$02$02@Eigen@@V?$CoeffBasedProduct@ABV?$Matrix@M$02$02$0A@$02$02@Eigen@@ABV12@$05@2@$04$08@internal@Eigen@@SAXAAV?$Matrix@M$02$02$0A@$02$02@3@ABV?$CoeffBasedProduct@ABV?$Matrix@M$02$02$0A@$02$02@Eigen@@ABV12@$05@3@@Z 0045c040 f i fluidsim.obj
 0002:0002a0a0       ?run@?$assign_DefaultTraversal_CompleteUnrolling@V?$Matrix@M$02$02$0A@$02$02@Eigen@@V?$CoeffBasedProduct@ABV?$Matrix@M$02$02$0A@$02$02@Eigen@@ABV12@$05@2@$05$08@internal@Eigen@@SAXAAV?$Matrix@M$02$02$0A@$02$02@3@ABV?$CoeffBasedProduct@ABV?$Matrix@M$02$02$0A@$02$02@Eigen@@ABV12@$05@3@@Z 0045c0a0 f i fluidsim.obj
 0002:0002a100       ?run@?$assign_DefaultTraversal_CompleteUnrolling@V?$Matrix@M$02$02$0A@$02$02@Eigen@@V?$CoeffBasedProduct@ABV?$Matrix@M$02$02$0A@$02$02@Eigen@@ABV12@$05@2@$06$08@internal@Eigen@@SAXAAV?$Matrix@M$02$02$0A@$02$02@3@ABV?$CoeffBasedProduct@ABV?$Matrix@M$02$02$0A@$02$02@Eigen@@ABV12@$05@3@@Z 0045c100 f i fluidsim.obj
 0002:0002a160       ?run@?$assign_DefaultTraversal_CompleteUnrolling@V?$Matrix@M$02$02$0A@$02$02@Eigen@@V?$CoeffBasedProduct@ABV?$Matrix@M$02$02$0A@$02$02@Eigen@@ABV12@$05@2@$07$08@internal@Eigen@@SAXAAV?$Matrix@M$02$02$0A@$02$02@3@ABV?$CoeffBasedProduct@ABV?$Matrix@M$02$02$0A@$02$02@Eigen@@ABV12@$05@3@@Z 0045c160 f i fluidsim.obj
 0002:0002a1c0       ?run@?$assign_DefaultTraversal_CompleteUnrolling@V?$Matrix@M$02$02$0A@$02$02@Eigen@@V?$CoeffBasedProduct@ABV?$Matrix@M$02$02$0A@$02$02@Eigen@@ABV12@$05@2@$08$08@internal@Eigen@@SAXAAV?$Matrix@M$02$02$0A@$02$02@3@ABV?$CoeffBasedProduct@ABV?$Matrix@M$02$02$0A@$02$02@Eigen@@ABV12@$05@3@@Z 0045c1c0 f i fluidsim.obj
 0002:0002a1e0       ?run@?$assign_DefaultTraversal_CompleteUnrolling@V?$Matrix@M$02$02$0A@$02$02@Eigen@@V?$CoeffBasedProduct@ABV?$Matrix@M$02$02$0A@$02$02@Eigen@@ABV12@$05@2@$0A@$08@internal@Eigen@@SAXAAV?$Matrix@M$02$02$0A@$02$02@3@ABV?$CoeffBasedProduct@ABV?$Matrix@M$02$02$0A@$02$02@Eigen@@ABV12@$05@3@@Z 0045c1e0 f i fluidsim.obj
 0002:0002a240       ?run@?$assign_DefaultTraversal_CompleteUnrolling@V?$Matrix@M$02$02$0A@$02$02@Eigen@@V?$CoeffBasedProduct@ABV?$Matrix@M$02$02$0A@$02$02@Eigen@@V12@$05@2@$00$08@internal@Eigen@@SAXAAV?$Matrix@M$02$02$0A@$02$02@3@ABV?$CoeffBasedProduct@ABV?$Matrix@M$02$02$0A@$02$02@Eigen@@V12@$05@3@@Z 0045c240 f i fluidsim.obj
 0002:0002a2a0       ?run@?$assign_DefaultTraversal_CompleteUnrolling@V?$Matrix@M$02$02$0A@$02$02@Eigen@@V?$CoeffBasedProduct@ABV?$Matrix@M$02$02$0A@$02$02@Eigen@@V12@$05@2@$01$08@internal@Eigen@@SAXAAV?$Matrix@M$02$02$0A@$02$02@3@ABV?$CoeffBasedProduct@ABV?$Matrix@M$02$02$0A@$02$02@Eigen@@V12@$05@3@@Z 0045c2a0 f i fluidsim.obj
 0002:0002a300       ?run@?$assign_DefaultTraversal_CompleteUnrolling@V?$Matrix@M$02$02$0A@$02$02@Eigen@@V?$CoeffBasedProduct@ABV?$Matrix@M$02$02$0A@$02$02@Eigen@@V12@$05@2@$02$08@internal@Eigen@@SAXAAV?$Matrix@M$02$02$0A@$02$02@3@ABV?$CoeffBasedProduct@ABV?$Matrix@M$02$02$0A@$02$02@Eigen@@V12@$05@3@@Z 0045c300 f i fluidsim.obj
 0002:0002a360       ?run@?$assign_DefaultTraversal_CompleteUnrolling@V?$Matrix@M$02$02$0A@$02$02@Eigen@@V?$CoeffBasedProduct@ABV?$Matrix@M$02$02$0A@$02$02@Eigen@@V12@$05@2@$03$08@internal@Eigen@@SAXAAV?$Matrix@M$02$02$0A@$02$02@3@ABV?$CoeffBasedProduct@ABV?$Matrix@M$02$02$0A@$02$02@Eigen@@V12@$05@3@@Z 0045c360 f i fluidsim.obj
 0002:0002a3c0       ?run@?$assign_DefaultTraversal_CompleteUnrolling@V?$Matrix@M$02$02$0A@$02$02@Eigen@@V?$CoeffBasedProduct@ABV?$Matrix@M$02$02$0A@$02$02@Eigen@@V12@$05@2@$04$08@internal@Eigen@@SAXAAV?$Matrix@M$02$02$0A@$02$02@3@ABV?$CoeffBasedProduct@ABV?$Matrix@M$02$02$0A@$02$02@Eigen@@V12@$05@3@@Z 0045c3c0 f i fluidsim.obj
 0002:0002a420       ?run@?$assign_DefaultTraversal_CompleteUnrolling@V?$Matrix@M$02$02$0A@$02$02@Eigen@@V?$CoeffBasedProduct@ABV?$Matrix@M$02$02$0A@$02$02@Eigen@@V12@$05@2@$05$08@internal@Eigen@@SAXAAV?$Matrix@M$02$02$0A@$02$02@3@ABV?$CoeffBasedProduct@ABV?$Matrix@M$02$02$0A@$02$02@Eigen@@V12@$05@3@@Z 0045c420 f i fluidsim.obj
 0002:0002a480       ?run@?$assign_DefaultTraversal_CompleteUnrolling@V?$Matrix@M$02$02$0A@$02$02@Eigen@@V?$CoeffBasedProduct@ABV?$Matrix@M$02$02$0A@$02$02@Eigen@@V12@$05@2@$06$08@internal@Eigen@@SAXAAV?$Matrix@M$02$02$0A@$02$02@3@ABV?$CoeffBasedProduct@ABV?$Matrix@M$02$02$0A@$02$02@Eigen@@V12@$05@3@@Z 0045c480 f i fluidsim.obj
 0002:0002a4e0       ?run@?$assign_DefaultTraversal_CompleteUnrolling@V?$Matrix@M$02$02$0A@$02$02@Eigen@@V?$CoeffBasedProduct@ABV?$Matrix@M$02$02$0A@$02$02@Eigen@@V12@$05@2@$07$08@internal@Eigen@@SAXAAV?$Matrix@M$02$02$0A@$02$02@3@ABV?$CoeffBasedProduct@ABV?$Matrix@M$02$02$0A@$02$02@Eigen@@V12@$05@3@@Z 0045c4e0 f i fluidsim.obj
 0002:0002a540       ?run@?$assign_DefaultTraversal_CompleteUnrolling@V?$Matrix@M$02$02$0A@$02$02@Eigen@@V?$CoeffBasedProduct@ABV?$Matrix@M$02$02$0A@$02$02@Eigen@@V12@$05@2@$08$08@internal@Eigen@@SAXAAV?$Matrix@M$02$02$0A@$02$02@3@ABV?$CoeffBasedProduct@ABV?$Matrix@M$02$02$0A@$02$02@Eigen@@V12@$05@3@@Z 0045c540 f i fluidsim.obj
 0002:0002a560       ?run@?$assign_DefaultTraversal_CompleteUnrolling@V?$Matrix@M$02$02$0A@$02$02@Eigen@@V?$CoeffBasedProduct@ABV?$Matrix@M$02$02$0A@$02$02@Eigen@@V12@$05@2@$0A@$08@internal@Eigen@@SAXAAV?$Matrix@M$02$02$0A@$02$02@3@ABV?$CoeffBasedProduct@ABV?$Matrix@M$02$02$0A@$02$02@Eigen@@V12@$05@3@@Z 0045c560 f i fluidsim.obj
 0002:0002a5c0       ?run@?$assign_DefaultTraversal_CompleteUnrolling@V?$Matrix@M$02$02$0A@$02$02@Eigen@@V?$CwiseNullaryOp@U?$scalar_identity_op@M@internal@Eigen@@V?$Matrix@M$02$02$0A@$02$02@3@@2@$00$08@internal@Eigen@@SAXAAV?$Matrix@M$02$02$0A@$02$02@3@ABV?$CwiseNullaryOp@U?$scalar_identity_op@M@internal@Eigen@@V?$Matrix@M$02$02$0A@$02$02@3@@3@@Z 0045c5c0 f i fluidsim.obj
 0002:0002a620       ?run@?$assign_DefaultTraversal_CompleteUnrolling@V?$Matrix@M$02$02$0A@$02$02@Eigen@@V?$CwiseNullaryOp@U?$scalar_identity_op@M@internal@Eigen@@V?$Matrix@M$02$02$0A@$02$02@3@@2@$01$08@internal@Eigen@@SAXAAV?$Matrix@M$02$02$0A@$02$02@3@ABV?$CwiseNullaryOp@U?$scalar_identity_op@M@internal@Eigen@@V?$Matrix@M$02$02$0A@$02$02@3@@3@@Z 0045c620 f i fluidsim.obj
 0002:0002a680       ?run@?$assign_DefaultTraversal_CompleteUnrolling@V?$Matrix@M$02$02$0A@$02$02@Eigen@@V?$CwiseNullaryOp@U?$scalar_identity_op@M@internal@Eigen@@V?$Matrix@M$02$02$0A@$02$02@3@@2@$02$08@internal@Eigen@@SAXAAV?$Matrix@M$02$02$0A@$02$02@3@ABV?$CwiseNullaryOp@U?$scalar_identity_op@M@internal@Eigen@@V?$Matrix@M$02$02$0A@$02$02@3@@3@@Z 0045c680 f i fluidsim.obj
 0002:0002a6e0       ?run@?$assign_DefaultTraversal_CompleteUnrolling@V?$Matrix@M$02$02$0A@$02$02@Eigen@@V?$CwiseNullaryOp@U?$scalar_identity_op@M@internal@Eigen@@V?$Matrix@M$02$02$0A@$02$02@3@@2@$03$08@internal@Eigen@@SAXAAV?$Matrix@M$02$02$0A@$02$02@3@ABV?$CwiseNullaryOp@U?$scalar_identity_op@M@internal@Eigen@@V?$Matrix@M$02$02$0A@$02$02@3@@3@@Z 0045c6e0 f i fluidsim.obj
 0002:0002a740       ?run@?$assign_DefaultTraversal_CompleteUnrolling@V?$Matrix@M$02$02$0A@$02$02@Eigen@@V?$CwiseNullaryOp@U?$scalar_identity_op@M@internal@Eigen@@V?$Matrix@M$02$02$0A@$02$02@3@@2@$04$08@internal@Eigen@@SAXAAV?$Matrix@M$02$02$0A@$02$02@3@ABV?$CwiseNullaryOp@U?$scalar_identity_op@M@internal@Eigen@@V?$Matrix@M$02$02$0A@$02$02@3@@3@@Z 0045c740 f i fluidsim.obj
 0002:0002a7a0       ?run@?$assign_DefaultTraversal_CompleteUnrolling@V?$Matrix@M$02$02$0A@$02$02@Eigen@@V?$CwiseNullaryOp@U?$scalar_identity_op@M@internal@Eigen@@V?$Matrix@M$02$02$0A@$02$02@3@@2@$05$08@internal@Eigen@@SAXAAV?$Matrix@M$02$02$0A@$02$02@3@ABV?$CwiseNullaryOp@U?$scalar_identity_op@M@internal@Eigen@@V?$Matrix@M$02$02$0A@$02$02@3@@3@@Z 0045c7a0 f i fluidsim.obj
 0002:0002a800       ?run@?$assign_DefaultTraversal_CompleteUnrolling@V?$Matrix@M$02$02$0A@$02$02@Eigen@@V?$CwiseNullaryOp@U?$scalar_identity_op@M@internal@Eigen@@V?$Matrix@M$02$02$0A@$02$02@3@@2@$06$08@internal@Eigen@@SAXAAV?$Matrix@M$02$02$0A@$02$02@3@ABV?$CwiseNullaryOp@U?$scalar_identity_op@M@internal@Eigen@@V?$Matrix@M$02$02$0A@$02$02@3@@3@@Z 0045c800 f i fluidsim.obj
 0002:0002a860       ?run@?$assign_DefaultTraversal_CompleteUnrolling@V?$Matrix@M$02$02$0A@$02$02@Eigen@@V?$CwiseNullaryOp@U?$scalar_identity_op@M@internal@Eigen@@V?$Matrix@M$02$02$0A@$02$02@3@@2@$07$08@internal@Eigen@@SAXAAV?$Matrix@M$02$02$0A@$02$02@3@ABV?$CwiseNullaryOp@U?$scalar_identity_op@M@internal@Eigen@@V?$Matrix@M$02$02$0A@$02$02@3@@3@@Z 0045c860 f i fluidsim.obj
 0002:0002a8c0       ?run@?$assign_DefaultTraversal_CompleteUnrolling@V?$Matrix@M$02$02$0A@$02$02@Eigen@@V?$CwiseNullaryOp@U?$scalar_identity_op@M@internal@Eigen@@V?$Matrix@M$02$02$0A@$02$02@3@@2@$08$08@internal@Eigen@@SAXAAV?$Matrix@M$02$02$0A@$02$02@3@ABV?$CwiseNullaryOp@U?$scalar_identity_op@M@internal@Eigen@@V?$Matrix@M$02$02$0A@$02$02@3@@3@@Z 0045c8c0 f i fluidsim.obj
 0002:0002a8e0       ?run@?$assign_DefaultTraversal_CompleteUnrolling@V?$Matrix@M$02$02$0A@$02$02@Eigen@@V?$CwiseNullaryOp@U?$scalar_identity_op@M@internal@Eigen@@V?$Matrix@M$02$02$0A@$02$02@3@@2@$0A@$08@internal@Eigen@@SAXAAV?$Matrix@M$02$02$0A@$02$02@3@ABV?$CwiseNullaryOp@U?$scalar_identity_op@M@internal@Eigen@@V?$Matrix@M$02$02$0A@$02$02@3@@3@@Z 0045c8e0 f i fluidsim.obj
 0002:0002a940       ?run@?$assign_DefaultTraversal_CompleteUnrolling@V?$Matrix@M$02$02$0A@$02$02@Eigen@@V?$Matrix@M$02$02$00$02$02@2@$00$08@internal@Eigen@@SAXAAV?$Matrix@M$02$02$0A@$02$02@3@ABV?$Matrix@M$02$02$00$02$02@3@@Z 0045c940 f i fluidsim.obj
 0002:0002a980       ?run@?$assign_DefaultTraversal_CompleteUnrolling@V?$Matrix@M$02$02$0A@$02$02@Eigen@@V?$Matrix@M$02$02$00$02$02@2@$01$08@internal@Eigen@@SAXAAV?$Matrix@M$02$02$0A@$02$02@3@ABV?$Matrix@M$02$02$00$02$02@3@@Z 0045c980 f i fluidsim.obj
 0002:0002a9c0       ?run@?$assign_DefaultTraversal_CompleteUnrolling@V?$Matrix@M$02$02$0A@$02$02@Eigen@@V?$Matrix@M$02$02$00$02$02@2@$02$08@internal@Eigen@@SAXAAV?$Matrix@M$02$02$0A@$02$02@3@ABV?$Matrix@M$02$02$00$02$02@3@@Z 0045c9c0 f i fluidsim.obj
 0002:0002aa00       ?run@?$assign_DefaultTraversal_CompleteUnrolling@V?$Matrix@M$02$02$0A@$02$02@Eigen@@V?$Matrix@M$02$02$00$02$02@2@$03$08@internal@Eigen@@SAXAAV?$Matrix@M$02$02$0A@$02$02@3@ABV?$Matrix@M$02$02$00$02$02@3@@Z 0045ca00 f i fluidsim.obj
 0002:0002aa40       ?run@?$assign_DefaultTraversal_CompleteUnrolling@V?$Matrix@M$02$02$0A@$02$02@Eigen@@V?$Matrix@M$02$02$00$02$02@2@$04$08@internal@Eigen@@SAXAAV?$Matrix@M$02$02$0A@$02$02@3@ABV?$Matrix@M$02$02$00$02$02@3@@Z 0045ca40 f i fluidsim.obj
 0002:0002aa80       ?run@?$assign_DefaultTraversal_CompleteUnrolling@V?$Matrix@M$02$02$0A@$02$02@Eigen@@V?$Matrix@M$02$02$00$02$02@2@$05$08@internal@Eigen@@SAXAAV?$Matrix@M$02$02$0A@$02$02@3@ABV?$Matrix@M$02$02$00$02$02@3@@Z 0045ca80 f i fluidsim.obj
 0002:0002aac0       ?run@?$assign_DefaultTraversal_CompleteUnrolling@V?$Matrix@M$02$02$0A@$02$02@Eigen@@V?$Matrix@M$02$02$00$02$02@2@$06$08@internal@Eigen@@SAXAAV?$Matrix@M$02$02$0A@$02$02@3@ABV?$Matrix@M$02$02$00$02$02@3@@Z 0045cac0 f i fluidsim.obj
 0002:0002ab00       ?run@?$assign_DefaultTraversal_CompleteUnrolling@V?$Matrix@M$02$02$0A@$02$02@Eigen@@V?$Matrix@M$02$02$00$02$02@2@$07$08@internal@Eigen@@SAXAAV?$Matrix@M$02$02$0A@$02$02@3@ABV?$Matrix@M$02$02$00$02$02@3@@Z 0045cb00 f i fluidsim.obj
 0002:0002ab40       ?run@?$assign_DefaultTraversal_CompleteUnrolling@V?$Matrix@M$02$02$0A@$02$02@Eigen@@V?$Matrix@M$02$02$00$02$02@2@$08$08@internal@Eigen@@SAXAAV?$Matrix@M$02$02$0A@$02$02@3@ABV?$Matrix@M$02$02$00$02$02@3@@Z 0045cb40 f i fluidsim.obj
 0002:0002ab60       ?run@?$assign_DefaultTraversal_CompleteUnrolling@V?$Matrix@M$02$02$0A@$02$02@Eigen@@V?$Matrix@M$02$02$00$02$02@2@$0A@$08@internal@Eigen@@SAXAAV?$Matrix@M$02$02$0A@$02$02@3@ABV?$Matrix@M$02$02$00$02$02@3@@Z 0045cb60 f i fluidsim.obj
 0002:0002aba0       ?run@?$assign_DefaultTraversal_CompleteUnrolling@V?$SelfCwiseBinaryOp@U?$scalar_sum_op@M@internal@Eigen@@V?$Matrix@M$02$02$0A@$02$02@3@V?$CoeffBasedProduct@$$CBV?$CwiseUnaryOp@U?$scalar_multiple_op@M@internal@Eigen@@$$CBV?$Matrix@M$02$00$0A@$02$00@3@@Eigen@@$$CBV?$Transpose@V?$Matrix@M$02$00$0A@$02$00@Eigen@@@2@$0BAA@@3@@Eigen@@V?$CoeffBasedProduct@$$CBV?$CwiseUnaryOp@U?$scalar_multiple_op@M@internal@Eigen@@$$CBV?$Matrix@M$02$00$0A@$02$00@3@@Eigen@@$$CBV?$Transpose@V?$Matrix@M$02$00$0A@$02$00@Eigen@@@2@$0BAA@@2@$00$08@internal@Eigen@@SAXAAV?$SelfCwiseBinaryOp@U?$scalar_sum_op@M@internal@Eigen@@V?$Matrix@M$02$02$0A@$02$02@3@V?$CoeffBasedProduct@$$CBV?$CwiseUnaryOp@U?$scalar_multiple_op@M@internal@Eigen@@$$CBV?$Matrix@M$02$00$0A@$02$00@3@@Eigen@@$$CBV?$Transpose@V?$Matrix@M$02$00$0A@$02$00@Eigen@@@2@$0BAA@@3@@3@ABV?$CoeffBasedProduct@$$CBV?$CwiseUnaryOp@U?$scalar_multiple_op@M@internal@Eigen@@$$CBV?$Matrix@M$02$00$0A@$02$00@3@@Eigen@@$$CBV?$Transpose@V?$Matrix@M$02$00$0A@$02$00@Eigen@@@2@$0BAA@@3@@Z 0045cba0 f i fluidsim.obj
 0002:0002ac00       ?run@?$assign_DefaultTraversal_CompleteUnrolling@V?$SelfCwiseBinaryOp@U?$scalar_sum_op@M@internal@Eigen@@V?$Matrix@M$02$02$0A@$02$02@3@V?$CoeffBasedProduct@$$CBV?$CwiseUnaryOp@U?$scalar_multiple_op@M@internal@Eigen@@$$CBV?$Matrix@M$02$00$0A@$02$00@3@@Eigen@@$$CBV?$Transpose@V?$Matrix@M$02$00$0A@$02$00@Eigen@@@2@$0BAA@@3@@Eigen@@V?$CoeffBasedProduct@$$CBV?$CwiseUnaryOp@U?$scalar_multiple_op@M@internal@Eigen@@$$CBV?$Matrix@M$02$00$0A@$02$00@3@@Eigen@@$$CBV?$Transpose@V?$Matrix@M$02$00$0A@$02$00@Eigen@@@2@$0BAA@@2@$01$08@internal@Eigen@@SAXAAV?$SelfCwiseBinaryOp@U?$scalar_sum_op@M@internal@Eigen@@V?$Matrix@M$02$02$0A@$02$02@3@V?$CoeffBasedProduct@$$CBV?$CwiseUnaryOp@U?$scalar_multiple_op@M@internal@Eigen@@$$CBV?$Matrix@M$02$00$0A@$02$00@3@@Eigen@@$$CBV?$Transpose@V?$Matrix@M$02$00$0A@$02$00@Eigen@@@2@$0BAA@@3@@3@ABV?$CoeffBasedProduct@$$CBV?$CwiseUnaryOp@U?$scalar_multiple_op@M@internal@Eigen@@$$CBV?$Matrix@M$02$00$0A@$02$00@3@@Eigen@@$$CBV?$Transpose@V?$Matrix@M$02$00$0A@$02$00@Eigen@@@2@$0BAA@@3@@Z 0045cc00 f i fluidsim.obj
 0002:0002ac60       ?run@?$assign_DefaultTraversal_CompleteUnrolling@V?$SelfCwiseBinaryOp@U?$scalar_sum_op@M@internal@Eigen@@V?$Matrix@M$02$02$0A@$02$02@3@V?$CoeffBasedProduct@$$CBV?$CwiseUnaryOp@U?$scalar_multiple_op@M@internal@Eigen@@$$CBV?$Matrix@M$02$00$0A@$02$00@3@@Eigen@@$$CBV?$Transpose@V?$Matrix@M$02$00$0A@$02$00@Eigen@@@2@$0BAA@@3@@Eigen@@V?$CoeffBasedProduct@$$CBV?$CwiseUnaryOp@U?$scalar_multiple_op@M@internal@Eigen@@$$CBV?$Matrix@M$02$00$0A@$02$00@3@@Eigen@@$$CBV?$Transpose@V?$Matrix@M$02$00$0A@$02$00@Eigen@@@2@$0BAA@@2@$02$08@internal@Eigen@@SAXAAV?$SelfCwiseBinaryOp@U?$scalar_sum_op@M@internal@Eigen@@V?$Matrix@M$02$02$0A@$02$02@3@V?$CoeffBasedProduct@$$CBV?$CwiseUnaryOp@U?$scalar_multiple_op@M@internal@Eigen@@$$CBV?$Matrix@M$02$00$0A@$02$00@3@@Eigen@@$$CBV?$Transpose@V?$Matrix@M$02$00$0A@$02$00@Eigen@@@2@$0BAA@@3@@3@ABV?$CoeffBasedProduct@$$CBV?$CwiseUnaryOp@U?$scalar_multiple_op@M@internal@Eigen@@$$CBV?$Matrix@M$02$00$0A@$02$00@3@@Eigen@@$$CBV?$Transpose@V?$Matrix@M$02$00$0A@$02$00@Eigen@@@2@$0BAA@@3@@Z 0045cc60 f i fluidsim.obj
 0002:0002acc0       ?run@?$assign_DefaultTraversal_CompleteUnrolling@V?$SelfCwiseBinaryOp@U?$scalar_sum_op@M@internal@Eigen@@V?$Matrix@M$02$02$0A@$02$02@3@V?$CoeffBasedProduct@$$CBV?$CwiseUnaryOp@U?$scalar_multiple_op@M@internal@Eigen@@$$CBV?$Matrix@M$02$00$0A@$02$00@3@@Eigen@@$$CBV?$Transpose@V?$Matrix@M$02$00$0A@$02$00@Eigen@@@2@$0BAA@@3@@Eigen@@V?$CoeffBasedProduct@$$CBV?$CwiseUnaryOp@U?$scalar_multiple_op@M@internal@Eigen@@$$CBV?$Matrix@M$02$00$0A@$02$00@3@@Eigen@@$$CBV?$Transpose@V?$Matrix@M$02$00$0A@$02$00@Eigen@@@2@$0BAA@@2@$03$08@internal@Eigen@@SAXAAV?$SelfCwiseBinaryOp@U?$scalar_sum_op@M@internal@Eigen@@V?$Matrix@M$02$02$0A@$02$02@3@V?$CoeffBasedProduct@$$CBV?$CwiseUnaryOp@U?$scalar_multiple_op@M@internal@Eigen@@$$CBV?$Matrix@M$02$00$0A@$02$00@3@@Eigen@@$$CBV?$Transpose@V?$Matrix@M$02$00$0A@$02$00@Eigen@@@2@$0BAA@@3@@3@ABV?$CoeffBasedProduct@$$CBV?$CwiseUnaryOp@U?$scalar_multiple_op@M@internal@Eigen@@$$CBV?$Matrix@M$02$00$0A@$02$00@3@@Eigen@@$$CBV?$Transpose@V?$Matrix@M$02$00$0A@$02$00@Eigen@@@2@$0BAA@@3@@Z 0045ccc0 f i fluidsim.obj
 0002:0002ad20       ?run@?$assign_DefaultTraversal_CompleteUnrolling@V?$SelfCwiseBinaryOp@U?$scalar_sum_op@M@internal@Eigen@@V?$Matrix@M$02$02$0A@$02$02@3@V?$CoeffBasedProduct@$$CBV?$CwiseUnaryOp@U?$scalar_multiple_op@M@internal@Eigen@@$$CBV?$Matrix@M$02$00$0A@$02$00@3@@Eigen@@$$CBV?$Transpose@V?$Matrix@M$02$00$0A@$02$00@Eigen@@@2@$0BAA@@3@@Eigen@@V?$CoeffBasedProduct@$$CBV?$CwiseUnaryOp@U?$scalar_multiple_op@M@internal@Eigen@@$$CBV?$Matrix@M$02$00$0A@$02$00@3@@Eigen@@$$CBV?$Transpose@V?$Matrix@M$02$00$0A@$02$00@Eigen@@@2@$0BAA@@2@$04$08@internal@Eigen@@SAXAAV?$SelfCwiseBinaryOp@U?$scalar_sum_op@M@internal@Eigen@@V?$Matrix@M$02$02$0A@$02$02@3@V?$CoeffBasedProduct@$$CBV?$CwiseUnaryOp@U?$scalar_multiple_op@M@internal@Eigen@@$$CBV?$Matrix@M$02$00$0A@$02$00@3@@Eigen@@$$CBV?$Transpose@V?$Matrix@M$02$00$0A@$02$00@Eigen@@@2@$0BAA@@3@@3@ABV?$CoeffBasedProduct@$$CBV?$CwiseUnaryOp@U?$scalar_multiple_op@M@internal@Eigen@@$$CBV?$Matrix@M$02$00$0A@$02$00@3@@Eigen@@$$CBV?$Transpose@V?$Matrix@M$02$00$0A@$02$00@Eigen@@@2@$0BAA@@3@@Z 0045cd20 f i fluidsim.obj
 0002:0002ad80       ?run@?$assign_DefaultTraversal_CompleteUnrolling@V?$SelfCwiseBinaryOp@U?$scalar_sum_op@M@internal@Eigen@@V?$Matrix@M$02$02$0A@$02$02@3@V?$CoeffBasedProduct@$$CBV?$CwiseUnaryOp@U?$scalar_multiple_op@M@internal@Eigen@@$$CBV?$Matrix@M$02$00$0A@$02$00@3@@Eigen@@$$CBV?$Transpose@V?$Matrix@M$02$00$0A@$02$00@Eigen@@@2@$0BAA@@3@@Eigen@@V?$CoeffBasedProduct@$$CBV?$CwiseUnaryOp@U?$scalar_multiple_op@M@internal@Eigen@@$$CBV?$Matrix@M$02$00$0A@$02$00@3@@Eigen@@$$CBV?$Transpose@V?$Matrix@M$02$00$0A@$02$00@Eigen@@@2@$0BAA@@2@$05$08@internal@Eigen@@SAXAAV?$SelfCwiseBinaryOp@U?$scalar_sum_op@M@internal@Eigen@@V?$Matrix@M$02$02$0A@$02$02@3@V?$CoeffBasedProduct@$$CBV?$CwiseUnaryOp@U?$scalar_multiple_op@M@internal@Eigen@@$$CBV?$Matrix@M$02$00$0A@$02$00@3@@Eigen@@$$CBV?$Transpose@V?$Matrix@M$02$00$0A@$02$00@Eigen@@@2@$0BAA@@3@@3@ABV?$CoeffBasedProduct@$$CBV?$CwiseUnaryOp@U?$scalar_multiple_op@M@internal@Eigen@@$$CBV?$Matrix@M$02$00$0A@$02$00@3@@Eigen@@$$CBV?$Transpose@V?$Matrix@M$02$00$0A@$02$00@Eigen@@@2@$0BAA@@3@@Z 0045cd80 f i fluidsim.obj
 0002:0002ade0       ?run@?$assign_DefaultTraversal_CompleteUnrolling@V?$SelfCwiseBinaryOp@U?$scalar_sum_op@M@internal@Eigen@@V?$Matrix@M$02$02$0A@$02$02@3@V?$CoeffBasedProduct@$$CBV?$CwiseUnaryOp@U?$scalar_multiple_op@M@internal@Eigen@@$$CBV?$Matrix@M$02$00$0A@$02$00@3@@Eigen@@$$CBV?$Transpose@V?$Matrix@M$02$00$0A@$02$00@Eigen@@@2@$0BAA@@3@@Eigen@@V?$CoeffBasedProduct@$$CBV?$CwiseUnaryOp@U?$scalar_multiple_op@M@internal@Eigen@@$$CBV?$Matrix@M$02$00$0A@$02$00@3@@Eigen@@$$CBV?$Transpose@V?$Matrix@M$02$00$0A@$02$00@Eigen@@@2@$0BAA@@2@$06$08@internal@Eigen@@SAXAAV?$SelfCwiseBinaryOp@U?$scalar_sum_op@M@internal@Eigen@@V?$Matrix@M$02$02$0A@$02$02@3@V?$CoeffBasedProduct@$$CBV?$CwiseUnaryOp@U?$scalar_multiple_op@M@internal@Eigen@@$$CBV?$Matrix@M$02$00$0A@$02$00@3@@Eigen@@$$CBV?$Transpose@V?$Matrix@M$02$00$0A@$02$00@Eigen@@@2@$0BAA@@3@@3@ABV?$CoeffBasedProduct@$$CBV?$CwiseUnaryOp@U?$scalar_multiple_op@M@internal@Eigen@@$$CBV?$Matrix@M$02$00$0A@$02$00@3@@Eigen@@$$CBV?$Transpose@V?$Matrix@M$02$00$0A@$02$00@Eigen@@@2@$0BAA@@3@@Z 0045cde0 f i fluidsim.obj
 0002:0002ae40       ?run@?$assign_DefaultTraversal_CompleteUnrolling@V?$SelfCwiseBinaryOp@U?$scalar_sum_op@M@internal@Eigen@@V?$Matrix@M$02$02$0A@$02$02@3@V?$CoeffBasedProduct@$$CBV?$CwiseUnaryOp@U?$scalar_multiple_op@M@internal@Eigen@@$$CBV?$Matrix@M$02$00$0A@$02$00@3@@Eigen@@$$CBV?$Transpose@V?$Matrix@M$02$00$0A@$02$00@Eigen@@@2@$0BAA@@3@@Eigen@@V?$CoeffBasedProduct@$$CBV?$CwiseUnaryOp@U?$scalar_multiple_op@M@internal@Eigen@@$$CBV?$Matrix@M$02$00$0A@$02$00@3@@Eigen@@$$CBV?$Transpose@V?$Matrix@M$02$00$0A@$02$00@Eigen@@@2@$0BAA@@2@$07$08@internal@Eigen@@SAXAAV?$SelfCwiseBinaryOp@U?$scalar_sum_op@M@internal@Eigen@@V?$Matrix@M$02$02$0A@$02$02@3@V?$CoeffBasedProduct@$$CBV?$CwiseUnaryOp@U?$scalar_multiple_op@M@internal@Eigen@@$$CBV?$Matrix@M$02$00$0A@$02$00@3@@Eigen@@$$CBV?$Transpose@V?$Matrix@M$02$00$0A@$02$00@Eigen@@@2@$0BAA@@3@@3@ABV?$CoeffBasedProduct@$$CBV?$CwiseUnaryOp@U?$scalar_multiple_op@M@internal@Eigen@@$$CBV?$Matrix@M$02$00$0A@$02$00@3@@Eigen@@$$CBV?$Transpose@V?$Matrix@M$02$00$0A@$02$00@Eigen@@@2@$0BAA@@3@@Z 0045ce40 f i fluidsim.obj
 0002:0002aea0       ?run@?$assign_DefaultTraversal_CompleteUnrolling@V?$SelfCwiseBinaryOp@U?$scalar_sum_op@M@internal@Eigen@@V?$Matrix@M$02$02$0A@$02$02@3@V?$CoeffBasedProduct@$$CBV?$CwiseUnaryOp@U?$scalar_multiple_op@M@internal@Eigen@@$$CBV?$Matrix@M$02$00$0A@$02$00@3@@Eigen@@$$CBV?$Transpose@V?$Matrix@M$02$00$0A@$02$00@Eigen@@@2@$0BAA@@3@@Eigen@@V?$CoeffBasedProduct@$$CBV?$CwiseUnaryOp@U?$scalar_multiple_op@M@internal@Eigen@@$$CBV?$Matrix@M$02$00$0A@$02$00@3@@Eigen@@$$CBV?$Transpose@V?$Matrix@M$02$00$0A@$02$00@Eigen@@@2@$0BAA@@2@$08$08@internal@Eigen@@SAXAAV?$SelfCwiseBinaryOp@U?$scalar_sum_op@M@internal@Eigen@@V?$Matrix@M$02$02$0A@$02$02@3@V?$CoeffBasedProduct@$$CBV?$CwiseUnaryOp@U?$scalar_multiple_op@M@internal@Eigen@@$$CBV?$Matrix@M$02$00$0A@$02$00@3@@Eigen@@$$CBV?$Transpose@V?$Matrix@M$02$00$0A@$02$00@Eigen@@@2@$0BAA@@3@@3@ABV?$CoeffBasedProduct@$$CBV?$CwiseUnaryOp@U?$scalar_multiple_op@M@internal@Eigen@@$$CBV?$Matrix@M$02$00$0A@$02$00@3@@Eigen@@$$CBV?$Transpose@V?$Matrix@M$02$00$0A@$02$00@Eigen@@@2@$0BAA@@3@@Z 0045cea0 f i fluidsim.obj
 0002:0002aec0       ?run@?$assign_DefaultTraversal_CompleteUnrolling@V?$SelfCwiseBinaryOp@U?$scalar_sum_op@M@internal@Eigen@@V?$Matrix@M$02$02$0A@$02$02@3@V?$CoeffBasedProduct@$$CBV?$CwiseUnaryOp@U?$scalar_multiple_op@M@internal@Eigen@@$$CBV?$Matrix@M$02$00$0A@$02$00@3@@Eigen@@$$CBV?$Transpose@V?$Matrix@M$02$00$0A@$02$00@Eigen@@@2@$0BAA@@3@@Eigen@@V?$CoeffBasedProduct@$$CBV?$CwiseUnaryOp@U?$scalar_multiple_op@M@internal@Eigen@@$$CBV?$Matrix@M$02$00$0A@$02$00@3@@Eigen@@$$CBV?$Transpose@V?$Matrix@M$02$00$0A@$02$00@Eigen@@@2@$0BAA@@2@$0A@$08@internal@Eigen@@SAXAAV?$SelfCwiseBinaryOp@U?$scalar_sum_op@M@internal@Eigen@@V?$Matrix@M$02$02$0A@$02$02@3@V?$CoeffBasedProduct@$$CBV?$CwiseUnaryOp@U?$scalar_multiple_op@M@internal@Eigen@@$$CBV?$Matrix@M$02$00$0A@$02$00@3@@Eigen@@$$CBV?$Transpose@V?$Matrix@M$02$00$0A@$02$00@Eigen@@@2@$0BAA@@3@@3@ABV?$CoeffBasedProduct@$$CBV?$CwiseUnaryOp@U?$scalar_multiple_op@M@internal@Eigen@@$$CBV?$Matrix@M$02$00$0A@$02$00@3@@Eigen@@$$CBV?$Transpose@V?$Matrix@M$02$00$0A@$02$00@Eigen@@@2@$0BAA@@3@@Z 0045cec0 f i fluidsim.obj
 0002:0002af20       ?run@?$assign_LinearTraversal_CompleteUnrolling@V?$Block@V?$Matrix@M$02$02$0A@$02$02@Eigen@@$00$02$0A@@Eigen@@V?$Transpose@$$CBV?$CwiseUnaryOp@U?$scalar_multiple_op@M@internal@Eigen@@$$CBV?$Matrix@M$02$00$0A@$02$00@3@@Eigen@@@2@$00$02@internal@Eigen@@SAXAAV?$Block@V?$Matrix@M$02$02$0A@$02$02@Eigen@@$00$02$0A@@3@ABV?$Transpose@$$CBV?$CwiseUnaryOp@U?$scalar_multiple_op@M@internal@Eigen@@$$CBV?$Matrix@M$02$00$0A@$02$00@3@@Eigen@@@3@@Z 0045cf20 f i fluidsim.obj
 0002:0002af60       ?run@?$assign_LinearTraversal_CompleteUnrolling@V?$Block@V?$Matrix@M$02$02$0A@$02$02@Eigen@@$00$02$0A@@Eigen@@V?$Transpose@$$CBV?$CwiseUnaryOp@U?$scalar_multiple_op@M@internal@Eigen@@$$CBV?$Matrix@M$02$00$0A@$02$00@3@@Eigen@@@2@$01$02@internal@Eigen@@SAXAAV?$Block@V?$Matrix@M$02$02$0A@$02$02@Eigen@@$00$02$0A@@3@ABV?$Transpose@$$CBV?$CwiseUnaryOp@U?$scalar_multiple_op@M@internal@Eigen@@$$CBV?$Matrix@M$02$00$0A@$02$00@3@@Eigen@@@3@@Z 0045cf60 f i fluidsim.obj
 0002:0002afa0       ?run@?$assign_LinearTraversal_CompleteUnrolling@V?$Block@V?$Matrix@M$02$02$0A@$02$02@Eigen@@$00$02$0A@@Eigen@@V?$Transpose@$$CBV?$CwiseUnaryOp@U?$scalar_multiple_op@M@internal@Eigen@@$$CBV?$Matrix@M$02$00$0A@$02$00@3@@Eigen@@@2@$02$02@internal@Eigen@@SAXAAV?$Block@V?$Matrix@M$02$02$0A@$02$02@Eigen@@$00$02$0A@@3@ABV?$Transpose@$$CBV?$CwiseUnaryOp@U?$scalar_multiple_op@M@internal@Eigen@@$$CBV?$Matrix@M$02$00$0A@$02$00@3@@Eigen@@@3@@Z 0045cfa0 f i fluidsim.obj
 0002:0002afc0       ?run@?$assign_LinearTraversal_CompleteUnrolling@V?$Block@V?$Matrix@M$02$02$0A@$02$02@Eigen@@$00$02$0A@@Eigen@@V?$Transpose@$$CBV?$CwiseUnaryOp@U?$scalar_multiple_op@M@internal@Eigen@@$$CBV?$Matrix@M$02$00$0A@$02$00@3@@Eigen@@@2@$0A@$02@internal@Eigen@@SAXAAV?$Block@V?$Matrix@M$02$02$0A@$02$02@Eigen@@$00$02$0A@@3@ABV?$Transpose@$$CBV?$CwiseUnaryOp@U?$scalar_multiple_op@M@internal@Eigen@@$$CBV?$Matrix@M$02$00$0A@$02$00@3@@Eigen@@@3@@Z 0045cfc0 f i fluidsim.obj
 0002:0002b000       ?run@?$assign_LinearTraversal_CompleteUnrolling@V?$Matrix@M$02$00$0A@$02$00@Eigen@@V12@$00$02@internal@Eigen@@SAXAAV?$Matrix@M$02$00$0A@$02$00@3@ABV43@@Z 0045d000 f i fluidsim.obj
 0002:0002b040       ?run@?$assign_LinearTraversal_CompleteUnrolling@V?$Matrix@M$02$00$0A@$02$00@Eigen@@V12@$01$02@internal@Eigen@@SAXAAV?$Matrix@M$02$00$0A@$02$00@3@ABV43@@Z 0045d040 f i fluidsim.obj
 0002:0002b080       ?run@?$assign_LinearTraversal_CompleteUnrolling@V?$Matrix@M$02$00$0A@$02$00@Eigen@@V12@$02$02@internal@Eigen@@SAXAAV?$Matrix@M$02$00$0A@$02$00@3@ABV43@@Z 0045d080 f i fluidsim.obj
 0002:0002b0a0       ?run@?$assign_LinearTraversal_CompleteUnrolling@V?$Matrix@M$02$00$0A@$02$00@Eigen@@V12@$0A@$02@internal@Eigen@@SAXAAV?$Matrix@M$02$00$0A@$02$00@3@ABV43@@Z 0045d0a0 f i fluidsim.obj
 0002:0002b0e0       ?run@?$assign_LinearTraversal_CompleteUnrolling@V?$Matrix@M$02$00$0A@$02$00@Eigen@@V?$CwiseNullaryOp@U?$scalar_constant_op@M@internal@Eigen@@V?$Matrix@M$02$00$0A@$02$00@3@@2@$00$02@internal@Eigen@@SAXAAV?$Matrix@M$02$00$0A@$02$00@3@ABV?$CwiseNullaryOp@U?$scalar_constant_op@M@internal@Eigen@@V?$Matrix@M$02$00$0A@$02$00@3@@3@@Z 0045d0e0 f i fluidsim.obj
 0002:0002b140       ?run@?$assign_LinearTraversal_CompleteUnrolling@V?$Matrix@M$02$00$0A@$02$00@Eigen@@V?$CwiseNullaryOp@U?$scalar_constant_op@M@internal@Eigen@@V?$Matrix@M$02$00$0A@$02$00@3@@2@$01$02@internal@Eigen@@SAXAAV?$Matrix@M$02$00$0A@$02$00@3@ABV?$CwiseNullaryOp@U?$scalar_constant_op@M@internal@Eigen@@V?$Matrix@M$02$00$0A@$02$00@3@@3@@Z 0045d140 f i fluidsim.obj
 0002:0002b1a0       ?run@?$assign_LinearTraversal_CompleteUnrolling@V?$Matrix@M$02$00$0A@$02$00@Eigen@@V?$CwiseNullaryOp@U?$scalar_constant_op@M@internal@Eigen@@V?$Matrix@M$02$00$0A@$02$00@3@@2@$02$02@internal@Eigen@@SAXAAV?$Matrix@M$02$00$0A@$02$00@3@ABV?$CwiseNullaryOp@U?$scalar_constant_op@M@internal@Eigen@@V?$Matrix@M$02$00$0A@$02$00@3@@3@@Z 0045d1a0 f i fluidsim.obj
 0002:0002b1c0       ?run@?$assign_LinearTraversal_CompleteUnrolling@V?$Matrix@M$02$00$0A@$02$00@Eigen@@V?$CwiseNullaryOp@U?$scalar_constant_op@M@internal@Eigen@@V?$Matrix@M$02$00$0A@$02$00@3@@2@$0A@$02@internal@Eigen@@SAXAAV?$Matrix@M$02$00$0A@$02$00@3@ABV?$CwiseNullaryOp@U?$scalar_constant_op@M@internal@Eigen@@V?$Matrix@M$02$00$0A@$02$00@3@@3@@Z 0045d1c0 f i fluidsim.obj
 0002:0002b220       ?run@?$assign_LinearTraversal_CompleteUnrolling@V?$Matrix@M$02$02$0A@$02$02@Eigen@@V12@$00$08@internal@Eigen@@SAXAAV?$Matrix@M$02$02$0A@$02$02@3@ABV43@@Z 0045d220 f i fluidsim.obj
 0002:0002b260       ?run@?$assign_LinearTraversal_CompleteUnrolling@V?$Matrix@M$02$02$0A@$02$02@Eigen@@V12@$01$08@internal@Eigen@@SAXAAV?$Matrix@M$02$02$0A@$02$02@3@ABV43@@Z 0045d260 f i fluidsim.obj
 0002:0002b2a0       ?run@?$assign_LinearTraversal_CompleteUnrolling@V?$Matrix@M$02$02$0A@$02$02@Eigen@@V12@$02$08@internal@Eigen@@SAXAAV?$Matrix@M$02$02$0A@$02$02@3@ABV43@@Z 0045d2a0 f i fluidsim.obj
 0002:0002b2e0       ?run@?$assign_LinearTraversal_CompleteUnrolling@V?$Matrix@M$02$02$0A@$02$02@Eigen@@V12@$03$08@internal@Eigen@@SAXAAV?$Matrix@M$02$02$0A@$02$02@3@ABV43@@Z 0045d2e0 f i fluidsim.obj
 0002:0002b320       ?run@?$assign_LinearTraversal_CompleteUnrolling@V?$Matrix@M$02$02$0A@$02$02@Eigen@@V12@$04$08@internal@Eigen@@SAXAAV?$Matrix@M$02$02$0A@$02$02@3@ABV43@@Z 0045d320 f i fluidsim.obj
 0002:0002b360       ?run@?$assign_LinearTraversal_CompleteUnrolling@V?$Matrix@M$02$02$0A@$02$02@Eigen@@V12@$05$08@internal@Eigen@@SAXAAV?$Matrix@M$02$02$0A@$02$02@3@ABV43@@Z 0045d360 f i fluidsim.obj
 0002:0002b3a0       ?run@?$assign_LinearTraversal_CompleteUnrolling@V?$Matrix@M$02$02$0A@$02$02@Eigen@@V12@$06$08@internal@Eigen@@SAXAAV?$Matrix@M$02$02$0A@$02$02@3@ABV43@@Z 0045d3a0 f i fluidsim.obj
 0002:0002b3e0       ?run@?$assign_LinearTraversal_CompleteUnrolling@V?$Matrix@M$02$02$0A@$02$02@Eigen@@V12@$07$08@internal@Eigen@@SAXAAV?$Matrix@M$02$02$0A@$02$02@3@ABV43@@Z 0045d3e0 f i fluidsim.obj
 0002:0002b420       ?run@?$assign_LinearTraversal_CompleteUnrolling@V?$Matrix@M$02$02$0A@$02$02@Eigen@@V12@$08$08@internal@Eigen@@SAXAAV?$Matrix@M$02$02$0A@$02$02@3@ABV43@@Z 0045d420 f i fluidsim.obj
 0002:0002b440       ?run@?$assign_LinearTraversal_CompleteUnrolling@V?$Matrix@M$02$02$0A@$02$02@Eigen@@V12@$0A@$08@internal@Eigen@@SAXAAV?$Matrix@M$02$02$0A@$02$02@3@ABV43@@Z 0045d440 f i fluidsim.obj
 0002:0002b480       ?run@?$assign_LinearTraversal_CompleteUnrolling@V?$Matrix@M$02$02$0A@$02$02@Eigen@@V?$CwiseNullaryOp@U?$scalar_constant_op@M@internal@Eigen@@V?$Matrix@M$02$02$0A@$02$02@3@@2@$00$08@internal@Eigen@@SAXAAV?$Matrix@M$02$02$0A@$02$02@3@ABV?$CwiseNullaryOp@U?$scalar_constant_op@M@internal@Eigen@@V?$Matrix@M$02$02$0A@$02$02@3@@3@@Z 0045d480 f i fluidsim.obj
 0002:0002b4e0       ?run@?$assign_LinearTraversal_CompleteUnrolling@V?$Matrix@M$02$02$0A@$02$02@Eigen@@V?$CwiseNullaryOp@U?$scalar_constant_op@M@internal@Eigen@@V?$Matrix@M$02$02$0A@$02$02@3@@2@$01$08@internal@Eigen@@SAXAAV?$Matrix@M$02$02$0A@$02$02@3@ABV?$CwiseNullaryOp@U?$scalar_constant_op@M@internal@Eigen@@V?$Matrix@M$02$02$0A@$02$02@3@@3@@Z 0045d4e0 f i fluidsim.obj
 0002:0002b540       ?run@?$assign_LinearTraversal_CompleteUnrolling@V?$Matrix@M$02$02$0A@$02$02@Eigen@@V?$CwiseNullaryOp@U?$scalar_constant_op@M@internal@Eigen@@V?$Matrix@M$02$02$0A@$02$02@3@@2@$02$08@internal@Eigen@@SAXAAV?$Matrix@M$02$02$0A@$02$02@3@ABV?$CwiseNullaryOp@U?$scalar_constant_op@M@internal@Eigen@@V?$Matrix@M$02$02$0A@$02$02@3@@3@@Z 0045d540 f i fluidsim.obj
 0002:0002b5a0       ?run@?$assign_LinearTraversal_CompleteUnrolling@V?$Matrix@M$02$02$0A@$02$02@Eigen@@V?$CwiseNullaryOp@U?$scalar_constant_op@M@internal@Eigen@@V?$Matrix@M$02$02$0A@$02$02@3@@2@$03$08@internal@Eigen@@SAXAAV?$Matrix@M$02$02$0A@$02$02@3@ABV?$CwiseNullaryOp@U?$scalar_constant_op@M@internal@Eigen@@V?$Matrix@M$02$02$0A@$02$02@3@@3@@Z 0045d5a0 f i fluidsim.obj
 0002:0002b600       ?run@?$assign_LinearTraversal_CompleteUnrolling@V?$Matrix@M$02$02$0A@$02$02@Eigen@@V?$CwiseNullaryOp@U?$scalar_constant_op@M@internal@Eigen@@V?$Matrix@M$02$02$0A@$02$02@3@@2@$04$08@internal@Eigen@@SAXAAV?$Matrix@M$02$02$0A@$02$02@3@ABV?$CwiseNullaryOp@U?$scalar_constant_op@M@internal@Eigen@@V?$Matrix@M$02$02$0A@$02$02@3@@3@@Z 0045d600 f i fluidsim.obj
 0002:0002b660       ?run@?$assign_LinearTraversal_CompleteUnrolling@V?$Matrix@M$02$02$0A@$02$02@Eigen@@V?$CwiseNullaryOp@U?$scalar_constant_op@M@internal@Eigen@@V?$Matrix@M$02$02$0A@$02$02@3@@2@$05$08@internal@Eigen@@SAXAAV?$Matrix@M$02$02$0A@$02$02@3@ABV?$CwiseNullaryOp@U?$scalar_constant_op@M@internal@Eigen@@V?$Matrix@M$02$02$0A@$02$02@3@@3@@Z 0045d660 f i fluidsim.obj
 0002:0002b6c0       ?run@?$assign_LinearTraversal_CompleteUnrolling@V?$Matrix@M$02$02$0A@$02$02@Eigen@@V?$CwiseNullaryOp@U?$scalar_constant_op@M@internal@Eigen@@V?$Matrix@M$02$02$0A@$02$02@3@@2@$06$08@internal@Eigen@@SAXAAV?$Matrix@M$02$02$0A@$02$02@3@ABV?$CwiseNullaryOp@U?$scalar_constant_op@M@internal@Eigen@@V?$Matrix@M$02$02$0A@$02$02@3@@3@@Z 0045d6c0 f i fluidsim.obj
 0002:0002b720       ?run@?$assign_LinearTraversal_CompleteUnrolling@V?$Matrix@M$02$02$0A@$02$02@Eigen@@V?$CwiseNullaryOp@U?$scalar_constant_op@M@internal@Eigen@@V?$Matrix@M$02$02$0A@$02$02@3@@2@$07$08@internal@Eigen@@SAXAAV?$Matrix@M$02$02$0A@$02$02@3@ABV?$CwiseNullaryOp@U?$scalar_constant_op@M@internal@Eigen@@V?$Matrix@M$02$02$0A@$02$02@3@@3@@Z 0045d720 f i fluidsim.obj
 0002:0002b780       ?run@?$assign_LinearTraversal_CompleteUnrolling@V?$Matrix@M$02$02$0A@$02$02@Eigen@@V?$CwiseNullaryOp@U?$scalar_constant_op@M@internal@Eigen@@V?$Matrix@M$02$02$0A@$02$02@3@@2@$08$08@internal@Eigen@@SAXAAV?$Matrix@M$02$02$0A@$02$02@3@ABV?$CwiseNullaryOp@U?$scalar_constant_op@M@internal@Eigen@@V?$Matrix@M$02$02$0A@$02$02@3@@3@@Z 0045d780 f i fluidsim.obj
 0002:0002b7a0       ?run@?$assign_LinearTraversal_CompleteUnrolling@V?$Matrix@M$02$02$0A@$02$02@Eigen@@V?$CwiseNullaryOp@U?$scalar_constant_op@M@internal@Eigen@@V?$Matrix@M$02$02$0A@$02$02@3@@2@$0A@$08@internal@Eigen@@SAXAAV?$Matrix@M$02$02$0A@$02$02@3@ABV?$CwiseNullaryOp@U?$scalar_constant_op@M@internal@Eigen@@V?$Matrix@M$02$02$0A@$02$02@3@@3@@Z 0045d7a0 f i fluidsim.obj
 0002:0002b800       ?run@?$assign_LinearTraversal_CompleteUnrolling@V?$SelfCwiseBinaryOp@U?$scalar_difference_op@M@internal@Eigen@@V?$Matrix@M$02$00$0A@$02$00@3@V?$CoeffBasedProduct@$$CBV?$CwiseUnaryOp@U?$scalar_multiple_op@M@internal@Eigen@@$$CBV?$Matrix@M$02$02$0A@$02$02@3@@Eigen@@ABV?$Matrix@M$02$00$0A@$02$00@2@$05@3@@Eigen@@V?$Matrix@M$02$00$0A@$02$00@2@$00$02@internal@Eigen@@SAXAAV?$SelfCwiseBinaryOp@U?$scalar_difference_op@M@internal@Eigen@@V?$Matrix@M$02$00$0A@$02$00@3@V?$CoeffBasedProduct@$$CBV?$CwiseUnaryOp@U?$scalar_multiple_op@M@internal@Eigen@@$$CBV?$Matrix@M$02$02$0A@$02$02@3@@Eigen@@ABV?$Matrix@M$02$00$0A@$02$00@2@$05@3@@3@ABV?$Matrix@M$02$00$0A@$02$00@3@@Z 0045d800 f i fluidsim.obj
 0002:0002b840       ?run@?$assign_LinearTraversal_CompleteUnrolling@V?$SelfCwiseBinaryOp@U?$scalar_difference_op@M@internal@Eigen@@V?$Matrix@M$02$00$0A@$02$00@3@V?$CoeffBasedProduct@$$CBV?$CwiseUnaryOp@U?$scalar_multiple_op@M@internal@Eigen@@$$CBV?$Matrix@M$02$02$0A@$02$02@3@@Eigen@@ABV?$Matrix@M$02$00$0A@$02$00@2@$05@3@@Eigen@@V?$Matrix@M$02$00$0A@$02$00@2@$01$02@internal@Eigen@@SAXAAV?$SelfCwiseBinaryOp@U?$scalar_difference_op@M@internal@Eigen@@V?$Matrix@M$02$00$0A@$02$00@3@V?$CoeffBasedProduct@$$CBV?$CwiseUnaryOp@U?$scalar_multiple_op@M@internal@Eigen@@$$CBV?$Matrix@M$02$02$0A@$02$02@3@@Eigen@@ABV?$Matrix@M$02$00$0A@$02$00@2@$05@3@@3@ABV?$Matrix@M$02$00$0A@$02$00@3@@Z 0045d840 f i fluidsim.obj
 0002:0002b880       ?run@?$assign_LinearTraversal_CompleteUnrolling@V?$SelfCwiseBinaryOp@U?$scalar_difference_op@M@internal@Eigen@@V?$Matrix@M$02$00$0A@$02$00@3@V?$CoeffBasedProduct@$$CBV?$CwiseUnaryOp@U?$scalar_multiple_op@M@internal@Eigen@@$$CBV?$Matrix@M$02$02$0A@$02$02@3@@Eigen@@ABV?$Matrix@M$02$00$0A@$02$00@2@$05@3@@Eigen@@V?$Matrix@M$02$00$0A@$02$00@2@$02$02@internal@Eigen@@SAXAAV?$SelfCwiseBinaryOp@U?$scalar_difference_op@M@internal@Eigen@@V?$Matrix@M$02$00$0A@$02$00@3@V?$CoeffBasedProduct@$$CBV?$CwiseUnaryOp@U?$scalar_multiple_op@M@internal@Eigen@@$$CBV?$Matrix@M$02$02$0A@$02$02@3@@Eigen@@ABV?$Matrix@M$02$00$0A@$02$00@2@$05@3@@3@ABV?$Matrix@M$02$00$0A@$02$00@3@@Z 0045d880 f i fluidsim.obj
 0002:0002b8a0       ?run@?$assign_LinearTraversal_CompleteUnrolling@V?$SelfCwiseBinaryOp@U?$scalar_difference_op@M@internal@Eigen@@V?$Matrix@M$02$00$0A@$02$00@3@V?$CoeffBasedProduct@$$CBV?$CwiseUnaryOp@U?$scalar_multiple_op@M@internal@Eigen@@$$CBV?$Matrix@M$02$02$0A@$02$02@3@@Eigen@@ABV?$Matrix@M$02$00$0A@$02$00@2@$05@3@@Eigen@@V?$Matrix@M$02$00$0A@$02$00@2@$0A@$02@internal@Eigen@@SAXAAV?$SelfCwiseBinaryOp@U?$scalar_difference_op@M@internal@Eigen@@V?$Matrix@M$02$00$0A@$02$00@3@V?$CoeffBasedProduct@$$CBV?$CwiseUnaryOp@U?$scalar_multiple_op@M@internal@Eigen@@$$CBV?$Matrix@M$02$02$0A@$02$02@3@@Eigen@@ABV?$Matrix@M$02$00$0A@$02$00@2@$05@3@@3@ABV?$Matrix@M$02$00$0A@$02$00@3@@Z 0045d8a0 f i fluidsim.obj
 0002:0002b8e0       ?run@?$assign_LinearTraversal_CompleteUnrolling@V?$SelfCwiseBinaryOp@U?$scalar_product_op@MM@internal@Eigen@@V?$Block@V?$Matrix@M$02$02$0A@$02$02@Eigen@@$02$00$00@3@V?$CwiseNullaryOp@U?$scalar_constant_op@M@internal@Eigen@@V?$Matrix@M$02$00$0A@$02$00@3@@3@@Eigen@@V?$CwiseNullaryOp@U?$scalar_constant_op@M@internal@Eigen@@V?$Matrix@M$02$00$0A@$02$00@3@@2@$00$02@internal@Eigen@@SAXAAV?$SelfCwiseBinaryOp@U?$scalar_product_op@MM@internal@Eigen@@V?$Block@V?$Matrix@M$02$02$0A@$02$02@Eigen@@$02$00$00@3@V?$CwiseNullaryOp@U?$scalar_constant_op@M@internal@Eigen@@V?$Matrix@M$02$00$0A@$02$00@3@@3@@3@ABV?$CwiseNullaryOp@U?$scalar_constant_op@M@internal@Eigen@@V?$Matrix@M$02$00$0A@$02$00@3@@3@@Z 0045d8e0 f i fluidsim.obj
 0002:0002b940       ?run@?$assign_LinearTraversal_CompleteUnrolling@V?$SelfCwiseBinaryOp@U?$scalar_product_op@MM@internal@Eigen@@V?$Block@V?$Matrix@M$02$02$0A@$02$02@Eigen@@$02$00$00@3@V?$CwiseNullaryOp@U?$scalar_constant_op@M@internal@Eigen@@V?$Matrix@M$02$00$0A@$02$00@3@@3@@Eigen@@V?$CwiseNullaryOp@U?$scalar_constant_op@M@internal@Eigen@@V?$Matrix@M$02$00$0A@$02$00@3@@2@$01$02@internal@Eigen@@SAXAAV?$SelfCwiseBinaryOp@U?$scalar_product_op@MM@internal@Eigen@@V?$Block@V?$Matrix@M$02$02$0A@$02$02@Eigen@@$02$00$00@3@V?$CwiseNullaryOp@U?$scalar_constant_op@M@internal@Eigen@@V?$Matrix@M$02$00$0A@$02$00@3@@3@@3@ABV?$CwiseNullaryOp@U?$scalar_constant_op@M@internal@Eigen@@V?$Matrix@M$02$00$0A@$02$00@3@@3@@Z 0045d940 f i fluidsim.obj
 0002:0002b9a0       ?run@?$assign_LinearTraversal_CompleteUnrolling@V?$SelfCwiseBinaryOp@U?$scalar_product_op@MM@internal@Eigen@@V?$Block@V?$Matrix@M$02$02$0A@$02$02@Eigen@@$02$00$00@3@V?$CwiseNullaryOp@U?$scalar_constant_op@M@internal@Eigen@@V?$Matrix@M$02$00$0A@$02$00@3@@3@@Eigen@@V?$CwiseNullaryOp@U?$scalar_constant_op@M@internal@Eigen@@V?$Matrix@M$02$00$0A@$02$00@3@@2@$02$02@internal@Eigen@@SAXAAV?$SelfCwiseBinaryOp@U?$scalar_product_op@MM@internal@Eigen@@V?$Block@V?$Matrix@M$02$02$0A@$02$02@Eigen@@$02$00$00@3@V?$CwiseNullaryOp@U?$scalar_constant_op@M@internal@Eigen@@V?$Matrix@M$02$00$0A@$02$00@3@@3@@3@ABV?$CwiseNullaryOp@U?$scalar_constant_op@M@internal@Eigen@@V?$Matrix@M$02$00$0A@$02$00@3@@3@@Z 0045d9a0 f i fluidsim.obj
 0002:0002b9c0       ?run@?$assign_LinearTraversal_CompleteUnrolling@V?$SelfCwiseBinaryOp@U?$scalar_product_op@MM@internal@Eigen@@V?$Block@V?$Matrix@M$02$02$0A@$02$02@Eigen@@$02$00$00@3@V?$CwiseNullaryOp@U?$scalar_constant_op@M@internal@Eigen@@V?$Matrix@M$02$00$0A@$02$00@3@@3@@Eigen@@V?$CwiseNullaryOp@U?$scalar_constant_op@M@internal@Eigen@@V?$Matrix@M$02$00$0A@$02$00@3@@2@$0A@$02@internal@Eigen@@SAXAAV?$SelfCwiseBinaryOp@U?$scalar_product_op@MM@internal@Eigen@@V?$Block@V?$Matrix@M$02$02$0A@$02$02@Eigen@@$02$00$00@3@V?$CwiseNullaryOp@U?$scalar_constant_op@M@internal@Eigen@@V?$Matrix@M$02$00$0A@$02$00@3@@3@@3@ABV?$CwiseNullaryOp@U?$scalar_constant_op@M@internal@Eigen@@V?$Matrix@M$02$00$0A@$02$00@3@@3@@Z 0045d9c0 f i fluidsim.obj
 0002:0002ba20       ?run@?$assign_LinearTraversal_CompleteUnrolling@V?$SwapWrapper@V?$Block@V?$Matrix@M$02$02$0A@$02$02@Eigen@@$02$00$00@Eigen@@@Eigen@@V?$Block@V?$Matrix@M$02$02$0A@$02$02@Eigen@@$02$00$00@2@$00$02@internal@Eigen@@SAXAAV?$SwapWrapper@V?$Block@V?$Matrix@M$02$02$0A@$02$02@Eigen@@$02$00$00@Eigen@@@3@ABV?$Block@V?$Matrix@M$02$02$0A@$02$02@Eigen@@$02$00$00@3@@Z 0045da20 f i fluidsim.obj
 0002:0002ba60       ?run@?$assign_LinearTraversal_CompleteUnrolling@V?$SwapWrapper@V?$Block@V?$Matrix@M$02$02$0A@$02$02@Eigen@@$02$00$00@Eigen@@@Eigen@@V?$Block@V?$Matrix@M$02$02$0A@$02$02@Eigen@@$02$00$00@2@$01$02@internal@Eigen@@SAXAAV?$SwapWrapper@V?$Block@V?$Matrix@M$02$02$0A@$02$02@Eigen@@$02$00$00@Eigen@@@3@ABV?$Block@V?$Matrix@M$02$02$0A@$02$02@Eigen@@$02$00$00@3@@Z 0045da60 f i fluidsim.obj
 0002:0002baa0       ?run@?$assign_LinearTraversal_CompleteUnrolling@V?$SwapWrapper@V?$Block@V?$Matrix@M$02$02$0A@$02$02@Eigen@@$02$00$00@Eigen@@@Eigen@@V?$Block@V?$Matrix@M$02$02$0A@$02$02@Eigen@@$02$00$00@2@$02$02@internal@Eigen@@SAXAAV?$SwapWrapper@V?$Block@V?$Matrix@M$02$02$0A@$02$02@Eigen@@$02$00$00@Eigen@@@3@ABV?$Block@V?$Matrix@M$02$02$0A@$02$02@Eigen@@$02$00$00@3@@Z 0045daa0 f i fluidsim.obj
 0002:0002bac0       ?run@?$assign_LinearTraversal_CompleteUnrolling@V?$SwapWrapper@V?$Block@V?$Matrix@M$02$02$0A@$02$02@Eigen@@$02$00$00@Eigen@@@Eigen@@V?$Block@V?$Matrix@M$02$02$0A@$02$02@Eigen@@$02$00$00@2@$0A@$02@internal@Eigen@@SAXAAV?$SwapWrapper@V?$Block@V?$Matrix@M$02$02$0A@$02$02@Eigen@@$02$00$00@Eigen@@@3@ABV?$Block@V?$Matrix@M$02$02$0A@$02$02@Eigen@@$02$00$00@3@@Z 0045dac0 f i fluidsim.obj
 0002:0002bb00       ?run@?$assign_impl@V?$Block@V?$Matrix@M$02$02$0A@$02$02@Eigen@@$00$02$0A@@Eigen@@V?$Transpose@$$CBV?$CwiseUnaryOp@U?$scalar_multiple_op@M@internal@Eigen@@$$CBV?$Matrix@M$02$00$0A@$02$00@3@@Eigen@@@2@$00$01$0A@@internal@Eigen@@SAXAAV?$Block@V?$Matrix@M$02$02$0A@$02$02@Eigen@@$00$02$0A@@3@ABV?$Transpose@$$CBV?$CwiseUnaryOp@U?$scalar_multiple_op@M@internal@Eigen@@$$CBV?$Matrix@M$02$00$0A@$02$00@3@@Eigen@@@3@@Z 0045db00 f i fluidsim.obj
 0002:0002bb30       ?run@?$assign_impl@V?$Matrix@M$02$00$0A@$02$00@Eigen@@V12@$00$01$0A@@internal@Eigen@@SAXAAV?$Matrix@M$02$00$0A@$02$00@3@ABV43@@Z 0045db30 f i fluidsim.obj
 0002:0002bb60       ?run@?$assign_impl@V?$Matrix@M$02$00$0A@$02$00@Eigen@@V?$CoeffBasedProduct@$$CBV?$CwiseUnaryOp@U?$scalar_multiple_op@M@internal@Eigen@@$$CBV?$Matrix@M$02$02$0A@$02$02@3@@Eigen@@ABV?$Matrix@M$02$00$0A@$02$00@2@$05@2@$0A@$01$0A@@internal@Eigen@@SAXAAV?$Matrix@M$02$00$0A@$02$00@3@ABV?$CoeffBasedProduct@$$CBV?$CwiseUnaryOp@U?$scalar_multiple_op@M@internal@Eigen@@$$CBV?$Matrix@M$02$02$0A@$02$02@3@@Eigen@@ABV?$Matrix@M$02$00$0A@$02$00@2@$05@3@@Z 0045db60 f i fluidsim.obj
 0002:0002bb90       ?run@?$assign_impl@V?$Matrix@M$02$00$0A@$02$00@Eigen@@V?$CwiseNullaryOp@U?$scalar_constant_op@M@internal@Eigen@@V?$Matrix@M$02$00$0A@$02$00@3@@2@$00$01$0A@@internal@Eigen@@SAXAAV?$Matrix@M$02$00$0A@$02$00@3@ABV?$CwiseNullaryOp@U?$scalar_constant_op@M@internal@Eigen@@V?$Matrix@M$02$00$0A@$02$00@3@@3@@Z 0045db90 f i fluidsim.obj
 0002:0002bbc0       ?run@?$assign_impl@V?$Matrix@M$02$02$00$02$02@Eigen@@V?$CoeffBasedProduct@ABV?$Matrix@M$02$02$0A@$02$02@Eigen@@$$CBV?$Transpose@V?$Matrix@M$02$02$0A@$02$02@Eigen@@@2@$05@2@$0A@$01$0A@@internal@Eigen@@SAXAAV?$Matrix@M$02$02$00$02$02@3@ABV?$CoeffBasedProduct@ABV?$Matrix@M$02$02$0A@$02$02@Eigen@@$$CBV?$Transpose@V?$Matrix@M$02$02$0A@$02$02@Eigen@@@2@$05@3@@Z 0045dbc0 f i fluidsim.obj
 0002:0002bbf0       ?run@?$assign_impl@V?$Matrix@M$02$02$0A@$02$02@Eigen@@V12@$00$01$0A@@internal@Eigen@@SAXAAV?$Matrix@M$02$02$0A@$02$02@3@ABV43@@Z 0045dbf0 f i fluidsim.obj
 0002:0002bc20       ?run@?$assign_impl@V?$Matrix@M$02$02$0A@$02$02@Eigen@@V?$Block@$$CBV?$Matrix@M$02$02$0A@$02$02@Eigen@@$0?0$0?0$0A@@2@$0A@$01$0A@@internal@Eigen@@SAXAAV?$Matrix@M$02$02$0A@$02$02@3@ABV?$Block@$$CBV?$Matrix@M$02$02$0A@$02$02@Eigen@@$0?0$0?0$0A@@3@@Z 0045dc20 f i fluidsim.obj
 0002:0002bc50       ?run@?$assign_impl@V?$Matrix@M$02$02$0A@$02$02@Eigen@@V?$CoeffBasedProduct@ABV?$Matrix@M$02$02$00$02$02@Eigen@@ABV?$Matrix@M$02$02$0A@$02$02@2@$05@2@$0A@$01$0A@@internal@Eigen@@SAXAAV?$Matrix@M$02$02$0A@$02$02@3@ABV?$CoeffBasedProduct@ABV?$Matrix@M$02$02$00$02$02@Eigen@@ABV?$Matrix@M$02$02$0A@$02$02@2@$05@3@@Z 0045dc50 f i fluidsim.obj
 0002:0002bc80       ?run@?$assign_impl@V?$Matrix@M$02$02$0A@$02$02@Eigen@@V?$CoeffBasedProduct@ABV?$Matrix@M$02$02$0A@$02$02@Eigen@@$$CBV?$Transpose@V?$Matrix@M$02$02$0A@$02$02@Eigen@@@2@$05@2@$0A@$01$0A@@internal@Eigen@@SAXAAV?$Matrix@M$02$02$0A@$02$02@3@ABV?$CoeffBasedProduct@ABV?$Matrix@M$02$02$0A@$02$02@Eigen@@$$CBV?$Transpose@V?$Matrix@M$02$02$0A@$02$02@Eigen@@@2@$05@3@@Z 0045dc80 f i fluidsim.obj
 0002:0002bcb0       ?run@?$assign_impl@V?$Matrix@M$02$02$0A@$02$02@Eigen@@V?$CoeffBasedProduct@ABV?$Matrix@M$02$02$0A@$02$02@Eigen@@ABV12@$05@2@$0A@$01$0A@@internal@Eigen@@SAXAAV?$Matrix@M$02$02$0A@$02$02@3@ABV?$CoeffBasedProduct@ABV?$Matrix@M$02$02$0A@$02$02@Eigen@@ABV12@$05@3@@Z 0045dcb0 f i fluidsim.obj
 0002:0002bce0       ?run@?$assign_impl@V?$Matrix@M$02$02$0A@$02$02@Eigen@@V?$CoeffBasedProduct@ABV?$Matrix@M$02$02$0A@$02$02@Eigen@@V12@$05@2@$0A@$01$0A@@internal@Eigen@@SAXAAV?$Matrix@M$02$02$0A@$02$02@3@ABV?$CoeffBasedProduct@ABV?$Matrix@M$02$02$0A@$02$02@Eigen@@V12@$05@3@@Z 0045dce0 f i fluidsim.obj
 0002:0002bd10       ?run@?$assign_impl@V?$Matrix@M$02$02$0A@$02$02@Eigen@@V?$CwiseNullaryOp@U?$scalar_constant_op@M@internal@Eigen@@V?$Matrix@M$02$02$0A@$02$02@3@@2@$00$01$0A@@internal@Eigen@@SAXAAV?$Matrix@M$02$02$0A@$02$02@3@ABV?$CwiseNullaryOp@U?$scalar_constant_op@M@internal@Eigen@@V?$Matrix@M$02$02$0A@$02$02@3@@3@@Z 0045dd10 f i fluidsim.obj
 0002:0002bd40       ?run@?$assign_impl@V?$Matrix@M$02$02$0A@$02$02@Eigen@@V?$CwiseNullaryOp@U?$scalar_identity_op@M@internal@Eigen@@V?$Matrix@M$02$02$0A@$02$02@3@@2@$0A@$01$0A@@internal@Eigen@@SAXAAV?$Matrix@M$02$02$0A@$02$02@3@ABV?$CwiseNullaryOp@U?$scalar_identity_op@M@internal@Eigen@@V?$Matrix@M$02$02$0A@$02$02@3@@3@@Z 0045dd40 f i fluidsim.obj
 0002:0002bd70       ?run@?$assign_impl@V?$Matrix@M$02$02$0A@$02$02@Eigen@@V?$Matrix@M$02$02$00$02$02@2@$0A@$01$0A@@internal@Eigen@@SAXAAV?$Matrix@M$02$02$0A@$02$02@3@ABV?$Matrix@M$02$02$00$02$02@3@@Z 0045dd70 f i fluidsim.obj
 0002:0002bda0       ?run@?$assign_impl@V?$SelfCwiseBinaryOp@U?$scalar_difference_op@M@internal@Eigen@@V?$Matrix@M$02$00$0A@$02$00@3@V?$CoeffBasedProduct@$$CBV?$CwiseUnaryOp@U?$scalar_multiple_op@M@internal@Eigen@@$$CBV?$Matrix@M$02$02$0A@$02$02@3@@Eigen@@ABV?$Matrix@M$02$00$0A@$02$00@2@$05@3@@Eigen@@V?$Matrix@M$02$00$0A@$02$00@2@$00$01$0A@@internal@Eigen@@SAXAAV?$SelfCwiseBinaryOp@U?$scalar_difference_op@M@internal@Eigen@@V?$Matrix@M$02$00$0A@$02$00@3@V?$CoeffBasedProduct@$$CBV?$CwiseUnaryOp@U?$scalar_multiple_op@M@internal@Eigen@@$$CBV?$Matrix@M$02$02$0A@$02$02@3@@Eigen@@ABV?$Matrix@M$02$00$0A@$02$00@2@$05@3@@3@ABV?$Matrix@M$02$00$0A@$02$00@3@@Z 0045dda0 f i fluidsim.obj
 0002:0002bdd0       ?run@?$assign_impl@V?$SelfCwiseBinaryOp@U?$scalar_product_op@MM@internal@Eigen@@V?$Block@V?$Matrix@M$02$02$0A@$02$02@Eigen@@$02$00$00@3@V?$CwiseNullaryOp@U?$scalar_constant_op@M@internal@Eigen@@V?$Matrix@M$02$00$0A@$02$00@3@@3@@Eigen@@V?$CwiseNullaryOp@U?$scalar_constant_op@M@internal@Eigen@@V?$Matrix@M$02$00$0A@$02$00@3@@2@$00$01$0A@@internal@Eigen@@SAXAAV?$SelfCwiseBinaryOp@U?$scalar_product_op@MM@internal@Eigen@@V?$Block@V?$Matrix@M$02$02$0A@$02$02@Eigen@@$02$00$00@3@V?$CwiseNullaryOp@U?$scalar_constant_op@M@internal@Eigen@@V?$Matrix@M$02$00$0A@$02$00@3@@3@@3@ABV?$CwiseNullaryOp@U?$scalar_constant_op@M@internal@Eigen@@V?$Matrix@M$02$00$0A@$02$00@3@@3@@Z 0045ddd0 f i fluidsim.obj
 0002:0002be00       ?run@?$assign_impl@V?$SelfCwiseBinaryOp@U?$scalar_sum_op@M@internal@Eigen@@V?$Matrix@M$02$02$0A@$02$02@3@V?$CoeffBasedProduct@$$CBV?$CwiseUnaryOp@U?$scalar_multiple_op@M@internal@Eigen@@$$CBV?$Matrix@M$02$00$0A@$02$00@3@@Eigen@@$$CBV?$Transpose@V?$Matrix@M$02$00$0A@$02$00@Eigen@@@2@$0BAA@@3@@Eigen@@V?$CoeffBasedProduct@$$CBV?$CwiseUnaryOp@U?$scalar_multiple_op@M@internal@Eigen@@$$CBV?$Matrix@M$02$00$0A@$02$00@3@@Eigen@@$$CBV?$Transpose@V?$Matrix@M$02$00$0A@$02$00@Eigen@@@2@$0BAA@@2@$0A@$01$0A@@internal@Eigen@@SAXAAV?$SelfCwiseBinaryOp@U?$scalar_sum_op@M@internal@Eigen@@V?$Matrix@M$02$02$0A@$02$02@3@V?$CoeffBasedProduct@$$CBV?$CwiseUnaryOp@U?$scalar_multiple_op@M@internal@Eigen@@$$CBV?$Matrix@M$02$00$0A@$02$00@3@@Eigen@@$$CBV?$Transpose@V?$Matrix@M$02$00$0A@$02$00@Eigen@@@2@$0BAA@@3@@3@ABV?$CoeffBasedProduct@$$CBV?$CwiseUnaryOp@U?$scalar_multiple_op@M@internal@Eigen@@$$CBV?$Matrix@M$02$00$0A@$02$00@3@@Eigen@@$$CBV?$Transpose@V?$Matrix@M$02$00$0A@$02$00@Eigen@@@2@$0BAA@@3@@Z 0045de00 f i fluidsim.obj
 0002:0002be30       ?run@?$assign_impl@V?$SwapWrapper@V?$Block@V?$Matrix@M$02$02$0A@$02$02@Eigen@@$02$00$00@Eigen@@@Eigen@@V?$Block@V?$Matrix@M$02$02$0A@$02$02@Eigen@@$02$00$00@2@$00$01$0A@@internal@Eigen@@SAXAAV?$SwapWrapper@V?$Block@V?$Matrix@M$02$02$0A@$02$02@Eigen@@$02$00$00@Eigen@@@3@ABV?$Block@V?$Matrix@M$02$02$0A@$02$02@Eigen@@$02$00$00@3@@Z 0045de30 f i fluidsim.obj
 0002:0002be60       ?run@?$assign_selector@V?$Block@V?$Matrix@M$02$02$0A@$02$02@Eigen@@$00$02$0A@@Eigen@@V?$CwiseUnaryOp@U?$scalar_multiple_op@M@internal@Eigen@@$$CBV?$Matrix@M$02$00$0A@$02$00@3@@2@$0A@$00@internal@Eigen@@SAAAV?$Block@V?$Matrix@M$02$02$0A@$02$02@Eigen@@$00$02$0A@@3@AAV43@ABV?$CwiseUnaryOp@U?$scalar_multiple_op@M@internal@Eigen@@$$CBV?$Matrix@M$02$00$0A@$02$00@3@@3@@Z 0045de60 f i fluidsim.obj
 0002:0002bea0       ?run@?$assign_selector@V?$Matrix@M$02$00$0A@$02$00@Eigen@@V12@$0A@$0A@@internal@Eigen@@SAAAV?$Matrix@M$02$00$0A@$02$00@3@AAV43@ABV43@@Z 0045dea0 f i fluidsim.obj
 0002:0002bed0       ?run@?$assign_selector@V?$Matrix@M$02$00$0A@$02$00@Eigen@@V?$CwiseNullaryOp@U?$scalar_constant_op@M@internal@Eigen@@V?$Matrix@M$02$00$0A@$02$00@3@@2@$0A@$0A@@internal@Eigen@@SAAAV?$Matrix@M$02$00$0A@$02$00@3@AAV43@ABV?$CwiseNullaryOp@U?$scalar_constant_op@M@internal@Eigen@@V?$Matrix@M$02$00$0A@$02$00@3@@3@@Z 0045ded0 f i fluidsim.obj
 0002:0002bf30       ?run@?$assign_selector@V?$Matrix@M$02$02$00$02$02@Eigen@@V?$CoeffBasedProduct@ABV?$Matrix@M$02$02$0A@$02$02@Eigen@@$$CBV?$Transpose@V?$Matrix@M$02$02$0A@$02$02@Eigen@@@2@$05@2@$0A@$0A@@internal@Eigen@@SAAAV?$Matrix@M$02$02$00$02$02@3@AAV43@ABV?$CoeffBasedProduct@ABV?$Matrix@M$02$02$0A@$02$02@Eigen@@$$CBV?$Transpose@V?$Matrix@M$02$02$0A@$02$02@Eigen@@@2@$05@3@@Z 0045df30 f i fluidsim.obj
 0002:0002bf90       ?run@?$assign_selector@V?$Matrix@M$02$02$0A@$02$02@Eigen@@V12@$0A@$0A@@internal@Eigen@@SAAAV?$Matrix@M$02$02$0A@$02$02@3@AAV43@ABV43@@Z 0045df90 f i fluidsim.obj
 0002:0002bfc0       ?run@?$assign_selector@V?$Matrix@M$02$02$0A@$02$02@Eigen@@V?$Block@$$CBV?$Matrix@M$02$02$0A@$02$02@Eigen@@$0?0$0?0$0A@@2@$0A@$0A@@internal@Eigen@@SAAAV?$Matrix@M$02$02$0A@$02$02@3@AAV43@ABV?$Block@$$CBV?$Matrix@M$02$02$0A@$02$02@Eigen@@$0?0$0?0$0A@@3@@Z 0045dfc0 f i fluidsim.obj
 0002:0002bff0       ?run@?$assign_selector@V?$Matrix@M$02$02$0A@$02$02@Eigen@@V?$CoeffBasedProduct@ABV?$Matrix@M$02$02$00$02$02@Eigen@@ABV?$Matrix@M$02$02$0A@$02$02@2@$05@2@$0A@$0A@@internal@Eigen@@SAAAV?$Matrix@M$02$02$0A@$02$02@3@AAV43@ABV?$CoeffBasedProduct@ABV?$Matrix@M$02$02$00$02$02@Eigen@@ABV?$Matrix@M$02$02$0A@$02$02@2@$05@3@@Z 0045dff0 f i fluidsim.obj
 0002:0002c050       ?run@?$assign_selector@V?$Matrix@M$02$02$0A@$02$02@Eigen@@V?$CoeffBasedProduct@ABV?$Matrix@M$02$02$0A@$02$02@Eigen@@$$CBV?$Transpose@V?$Matrix@M$02$02$0A@$02$02@Eigen@@@2@$05@2@$0A@$0A@@internal@Eigen@@SAAAV?$Matrix@M$02$02$0A@$02$02@3@AAV43@ABV?$CoeffBasedProduct@ABV?$Matrix@M$02$02$0A@$02$02@Eigen@@$$CBV?$Transpose@V?$Matrix@M$02$02$0A@$02$02@Eigen@@@2@$05@3@@Z 0045e050 f i fluidsim.obj
 0002:0002c0b0       ?run@?$assign_selector@V?$Matrix@M$02$02$0A@$02$02@Eigen@@V?$CoeffBasedProduct@ABV?$Matrix@M$02$02$0A@$02$02@Eigen@@ABV12@$05@2@$0A@$0A@@internal@Eigen@@SAAAV?$Matrix@M$02$02$0A@$02$02@3@AAV43@ABV?$CoeffBasedProduct@ABV?$Matrix@M$02$02$0A@$02$02@Eigen@@ABV12@$05@3@@Z 0045e0b0 f i fluidsim.obj
 0002:0002c110       ?run@?$assign_selector@V?$Matrix@M$02$02$0A@$02$02@Eigen@@V?$CwiseNullaryOp@U?$scalar_constant_op@M@internal@Eigen@@V?$Matrix@M$02$02$0A@$02$02@3@@2@$0A@$0A@@internal@Eigen@@SAAAV?$Matrix@M$02$02$0A@$02$02@3@AAV43@ABV?$CwiseNullaryOp@U?$scalar_constant_op@M@internal@Eigen@@V?$Matrix@M$02$02$0A@$02$02@3@@3@@Z 0045e110 f i fluidsim.obj
 0002:0002c170       ?run@?$assign_selector@V?$Matrix@M$02$02$0A@$02$02@Eigen@@V?$CwiseNullaryOp@U?$scalar_identity_op@M@internal@Eigen@@V?$Matrix@M$02$02$0A@$02$02@3@@2@$0A@$0A@@internal@Eigen@@SAAAV?$Matrix@M$02$02$0A@$02$02@3@AAV43@ABV?$CwiseNullaryOp@U?$scalar_identity_op@M@internal@Eigen@@V?$Matrix@M$02$02$0A@$02$02@3@@3@@Z 0045e170 f i fluidsim.obj
 0002:0002c1d0       ?run@?$assign_selector@V?$Matrix@M$02$02$0A@$02$02@Eigen@@V?$Matrix@M$02$02$00$02$02@2@$0A@$0A@@internal@Eigen@@SAAAV?$Matrix@M$02$02$0A@$02$02@3@AAV43@ABV?$Matrix@M$02$02$00$02$02@3@@Z 0045e1d0 f i fluidsim.obj
 0002:0002c200       ?run@?$assign_selector@V?$SelfCwiseBinaryOp@U?$scalar_difference_op@M@internal@Eigen@@V?$Matrix@M$02$00$0A@$02$00@3@V?$CoeffBasedProduct@$$CBV?$CwiseUnaryOp@U?$scalar_multiple_op@M@internal@Eigen@@$$CBV?$Matrix@M$02$02$0A@$02$02@3@@Eigen@@ABV?$Matrix@M$02$00$0A@$02$00@2@$05@3@@Eigen@@V?$Matrix@M$02$00$0A@$02$00@2@$0A@$0A@@internal@Eigen@@SAAAV?$SelfCwiseBinaryOp@U?$scalar_difference_op@M@internal@Eigen@@V?$Matrix@M$02$00$0A@$02$00@3@V?$CoeffBasedProduct@$$CBV?$CwiseUnaryOp@U?$scalar_multiple_op@M@internal@Eigen@@$$CBV?$Matrix@M$02$02$0A@$02$02@3@@Eigen@@ABV?$Matrix@M$02$00$0A@$02$00@2@$05@3@@3@AAV43@ABV?$Matrix@M$02$00$0A@$02$00@3@@Z 0045e200 f i fluidsim.obj
 0002:0002c230       ?run@?$assign_selector@V?$SelfCwiseBinaryOp@U?$scalar_product_op@MM@internal@Eigen@@V?$Block@V?$Matrix@M$02$02$0A@$02$02@Eigen@@$02$00$00@3@V?$CwiseNullaryOp@U?$scalar_constant_op@M@internal@Eigen@@V?$Matrix@M$02$00$0A@$02$00@3@@3@@Eigen@@V?$CwiseNullaryOp@U?$scalar_constant_op@M@internal@Eigen@@V?$Matrix@M$02$00$0A@$02$00@3@@2@$0A@$0A@@internal@Eigen@@SAAAV?$SelfCwiseBinaryOp@U?$scalar_product_op@MM@internal@Eigen@@V?$Block@V?$Matrix@M$02$02$0A@$02$02@Eigen@@$02$00$00@3@V?$CwiseNullaryOp@U?$scalar_constant_op@M@internal@Eigen@@V?$Matrix@M$02$00$0A@$02$00@3@@3@@3@AAV43@ABV?$CwiseNullaryOp@U?$scalar_constant_op@M@internal@Eigen@@V?$Matrix@M$02$00$0A@$02$00@3@@3@@Z 0045e230 f i fluidsim.obj
 0002:0002c290       ?run@?$assign_selector@V?$SelfCwiseBinaryOp@U?$scalar_sum_op@M@internal@Eigen@@V?$Matrix@M$02$02$0A@$02$02@3@V?$CoeffBasedProduct@$$CBV?$CwiseUnaryOp@U?$scalar_multiple_op@M@internal@Eigen@@$$CBV?$Matrix@M$02$00$0A@$02$00@3@@Eigen@@$$CBV?$Transpose@V?$Matrix@M$02$00$0A@$02$00@Eigen@@@2@$0BAA@@3@@Eigen@@V?$CoeffBasedProduct@$$CBV?$CwiseUnaryOp@U?$scalar_multiple_op@M@internal@Eigen@@$$CBV?$Matrix@M$02$00$0A@$02$00@3@@Eigen@@$$CBV?$Transpose@V?$Matrix@M$02$00$0A@$02$00@Eigen@@@2@$0BAA@@2@$0A@$0A@@internal@Eigen@@SAAAV?$SelfCwiseBinaryOp@U?$scalar_sum_op@M@internal@Eigen@@V?$Matrix@M$02$02$0A@$02$02@3@V?$CoeffBasedProduct@$$CBV?$CwiseUnaryOp@U?$scalar_multiple_op@M@internal@Eigen@@$$CBV?$Matrix@M$02$00$0A@$02$00@3@@Eigen@@$$CBV?$Transpose@V?$Matrix@M$02$00$0A@$02$00@Eigen@@@2@$0BAA@@3@@3@AAV43@ABV?$CoeffBasedProduct@$$CBV?$CwiseUnaryOp@U?$scalar_multiple_op@M@internal@Eigen@@$$CBV?$Matrix@M$02$00$0A@$02$00@3@@Eigen@@$$CBV?$Transpose@V?$Matrix@M$02$00$0A@$02$00@Eigen@@@2@$0BAA@@3@@Z 0045e290 f i fluidsim.obj
 0002:0002c2f0       ?run@?$checkTransposeAliasing_impl@V?$Block@V?$Matrix@M$02$02$0A@$02$02@Eigen@@$00$02$0A@@Eigen@@V?$Transpose@$$CBV?$CwiseUnaryOp@U?$scalar_multiple_op@M@internal@Eigen@@$$CBV?$Matrix@M$02$00$0A@$02$00@3@@Eigen@@@2@$00@internal@Eigen@@SAXABV?$Block@V?$Matrix@M$02$02$0A@$02$02@Eigen@@$00$02$0A@@3@ABV?$Transpose@$$CBV?$CwiseUnaryOp@U?$scalar_multiple_op@M@internal@Eigen@@$$CBV?$Matrix@M$02$00$0A@$02$00@3@@Eigen@@@3@@Z 0045e2f0 f i fluidsim.obj
 0002:0002c360       ?run@?$checkTransposeAliasing_impl@V?$Matrix@M$02$00$0A@$02$00@Eigen@@V12@$0A@@internal@Eigen@@SAXABV?$Matrix@M$02$00$0A@$02$00@3@0@Z 0045e360 f i fluidsim.obj
 0002:0002c380       ?run@?$checkTransposeAliasing_impl@V?$Matrix@M$02$00$0A@$02$00@Eigen@@V?$CoeffBasedProduct@$$CBV?$CwiseUnaryOp@U?$scalar_multiple_op@M@internal@Eigen@@$$CBV?$Matrix@M$02$02$0A@$02$02@3@@Eigen@@ABV?$Matrix@M$02$00$0A@$02$00@2@$05@2@$0A@@internal@Eigen@@SAXABV?$Matrix@M$02$00$0A@$02$00@3@ABV?$CoeffBasedProduct@$$CBV?$CwiseUnaryOp@U?$scalar_multiple_op@M@internal@Eigen@@$$CBV?$Matrix@M$02$02$0A@$02$02@3@@Eigen@@ABV?$Matrix@M$02$00$0A@$02$00@2@$05@3@@Z 0045e380 f i fluidsim.obj
 0002:0002c3a0       ?run@?$checkTransposeAliasing_impl@V?$Matrix@M$02$00$0A@$02$00@Eigen@@V?$CwiseNullaryOp@U?$scalar_constant_op@M@internal@Eigen@@V?$Matrix@M$02$00$0A@$02$00@3@@2@$0A@@internal@Eigen@@SAXABV?$Matrix@M$02$00$0A@$02$00@3@ABV?$CwiseNullaryOp@U?$scalar_constant_op@M@internal@Eigen@@V?$Matrix@M$02$00$0A@$02$00@3@@3@@Z 0045e3a0 f i fluidsim.obj
 0002:0002c3c0       ?run@?$checkTransposeAliasing_impl@V?$Matrix@M$02$02$00$02$02@Eigen@@V?$CoeffBasedProduct@ABV?$Matrix@M$02$02$0A@$02$02@Eigen@@$$CBV?$Transpose@V?$Matrix@M$02$02$0A@$02$02@Eigen@@@2@$05@2@$0A@@internal@Eigen@@SAXABV?$Matrix@M$02$02$00$02$02@3@ABV?$CoeffBasedProduct@ABV?$Matrix@M$02$02$0A@$02$02@Eigen@@$$CBV?$Transpose@V?$Matrix@M$02$02$0A@$02$02@Eigen@@@2@$05@3@@Z 0045e3c0 f i fluidsim.obj
 0002:0002c3e0       ?run@?$checkTransposeAliasing_impl@V?$Matrix@M$02$02$0A@$02$02@Eigen@@V12@$0A@@internal@Eigen@@SAXABV?$Matrix@M$02$02$0A@$02$02@3@0@Z 0045e3e0 f i fluidsim.obj
 0002:0002c400       ?run@?$checkTransposeAliasing_impl@V?$Matrix@M$02$02$0A@$02$02@Eigen@@V?$Block@$$CBV?$Matrix@M$02$02$0A@$02$02@Eigen@@$0?0$0?0$0A@@2@$0A@@internal@Eigen@@SAXABV?$Matrix@M$02$02$0A@$02$02@3@ABV?$Block@$$CBV?$Matrix@M$02$02$0A@$02$02@Eigen@@$0?0$0?0$0A@@3@@Z 0045e400 f i fluidsim.obj
 0002:0002c420       ?run@?$checkTransposeAliasing_impl@V?$Matrix@M$02$02$0A@$02$02@Eigen@@V?$CoeffBasedProduct@ABV?$Matrix@M$02$02$00$02$02@Eigen@@ABV?$Matrix@M$02$02$0A@$02$02@2@$05@2@$0A@@internal@Eigen@@SAXABV?$Matrix@M$02$02$0A@$02$02@3@ABV?$CoeffBasedProduct@ABV?$Matrix@M$02$02$00$02$02@Eigen@@ABV?$Matrix@M$02$02$0A@$02$02@2@$05@3@@Z 0045e420 f i fluidsim.obj
 0002:0002c440       ?run@?$checkTransposeAliasing_impl@V?$Matrix@M$02$02$0A@$02$02@Eigen@@V?$CoeffBasedProduct@ABV?$Matrix@M$02$02$0A@$02$02@Eigen@@$$CBV?$Transpose@V?$Matrix@M$02$02$0A@$02$02@Eigen@@@2@$05@2@$0A@@internal@Eigen@@SAXABV?$Matrix@M$02$02$0A@$02$02@3@ABV?$CoeffBasedProduct@ABV?$Matrix@M$02$02$0A@$02$02@Eigen@@$$CBV?$Transpose@V?$Matrix@M$02$02$0A@$02$02@Eigen@@@2@$05@3@@Z 0045e440 f i fluidsim.obj
 0002:0002c460       ?run@?$checkTransposeAliasing_impl@V?$Matrix@M$02$02$0A@$02$02@Eigen@@V?$CoeffBasedProduct@ABV?$Matrix@M$02$02$0A@$02$02@Eigen@@ABV12@$05@2@$0A@@internal@Eigen@@SAXABV?$Matrix@M$02$02$0A@$02$02@3@ABV?$CoeffBasedProduct@ABV?$Matrix@M$02$02$0A@$02$02@Eigen@@ABV12@$05@3@@Z 0045e460 f i fluidsim.obj
 0002:0002c480       ?run@?$checkTransposeAliasing_impl@V?$Matrix@M$02$02$0A@$02$02@Eigen@@V?$CoeffBasedProduct@ABV?$Matrix@M$02$02$0A@$02$02@Eigen@@V12@$05@2@$0A@@internal@Eigen@@SAXABV?$Matrix@M$02$02$0A@$02$02@3@ABV?$CoeffBasedProduct@ABV?$Matrix@M$02$02$0A@$02$02@Eigen@@V12@$05@3@@Z 0045e480 f i fluidsim.obj
 0002:0002c4a0       ?run@?$checkTransposeAliasing_impl@V?$Matrix@M$02$02$0A@$02$02@Eigen@@V?$CwiseNullaryOp@U?$scalar_constant_op@M@internal@Eigen@@V?$Matrix@M$02$02$0A@$02$02@3@@2@$0A@@internal@Eigen@@SAXABV?$Matrix@M$02$02$0A@$02$02@3@ABV?$CwiseNullaryOp@U?$scalar_constant_op@M@internal@Eigen@@V?$Matrix@M$02$02$0A@$02$02@3@@3@@Z 0045e4a0 f i fluidsim.obj
 0002:0002c4c0       ?run@?$checkTransposeAliasing_impl@V?$Matrix@M$02$02$0A@$02$02@Eigen@@V?$CwiseNullaryOp@U?$scalar_identity_op@M@internal@Eigen@@V?$Matrix@M$02$02$0A@$02$02@3@@2@$0A@@internal@Eigen@@SAXABV?$Matrix@M$02$02$0A@$02$02@3@ABV?$CwiseNullaryOp@U?$scalar_identity_op@M@internal@Eigen@@V?$Matrix@M$02$02$0A@$02$02@3@@3@@Z 0045e4c0 f i fluidsim.obj
 0002:0002c4e0       ?run@?$checkTransposeAliasing_impl@V?$Matrix@M$02$02$0A@$02$02@Eigen@@V?$Matrix@M$02$02$00$02$02@2@$0A@@internal@Eigen@@SAXABV?$Matrix@M$02$02$0A@$02$02@3@ABV?$Matrix@M$02$02$00$02$02@3@@Z 0045e4e0 f i fluidsim.obj
 0002:0002c500       ?run@?$checkTransposeAliasing_impl@V?$SelfCwiseBinaryOp@U?$scalar_difference_op@M@internal@Eigen@@V?$Matrix@M$02$00$0A@$02$00@3@V?$CoeffBasedProduct@$$CBV?$CwiseUnaryOp@U?$scalar_multiple_op@M@internal@Eigen@@$$CBV?$Matrix@M$02$02$0A@$02$02@3@@Eigen@@ABV?$Matrix@M$02$00$0A@$02$00@2@$05@3@@Eigen@@V?$Matrix@M$02$00$0A@$02$00@2@$0A@@internal@Eigen@@SAXABV?$SelfCwiseBinaryOp@U?$scalar_difference_op@M@internal@Eigen@@V?$Matrix@M$02$00$0A@$02$00@3@V?$CoeffBasedProduct@$$CBV?$CwiseUnaryOp@U?$scalar_multiple_op@M@internal@Eigen@@$$CBV?$Matrix@M$02$02$0A@$02$02@3@@Eigen@@ABV?$Matrix@M$02$00$0A@$02$00@2@$05@3@@3@ABV?$Matrix@M$02$00$0A@$02$00@3@@Z 0045e500 f i fluidsim.obj
 0002:0002c520       ?run@?$checkTransposeAliasing_impl@V?$SelfCwiseBinaryOp@U?$scalar_product_op@MM@internal@Eigen@@V?$Block@V?$Matrix@M$02$02$0A@$02$02@Eigen@@$02$00$00@3@V?$CwiseNullaryOp@U?$scalar_constant_op@M@internal@Eigen@@V?$Matrix@M$02$00$0A@$02$00@3@@3@@Eigen@@V?$CwiseNullaryOp@U?$scalar_constant_op@M@internal@Eigen@@V?$Matrix@M$02$00$0A@$02$00@3@@2@$0A@@internal@Eigen@@SAXABV?$SelfCwiseBinaryOp@U?$scalar_product_op@MM@internal@Eigen@@V?$Block@V?$Matrix@M$02$02$0A@$02$02@Eigen@@$02$00$00@3@V?$CwiseNullaryOp@U?$scalar_constant_op@M@internal@Eigen@@V?$Matrix@M$02$00$0A@$02$00@3@@3@@3@ABV?$CwiseNullaryOp@U?$scalar_constant_op@M@internal@Eigen@@V?$Matrix@M$02$00$0A@$02$00@3@@3@@Z 0045e520 f i fluidsim.obj
 0002:0002c540       ?run@?$checkTransposeAliasing_impl@V?$SelfCwiseBinaryOp@U?$scalar_sum_op@M@internal@Eigen@@V?$Matrix@M$02$02$0A@$02$02@3@V?$CoeffBasedProduct@$$CBV?$CwiseUnaryOp@U?$scalar_multiple_op@M@internal@Eigen@@$$CBV?$Matrix@M$02$00$0A@$02$00@3@@Eigen@@$$CBV?$Transpose@V?$Matrix@M$02$00$0A@$02$00@Eigen@@@2@$0BAA@@3@@Eigen@@V?$CoeffBasedProduct@$$CBV?$CwiseUnaryOp@U?$scalar_multiple_op@M@internal@Eigen@@$$CBV?$Matrix@M$02$00$0A@$02$00@3@@Eigen@@$$CBV?$Transpose@V?$Matrix@M$02$00$0A@$02$00@Eigen@@@2@$0BAA@@2@$0A@@internal@Eigen@@SAXABV?$SelfCwiseBinaryOp@U?$scalar_sum_op@M@internal@Eigen@@V?$Matrix@M$02$02$0A@$02$02@3@V?$CoeffBasedProduct@$$CBV?$CwiseUnaryOp@U?$scalar_multiple_op@M@internal@Eigen@@$$CBV?$Matrix@M$02$00$0A@$02$00@3@@Eigen@@$$CBV?$Transpose@V?$Matrix@M$02$00$0A@$02$00@Eigen@@@2@$0BAA@@3@@3@ABV?$CoeffBasedProduct@$$CBV?$CwiseUnaryOp@U?$scalar_multiple_op@M@internal@Eigen@@$$CBV?$Matrix@M$02$00$0A@$02$00@3@@Eigen@@$$CBV?$Transpose@V?$Matrix@M$02$00$0A@$02$00@Eigen@@@2@$0BAA@@3@@Z 0045e540 f i fluidsim.obj
 0002:0002c560       ?run@?$checkTransposeAliasing_impl@V?$SwapWrapper@V?$Block@V?$Matrix@M$02$02$0A@$02$02@Eigen@@$02$00$00@Eigen@@@Eigen@@V?$Block@V?$Matrix@M$02$02$0A@$02$02@Eigen@@$02$00$00@2@$0A@@internal@Eigen@@SAXABV?$SwapWrapper@V?$Block@V?$Matrix@M$02$02$0A@$02$02@Eigen@@$02$00$00@Eigen@@@3@ABV?$Block@V?$Matrix@M$02$02$0A@$02$02@Eigen@@$02$00$00@3@@Z 0045e560 f i fluidsim.obj
 0002:0002c580       ?run@?$check_transpose_aliasing_run_time_selector@M$0A@V?$Transpose@$$CBV?$CwiseUnaryOp@U?$scalar_multiple_op@M@internal@Eigen@@$$CBV?$Matrix@M$02$00$0A@$02$00@3@@Eigen@@@Eigen@@@internal@Eigen@@SA_NPBMABV?$Transpose@$$CBV?$CwiseUnaryOp@U?$scalar_multiple_op@M@internal@Eigen@@$$CBV?$Matrix@M$02$00$0A@$02$00@3@@Eigen@@@3@@Z 0045e580 f i fluidsim.obj
 0002:0002c5e0       ?run@?$compute_inverse@V?$Matrix@M$02$02$0A@$02$02@Eigen@@V12@$02@internal@Eigen@@SAXABV?$Matrix@M$02$02$0A@$02$02@3@AAV43@@Z 0045e5e0 f i fluidsim.obj
 0002:0002c710       ?run@?$conj_impl@M$0A@@internal@Eigen@@SAMABM@Z 0045e710 f i fluidsim.obj
 0002:0002c730       ?run@?$determinant_impl@V?$Matrix@M$02$02$0A@$02$02@Eigen@@$02@internal@Eigen@@SAMABV?$Matrix@M$02$02$0A@$02$02@3@@Z 0045e730 f i fluidsim.obj
 0002:0002c7d0       ?run@?$extract_data_selector@V?$Block@V?$Matrix@M$02$02$0A@$02$02@Eigen@@$00$02$0A@@Eigen@@$00@internal@Eigen@@SAPBMABV?$Block@V?$Matrix@M$02$02$0A@$02$02@Eigen@@$00$02$0A@@3@@Z 0045e7d0 f i fluidsim.obj
 0002:0002c800       ?run@?$extract_data_selector@V?$Matrix@M$02$02$0A@$02$02@Eigen@@$00@internal@Eigen@@SAPBMABV?$Matrix@M$02$02$0A@$02$02@3@@Z 0045e800 f i fluidsim.obj
 0002:0002c830       ?run@?$extract_data_selector@V?$Transpose@$$CBV?$CwiseUnaryOp@U?$scalar_multiple_op@M@internal@Eigen@@$$CBV?$Matrix@M$02$00$0A@$02$00@3@@Eigen@@@Eigen@@$00@internal@Eigen@@SAPBMABV?$Transpose@$$CBV?$CwiseUnaryOp@U?$scalar_multiple_op@M@internal@Eigen@@$$CBV?$Matrix@M$02$00$0A@$02$00@3@@Eigen@@@3@@Z 0045e830 f i fluidsim.obj
 0002:0002c860       ?run@?$product_coeff_impl@$0A@$00V?$CwiseUnaryOp@U?$scalar_multiple_op@M@internal@Eigen@@$$CBV?$Matrix@M$02$02$0A@$02$02@3@@Eigen@@V?$Matrix@M$02$00$0A@$02$00@2@M@internal@Eigen@@SAXHHABV?$CwiseUnaryOp@U?$scalar_multiple_op@M@internal@Eigen@@$$CBV?$Matrix@M$02$02$0A@$02$02@3@@3@ABV?$Matrix@M$02$00$0A@$02$00@3@AAM@Z 0045e860 f i fluidsim.obj
 0002:0002c8f0       ?run@?$product_coeff_impl@$0A@$00V?$Matrix@M$02$02$00$02$02@Eigen@@V?$Matrix@M$02$02$0A@$02$02@2@M@internal@Eigen@@SAXHHABV?$Matrix@M$02$02$00$02$02@3@ABV?$Matrix@M$02$02$0A@$02$02@3@AAM@Z 0045e8f0 f i fluidsim.obj
 0002:0002c970       ?run@?$product_coeff_impl@$0A@$00V?$Matrix@M$02$02$0A@$02$02@Eigen@@V12@M@internal@Eigen@@SAXHHABV?$Matrix@M$02$02$0A@$02$02@3@0AAM@Z 0045e970 f i fluidsim.obj
 0002:0002c9f0       ?run@?$product_coeff_impl@$0A@$00V?$Matrix@M$02$02$0A@$02$02@Eigen@@V?$Transpose@V?$Matrix@M$02$02$0A@$02$02@Eigen@@@2@M@internal@Eigen@@SAXHHABV?$Matrix@M$02$02$0A@$02$02@3@ABV?$Transpose@V?$Matrix@M$02$02$0A@$02$02@Eigen@@@3@AAM@Z 0045e9f0 f i fluidsim.obj
 0002:0002ca70       ?run@?$product_coeff_impl@$0A@$01V?$CwiseUnaryOp@U?$scalar_multiple_op@M@internal@Eigen@@$$CBV?$Matrix@M$02$02$0A@$02$02@3@@Eigen@@V?$Matrix@M$02$00$0A@$02$00@2@M@internal@Eigen@@SAXHHABV?$CwiseUnaryOp@U?$scalar_multiple_op@M@internal@Eigen@@$$CBV?$Matrix@M$02$02$0A@$02$02@3@@3@ABV?$Matrix@M$02$00$0A@$02$00@3@AAM@Z 0045ea70 f i fluidsim.obj
 0002:0002cb00       ?run@?$product_coeff_impl@$0A@$01V?$Matrix@M$02$02$00$02$02@Eigen@@V?$Matrix@M$02$02$0A@$02$02@2@M@internal@Eigen@@SAXHHABV?$Matrix@M$02$02$00$02$02@3@ABV?$Matrix@M$02$02$0A@$02$02@3@AAM@Z 0045eb00 f i fluidsim.obj
 0002:0002cb80       ?run@?$product_coeff_impl@$0A@$01V?$Matrix@M$02$02$0A@$02$02@Eigen@@V12@M@internal@Eigen@@SAXHHABV?$Matrix@M$02$02$0A@$02$02@3@0AAM@Z 0045eb80 f i fluidsim.obj
 0002:0002cc00       ?run@?$product_coeff_impl@$0A@$01V?$Matrix@M$02$02$0A@$02$02@Eigen@@V?$Transpose@V?$Matrix@M$02$02$0A@$02$02@Eigen@@@2@M@internal@Eigen@@SAXHHABV?$Matrix@M$02$02$0A@$02$02@3@ABV?$Transpose@V?$Matrix@M$02$02$0A@$02$02@Eigen@@@3@AAM@Z 0045ec00 f i fluidsim.obj
 0002:0002cc80       ?run@?$product_coeff_impl@$0A@$0A@V?$CwiseUnaryOp@U?$scalar_multiple_op@M@internal@Eigen@@$$CBV?$Matrix@M$02$00$0A@$02$00@3@@Eigen@@V?$Transpose@V?$Matrix@M$02$00$0A@$02$00@Eigen@@@2@M@internal@Eigen@@SAXHHABV?$CwiseUnaryOp@U?$scalar_multiple_op@M@internal@Eigen@@$$CBV?$Matrix@M$02$00$0A@$02$00@3@@3@ABV?$Transpose@V?$Matrix@M$02$00$0A@$02$00@Eigen@@@3@AAM@Z 0045ec80 f i fluidsim.obj
 0002:0002cce0       ?run@?$product_coeff_impl@$0A@$0A@V?$CwiseUnaryOp@U?$scalar_multiple_op@M@internal@Eigen@@$$CBV?$Matrix@M$02$02$0A@$02$02@3@@Eigen@@V?$Matrix@M$02$00$0A@$02$00@2@M@internal@Eigen@@SAXHHABV?$CwiseUnaryOp@U?$scalar_multiple_op@M@internal@Eigen@@$$CBV?$Matrix@M$02$02$0A@$02$02@3@@3@ABV?$Matrix@M$02$00$0A@$02$00@3@AAM@Z 0045ece0 f i fluidsim.obj
 0002:0002cd40       ?run@?$product_coeff_impl@$0A@$0A@V?$Matrix@M$02$02$00$02$02@Eigen@@V?$Matrix@M$02$02$0A@$02$02@2@M@internal@Eigen@@SAXHHABV?$Matrix@M$02$02$00$02$02@3@ABV?$Matrix@M$02$02$0A@$02$02@3@AAM@Z 0045ed40 f i fluidsim.obj
 0002:0002cd90       ?run@?$product_coeff_impl@$0A@$0A@V?$Matrix@M$02$02$0A@$02$02@Eigen@@V12@M@internal@Eigen@@SAXHHABV?$Matrix@M$02$02$0A@$02$02@3@0AAM@Z 0045ed90 f i fluidsim.obj
 0002:0002cde0       ?run@?$product_coeff_impl@$0A@$0A@V?$Matrix@M$02$02$0A@$02$02@Eigen@@V?$Transpose@V?$Matrix@M$02$02$0A@$02$02@Eigen@@@2@M@internal@Eigen@@SAXHHABV?$Matrix@M$02$02$0A@$02$02@3@ABV?$Transpose@V?$Matrix@M$02$02$0A@$02$02@Eigen@@@3@AAM@Z 0045ede0 f i fluidsim.obj
 0002:0002ce30       ?run@?$qr_preconditioner_impl@V?$Matrix@M$02$02$0A@$02$02@Eigen@@$01$00$0A@@internal@Eigen@@QAE_NAAV?$JacobiSVD@V?$Matrix@M$02$02$0A@$02$02@Eigen@@$01@3@ABV?$Matrix@M$02$02$0A@$02$02@3@@Z 0045ee30 f i fluidsim.obj
 0002:0002ce50       ?run@?$qr_preconditioner_impl@V?$Matrix@M$02$02$0A@$02$02@Eigen@@$01$0A@$0A@@internal@Eigen@@QAE_NAAV?$JacobiSVD@V?$Matrix@M$02$02$0A@$02$02@Eigen@@$01@3@ABV?$Matrix@M$02$02$0A@$02$02@3@@Z 0045ee50 f i fluidsim.obj
 0002:0002ce70       ?run@?$real_default_impl@M$0A@@internal@Eigen@@SAMABM@Z 0045ee70 f i fluidsim.obj
 0002:0002ce90       ?run@?$redux_novec_unroller@U?$scalar_sum_op@M@internal@Eigen@@V?$CwiseBinaryOp@U?$scalar_product_op@MM@internal@Eigen@@$$CBV?$Matrix@M$02$00$0A@$02$00@3@$$CBV?$Block@$$CBV?$Matrix@M$02$02$0A@$02$02@Eigen@@$02$00$00@3@@3@$00$00@internal@Eigen@@SAMABV?$CwiseBinaryOp@U?$scalar_product_op@MM@internal@Eigen@@$$CBV?$Matrix@M$02$00$0A@$02$00@3@$$CBV?$Block@$$CBV?$Matrix@M$02$02$0A@$02$02@Eigen@@$02$00$00@3@@3@ABU?$scalar_sum_op@M@23@@Z 0045ee90 f i fluidsim.obj
 0002:0002cec0       ?run@?$redux_novec_unroller@U?$scalar_sum_op@M@internal@Eigen@@V?$CwiseBinaryOp@U?$scalar_product_op@MM@internal@Eigen@@$$CBV?$Matrix@M$02$00$0A@$02$00@3@$$CBV?$Block@$$CBV?$Matrix@M$02$02$0A@$02$02@Eigen@@$02$00$00@3@@3@$00$01@internal@Eigen@@SAMABV?$CwiseBinaryOp@U?$scalar_product_op@MM@internal@Eigen@@$$CBV?$Matrix@M$02$00$0A@$02$00@3@$$CBV?$Block@$$CBV?$Matrix@M$02$02$0A@$02$02@Eigen@@$02$00$00@3@@3@ABU?$scalar_sum_op@M@23@@Z 0045eec0 f i fluidsim.obj
 0002:0002cf20       ?run@?$redux_novec_unroller@U?$scalar_sum_op@M@internal@Eigen@@V?$CwiseBinaryOp@U?$scalar_product_op@MM@internal@Eigen@@$$CBV?$Matrix@M$02$00$0A@$02$00@3@$$CBV?$Block@$$CBV?$Matrix@M$02$02$0A@$02$02@Eigen@@$02$00$00@3@@3@$01$00@internal@Eigen@@SAMABV?$CwiseBinaryOp@U?$scalar_product_op@MM@internal@Eigen@@$$CBV?$Matrix@M$02$00$0A@$02$00@3@$$CBV?$Block@$$CBV?$Matrix@M$02$02$0A@$02$02@Eigen@@$02$00$00@3@@3@ABU?$scalar_sum_op@M@23@@Z 0045ef20 f i fluidsim.obj
 0002:0002cf50       ?run@?$redux_novec_unroller@U?$scalar_sum_op@M@internal@Eigen@@V?$CwiseBinaryOp@U?$scalar_product_op@MM@internal@Eigen@@$$CBV?$Matrix@M$02$00$0A@$02$00@3@$$CBV?$Block@$$CBV?$Matrix@M$02$02$0A@$02$02@Eigen@@$02$00$00@3@@3@$0A@$00@internal@Eigen@@SAMABV?$CwiseBinaryOp@U?$scalar_product_op@MM@internal@Eigen@@$$CBV?$Matrix@M$02$00$0A@$02$00@3@$$CBV?$Block@$$CBV?$Matrix@M$02$02$0A@$02$02@Eigen@@$02$00$00@3@@3@ABU?$scalar_sum_op@M@23@@Z 0045ef50 f i fluidsim.obj
 0002:0002cf80       ?run@?$redux_novec_unroller@U?$scalar_sum_op@M@internal@Eigen@@V?$CwiseBinaryOp@U?$scalar_product_op@MM@internal@Eigen@@$$CBV?$Matrix@M$02$00$0A@$02$00@3@$$CBV?$Block@$$CBV?$Matrix@M$02$02$0A@$02$02@Eigen@@$02$00$00@3@@3@$0A@$02@internal@Eigen@@SAMABV?$CwiseBinaryOp@U?$scalar_product_op@MM@internal@Eigen@@$$CBV?$Matrix@M$02$00$0A@$02$00@3@$$CBV?$Block@$$CBV?$Matrix@M$02$02$0A@$02$02@Eigen@@$02$00$00@3@@3@ABU?$scalar_sum_op@M@23@@Z 0045ef80 f i fluidsim.obj
 0002:0002cfe0       ?run@?$redux_novec_unroller@U?$scalar_sum_op@M@internal@Eigen@@V?$CwiseUnaryOp@U?$scalar_abs2_op@M@internal@Eigen@@$$CBV?$CwiseBinaryOp@U?$scalar_difference_op@M@internal@Eigen@@$$CBV?$Matrix@M$02$02$0A@$02$02@3@$$CBV43@@3@@3@$00$00@internal@Eigen@@SAMABV?$CwiseUnaryOp@U?$scalar_abs2_op@M@internal@Eigen@@$$CBV?$CwiseBinaryOp@U?$scalar_difference_op@M@internal@Eigen@@$$CBV?$Matrix@M$02$02$0A@$02$02@3@$$CBV43@@3@@3@ABU?$scalar_sum_op@M@23@@Z 0045efe0 f i fluidsim.obj
 0002:0002d010       ?run@?$redux_novec_unroller@U?$scalar_sum_op@M@internal@Eigen@@V?$CwiseUnaryOp@U?$scalar_abs2_op@M@internal@Eigen@@$$CBV?$CwiseBinaryOp@U?$scalar_difference_op@M@internal@Eigen@@$$CBV?$Matrix@M$02$02$0A@$02$02@3@$$CBV43@@3@@3@$01$00@internal@Eigen@@SAMABV?$CwiseUnaryOp@U?$scalar_abs2_op@M@internal@Eigen@@$$CBV?$CwiseBinaryOp@U?$scalar_difference_op@M@internal@Eigen@@$$CBV?$Matrix@M$02$02$0A@$02$02@3@$$CBV43@@3@@3@ABU?$scalar_sum_op@M@23@@Z 0045f010 f i fluidsim.obj
 0002:0002d040       ?run@?$redux_novec_unroller@U?$scalar_sum_op@M@internal@Eigen@@V?$CwiseUnaryOp@U?$scalar_abs2_op@M@internal@Eigen@@$$CBV?$CwiseBinaryOp@U?$scalar_difference_op@M@internal@Eigen@@$$CBV?$Matrix@M$02$02$0A@$02$02@3@$$CBV43@@3@@3@$01$01@internal@Eigen@@SAMABV?$CwiseUnaryOp@U?$scalar_abs2_op@M@internal@Eigen@@$$CBV?$CwiseBinaryOp@U?$scalar_difference_op@M@internal@Eigen@@$$CBV?$Matrix@M$02$02$0A@$02$02@3@$$CBV43@@3@@3@ABU?$scalar_sum_op@M@23@@Z 0045f040 f i fluidsim.obj
 0002:0002d0a0       ?run@?$redux_novec_unroller@U?$scalar_sum_op@M@internal@Eigen@@V?$CwiseUnaryOp@U?$scalar_abs2_op@M@internal@Eigen@@$$CBV?$CwiseBinaryOp@U?$scalar_difference_op@M@internal@Eigen@@$$CBV?$Matrix@M$02$02$0A@$02$02@3@$$CBV43@@3@@3@$02$00@internal@Eigen@@SAMABV?$CwiseUnaryOp@U?$scalar_abs2_op@M@internal@Eigen@@$$CBV?$CwiseBinaryOp@U?$scalar_difference_op@M@internal@Eigen@@$$CBV?$Matrix@M$02$02$0A@$02$02@3@$$CBV43@@3@@3@ABU?$scalar_sum_op@M@23@@Z 0045f0a0 f i fluidsim.obj
 0002:0002d0d0       ?run@?$redux_novec_unroller@U?$scalar_sum_op@M@internal@Eigen@@V?$CwiseUnaryOp@U?$scalar_abs2_op@M@internal@Eigen@@$$CBV?$CwiseBinaryOp@U?$scalar_difference_op@M@internal@Eigen@@$$CBV?$Matrix@M$02$02$0A@$02$02@3@$$CBV43@@3@@3@$03$00@internal@Eigen@@SAMABV?$CwiseUnaryOp@U?$scalar_abs2_op@M@internal@Eigen@@$$CBV?$CwiseBinaryOp@U?$scalar_difference_op@M@internal@Eigen@@$$CBV?$Matrix@M$02$02$0A@$02$02@3@$$CBV43@@3@@3@ABU?$scalar_sum_op@M@23@@Z 0045f0d0 f i fluidsim.obj
 0002:0002d100       ?run@?$redux_novec_unroller@U?$scalar_sum_op@M@internal@Eigen@@V?$CwiseUnaryOp@U?$scalar_abs2_op@M@internal@Eigen@@$$CBV?$CwiseBinaryOp@U?$scalar_difference_op@M@internal@Eigen@@$$CBV?$Matrix@M$02$02$0A@$02$02@3@$$CBV43@@3@@3@$03$01@internal@Eigen@@SAMABV?$CwiseUnaryOp@U?$scalar_abs2_op@M@internal@Eigen@@$$CBV?$CwiseBinaryOp@U?$scalar_difference_op@M@internal@Eigen@@$$CBV?$Matrix@M$02$02$0A@$02$02@3@$$CBV43@@3@@3@ABU?$scalar_sum_op@M@23@@Z 0045f100 f i fluidsim.obj
 0002:0002d160       ?run@?$redux_novec_unroller@U?$scalar_sum_op@M@internal@Eigen@@V?$CwiseUnaryOp@U?$scalar_abs2_op@M@internal@Eigen@@$$CBV?$CwiseBinaryOp@U?$scalar_difference_op@M@internal@Eigen@@$$CBV?$Matrix@M$02$02$0A@$02$02@3@$$CBV43@@3@@3@$03$04@internal@Eigen@@SAMABV?$CwiseUnaryOp@U?$scalar_abs2_op@M@internal@Eigen@@$$CBV?$CwiseBinaryOp@U?$scalar_difference_op@M@internal@Eigen@@$$CBV?$Matrix@M$02$02$0A@$02$02@3@$$CBV43@@3@@3@ABU?$scalar_sum_op@M@23@@Z 0045f160 f i fluidsim.obj
 0002:0002d1c0       ?run@?$redux_novec_unroller@U?$scalar_sum_op@M@internal@Eigen@@V?$CwiseUnaryOp@U?$scalar_abs2_op@M@internal@Eigen@@$$CBV?$CwiseBinaryOp@U?$scalar_difference_op@M@internal@Eigen@@$$CBV?$Matrix@M$02$02$0A@$02$02@3@$$CBV43@@3@@3@$04$00@internal@Eigen@@SAMABV?$CwiseUnaryOp@U?$scalar_abs2_op@M@internal@Eigen@@$$CBV?$CwiseBinaryOp@U?$scalar_difference_op@M@internal@Eigen@@$$CBV?$Matrix@M$02$02$0A@$02$02@3@$$CBV43@@3@@3@ABU?$scalar_sum_op@M@23@@Z 0045f1c0 f i fluidsim.obj
 0002:0002d1f0       ?run@?$redux_novec_unroller@U?$scalar_sum_op@M@internal@Eigen@@V?$CwiseUnaryOp@U?$scalar_abs2_op@M@internal@Eigen@@$$CBV?$CwiseBinaryOp@U?$scalar_difference_op@M@internal@Eigen@@$$CBV?$Matrix@M$02$02$0A@$02$02@3@$$CBV43@@3@@3@$05$00@internal@Eigen@@SAMABV?$CwiseUnaryOp@U?$scalar_abs2_op@M@internal@Eigen@@$$CBV?$CwiseBinaryOp@U?$scalar_difference_op@M@internal@Eigen@@$$CBV?$Matrix@M$02$02$0A@$02$02@3@$$CBV43@@3@@3@ABU?$scalar_sum_op@M@23@@Z 0045f1f0 f i fluidsim.obj
 0002:0002d220       ?run@?$redux_novec_unroller@U?$scalar_sum_op@M@internal@Eigen@@V?$CwiseUnaryOp@U?$scalar_abs2_op@M@internal@Eigen@@$$CBV?$CwiseBinaryOp@U?$scalar_difference_op@M@internal@Eigen@@$$CBV?$Matrix@M$02$02$0A@$02$02@3@$$CBV43@@3@@3@$05$02@internal@Eigen@@SAMABV?$CwiseUnaryOp@U?$scalar_abs2_op@M@internal@Eigen@@$$CBV?$CwiseBinaryOp@U?$scalar_difference_op@M@internal@Eigen@@$$CBV?$Matrix@M$02$02$0A@$02$02@3@$$CBV43@@3@@3@ABU?$scalar_sum_op@M@23@@Z 0045f220 f i fluidsim.obj
 0002:0002d280       ?run@?$redux_novec_unroller@U?$scalar_sum_op@M@internal@Eigen@@V?$CwiseUnaryOp@U?$scalar_abs2_op@M@internal@Eigen@@$$CBV?$CwiseBinaryOp@U?$scalar_difference_op@M@internal@Eigen@@$$CBV?$Matrix@M$02$02$0A@$02$02@3@$$CBV43@@3@@3@$06$00@internal@Eigen@@SAMABV?$CwiseUnaryOp@U?$scalar_abs2_op@M@internal@Eigen@@$$CBV?$CwiseBinaryOp@U?$scalar_difference_op@M@internal@Eigen@@$$CBV?$Matrix@M$02$02$0A@$02$02@3@$$CBV43@@3@@3@ABU?$scalar_sum_op@M@23@@Z 0045f280 f i fluidsim.obj
 0002:0002d2b0       ?run@?$redux_novec_unroller@U?$scalar_sum_op@M@internal@Eigen@@V?$CwiseUnaryOp@U?$scalar_abs2_op@M@internal@Eigen@@$$CBV?$CwiseBinaryOp@U?$scalar_difference_op@M@internal@Eigen@@$$CBV?$Matrix@M$02$02$0A@$02$02@3@$$CBV43@@3@@3@$06$01@internal@Eigen@@SAMABV?$CwiseUnaryOp@U?$scalar_abs2_op@M@internal@Eigen@@$$CBV?$CwiseBinaryOp@U?$scalar_difference_op@M@internal@Eigen@@$$CBV?$Matrix@M$02$02$0A@$02$02@3@$$CBV43@@3@@3@ABU?$scalar_sum_op@M@23@@Z 0045f2b0 f i fluidsim.obj
 0002:0002d310       ?run@?$redux_novec_unroller@U?$scalar_sum_op@M@internal@Eigen@@V?$CwiseUnaryOp@U?$scalar_abs2_op@M@internal@Eigen@@$$CBV?$CwiseBinaryOp@U?$scalar_difference_op@M@internal@Eigen@@$$CBV?$Matrix@M$02$02$0A@$02$02@3@$$CBV43@@3@@3@$07$00@internal@Eigen@@SAMABV?$CwiseUnaryOp@U?$scalar_abs2_op@M@internal@Eigen@@$$CBV?$CwiseBinaryOp@U?$scalar_difference_op@M@internal@Eigen@@$$CBV?$Matrix@M$02$02$0A@$02$02@3@$$CBV43@@3@@3@ABU?$scalar_sum_op@M@23@@Z 0045f310 f i fluidsim.obj
 0002:0002d340       ?run@?$redux_novec_unroller@U?$scalar_sum_op@M@internal@Eigen@@V?$CwiseUnaryOp@U?$scalar_abs2_op@M@internal@Eigen@@$$CBV?$CwiseBinaryOp@U?$scalar_difference_op@M@internal@Eigen@@$$CBV?$Matrix@M$02$02$0A@$02$02@3@$$CBV43@@3@@3@$0A@$00@internal@Eigen@@SAMABV?$CwiseUnaryOp@U?$scalar_abs2_op@M@internal@Eigen@@$$CBV?$CwiseBinaryOp@U?$scalar_difference_op@M@internal@Eigen@@$$CBV?$Matrix@M$02$02$0A@$02$02@3@$$CBV43@@3@@3@ABU?$scalar_sum_op@M@23@@Z 0045f340 f i fluidsim.obj
 0002:0002d370       ?run@?$redux_novec_unroller@U?$scalar_sum_op@M@internal@Eigen@@V?$CwiseUnaryOp@U?$scalar_abs2_op@M@internal@Eigen@@$$CBV?$CwiseBinaryOp@U?$scalar_difference_op@M@internal@Eigen@@$$CBV?$Matrix@M$02$02$0A@$02$02@3@$$CBV43@@3@@3@$0A@$01@internal@Eigen@@SAMABV?$CwiseUnaryOp@U?$scalar_abs2_op@M@internal@Eigen@@$$CBV?$CwiseBinaryOp@U?$scalar_difference_op@M@internal@Eigen@@$$CBV?$Matrix@M$02$02$0A@$02$02@3@$$CBV43@@3@@3@ABU?$scalar_sum_op@M@23@@Z 0045f370 f i fluidsim.obj
 0002:0002d3d0       ?run@?$redux_novec_unroller@U?$scalar_sum_op@M@internal@Eigen@@V?$CwiseUnaryOp@U?$scalar_abs2_op@M@internal@Eigen@@$$CBV?$CwiseBinaryOp@U?$scalar_difference_op@M@internal@Eigen@@$$CBV?$Matrix@M$02$02$0A@$02$02@3@$$CBV43@@3@@3@$0A@$03@internal@Eigen@@SAMABV?$CwiseUnaryOp@U?$scalar_abs2_op@M@internal@Eigen@@$$CBV?$CwiseBinaryOp@U?$scalar_difference_op@M@internal@Eigen@@$$CBV?$Matrix@M$02$02$0A@$02$02@3@$$CBV43@@3@@3@ABU?$scalar_sum_op@M@23@@Z 0045f3d0 f i fluidsim.obj
 0002:0002d430       ?run@?$redux_novec_unroller@U?$scalar_sum_op@M@internal@Eigen@@V?$CwiseUnaryOp@U?$scalar_abs2_op@M@internal@Eigen@@$$CBV?$CwiseBinaryOp@U?$scalar_difference_op@M@internal@Eigen@@$$CBV?$Matrix@M$02$02$0A@$02$02@3@$$CBV43@@3@@3@$0A@$08@internal@Eigen@@SAMABV?$CwiseUnaryOp@U?$scalar_abs2_op@M@internal@Eigen@@$$CBV?$CwiseBinaryOp@U?$scalar_difference_op@M@internal@Eigen@@$$CBV?$Matrix@M$02$02$0A@$02$02@3@$$CBV43@@3@@3@ABU?$scalar_sum_op@M@23@@Z 0045f430 f i fluidsim.obj
 0002:0002d490       ?run@?$setIdentity_impl@V?$Matrix@M$02$02$0A@$02$02@Eigen@@$0A@@internal@Eigen@@SAAAV?$Matrix@M$02$02$0A@$02$02@3@AAV43@@Z 0045f490 f i fluidsim.obj
 0002:0002d500       ?run@?$svd_precondition_2x2_block_to_be_real@V?$Matrix@M$02$02$0A@$02$02@Eigen@@$01$0A@@internal@Eigen@@SAXAAV?$Matrix@M$02$02$0A@$02$02@3@AAV?$JacobiSVD@V?$Matrix@M$02$02$0A@$02$02@Eigen@@$01@3@HH@Z 0045f500 f i fluidsim.obj
 0002:0002d520       ?run@?$visitor_impl@U?$max_coeff_visitor@V?$Block@V?$Matrix@M$02$00$0A@$02$00@Eigen@@$0?0$00$0A@@Eigen@@@internal@Eigen@@V?$Block@V?$Matrix@M$02$00$0A@$02$00@Eigen@@$0?0$00$0A@@3@$0?0@internal@Eigen@@SAXABV?$Block@V?$Matrix@M$02$00$0A@$02$00@Eigen@@$0?0$00$0A@@3@AAU?$max_coeff_visitor@V?$Block@V?$Matrix@M$02$00$0A@$02$00@Eigen@@$0?0$00$0A@@Eigen@@@23@@Z 0045f520 f i fluidsim.obj
 0002:0002d620       ?s@?$JacobiRotation@M@Eigen@@QAEAAMXZ 0045f620 f i fluidsim.obj
 0002:0002d640       ?s@?$JacobiRotation@M@Eigen@@QBEMXZ 0045f640 f i fluidsim.obj
 0002:0002d660       ?seekoff@?$basic_filebuf@DU?$char_traits@D@std@@@std@@MAE?AV?$fpos@H@2@_JHH@Z 0045f660 f i fluidsim.obj
 0002:0002d780       ?seekoff@?$basic_stringbuf@DU?$char_traits@D@std@@V?$allocator@D@2@@std@@MAE?AV?$fpos@H@2@_JHH@Z 0045f780 f i fluidsim.obj
 0002:0002daf0       ?seekpos@?$basic_filebuf@DU?$char_traits@D@std@@@std@@MAE?AV?$fpos@H@2@V32@H@Z 0045faf0 f i fluidsim.obj
 0002:0002dc20       ?seekpos@?$basic_stringbuf@DU?$char_traits@D@std@@V?$allocator@D@2@@std@@MAE?AV?$fpos@H@2@V32@H@Z 0045fc20 f i fluidsim.obj
 0002:0002dea0       ?seekpos@?$fpos@H@std@@QBE_JXZ 0045fea0 f i fluidsim.obj
 0002:0002ded0       ?select_on_container_copy_construction@?$_Wrap_alloc@V?$allocator@D@std@@@std@@QBE?AU12@XZ 0045fed0 f i fluidsim.obj
 0002:0002df10       ?select_on_container_copy_construction@?$allocator@D@std@@QBE?AV12@XZ 0045ff10 f i fluidsim.obj
 0002:0002df40       ?select_on_container_copy_construction@?$allocator_traits@V?$allocator@D@std@@@std@@SA?AV?$allocator@D@2@ABV32@@Z 0045ff40 f i fluidsim.obj
 0002:0002df70       ?setIdentity@?$MatrixBase@V?$Matrix@M$02$02$0A@$02$02@Eigen@@@Eigen@@QAEAAV?$Matrix@M$02$02$0A@$02$02@2@HH@Z 0045ff70 f i fluidsim.obj
 0002:0002dfc0       ?setIdentity@?$MatrixBase@V?$Matrix@M$02$02$0A@$02$02@Eigen@@@Eigen@@QAEAAV?$Matrix@M$02$02$0A@$02$02@2@XZ 0045ffc0 f i fluidsim.obj
 0002:0002dff0       ?set_boundary@FluidSim@@QAEXP6AMABU?$Vec@$02M@@@Z@Z 0045fff0 f   fluidsim.obj
 0002:0002e140       ?set_boundary@FluidSim@@QAEXV?$basic_string@DU?$char_traits@D@std@@V?$allocator@D@2@@std@@@Z 00460140 f   fluidsim.obj
 0002:0002e1e0       ?set_liquid@FluidSim@@QAEXP6AMABU?$Vec@$02M@@@Z@Z 004601e0 f   fluidsim.obj
 0002:0002e4f0       ?set_liquid@FluidSim@@QAEXV?$basic_string@DU?$char_traits@D@std@@V?$allocator@D@2@@std@@@Z 004604f0 f   fluidsim.obj
 0002:0002e970       ?set_zero@?$Array1@H@@QAEXXZ 00460970 f i fluidsim.obj
 0002:0002e9b0       ?set_zero@?$Array1@M@@QAEXXZ 004609b0 f i fluidsim.obj
 0002:0002e9f0       ?set_zero@?$Array3@HU?$Array1@H@@@@QAEXXZ 004609f0 f i fluidsim.obj
 0002:0002ea20       ?set_zero@?$Array3@MU?$Array1@M@@@@QAEXXZ 00460a20 f i fluidsim.obj
 0002:0002ea50       ?setbuf@?$basic_filebuf@DU?$char_traits@D@std@@@std@@MAEPAV?$basic_streambuf@DU?$char_traits@D@std@@@2@PAD_J@Z 00460a50 f i fluidsim.obj
 0002:0002eaf0       ?singularValues@?$JacobiSVD@V?$Matrix@M$02$02$0A@$02$02@Eigen@@$01@Eigen@@QBEABV?$Matrix@M$02$00$0A@$02$00@2@XZ 00460af0 f i fluidsim.obj
 0002:0002eb50       ?size@?$Array1@H@@QBEKXZ   00460b50 f i fluidsim.obj
 0002:0002eb70       ?size@?$Array1@M@@QBEKXZ   00460b70 f i fluidsim.obj
 0002:0002eb90       ?size@?$Array3@HU?$Array1@H@@@@QBEKXZ 00460b90 f i fluidsim.obj
 0002:0002ebc0       ?size@?$EigenBase@V?$Block@V?$Matrix@M$01$01$0A@$01$01@Eigen@@$00$01$0A@@Eigen@@@Eigen@@QBEHXZ 00460bc0 f i fluidsim.obj
 0002:0002ec00       ?size@?$EigenBase@V?$Block@V?$Matrix@M$02$02$0A@$02$02@Eigen@@$00$02$0A@@Eigen@@@Eigen@@QBEHXZ 00460c00 f i fluidsim.obj
 0002:0002ec40       ?size@?$EigenBase@V?$Block@V?$Matrix@M$02$02$0A@$02$02@Eigen@@$02$00$00@Eigen@@@Eigen@@QBEHXZ 00460c40 f i fluidsim.obj
 0002:0002ec80       ?size@?$EigenBase@V?$Matrix@M$01$01$0A@$01$01@Eigen@@@Eigen@@QBEHXZ 00460c80 f i fluidsim.obj
 0002:0002ecc0       ?size@?$EigenBase@V?$Matrix@M$02$00$0A@$02$00@Eigen@@@Eigen@@QBEHXZ 00460cc0 f i fluidsim.obj
 0002:0002ed00       ?size@?$EigenBase@V?$Matrix@M$02$02$0A@$02$02@Eigen@@@Eigen@@QBEHXZ 00460d00 f i fluidsim.obj
 0002:0002ed40       ?size@?$basic_string@DU?$char_traits@D@std@@V?$allocator@D@2@@std@@QBEIXZ 00460d40 f i fluidsim.obj
 0002:0002ed60       ?size@?$vector@U?$Vec@$02I@@V?$allocator@U?$Vec@$02I@@@std@@@std@@QBEIXZ 00460d60 f i fluidsim.obj
 0002:0002ed90       ?size@?$vector@U?$Vec@$02M@@V?$allocator@U?$Vec@$02M@@@std@@@std@@QBEIXZ 00460d90 f i fluidsim.obj
 0002:0002edc0       ?size@?$vector@UParticle@@V?$allocator@UParticle@@@std@@@std@@QBEIXZ 00460dc0 f i fluidsim.obj
 0002:0002edf0       ?sort_particles@FluidSim@@AAEXXZ 00460df0 f   fluidsim.obj
 0002:0002f330       ?sqrt@@YAMM@Z              00461330 f i fluidsim.obj
 0002:0002f360       ?squaredNorm@?$MatrixBase@V?$CwiseBinaryOp@U?$scalar_difference_op@M@internal@Eigen@@$$CBV?$Matrix@M$02$02$0A@$02$02@3@$$CBV43@@Eigen@@@Eigen@@QBEMXZ 00461360 f i fluidsim.obj
 0002:0002f3b0       ?state@?$fpos@H@std@@QBEHXZ 004613b0 f i fluidsim.obj
 0002:0002f3d0       ?substr@?$basic_string@DU?$char_traits@D@std@@V?$allocator@D@2@@std@@QBE?AV12@II@Z 004613d0 f i fluidsim.obj
 0002:0002f430       ?sum@?$DenseBase@V?$CwiseBinaryOp@U?$scalar_product_op@MM@internal@Eigen@@$$CBV?$Matrix@M$02$00$0A@$02$00@3@$$CBV?$Block@$$CBV?$Matrix@M$02$02$0A@$02$02@Eigen@@$02$00$00@3@@Eigen@@@Eigen@@QBEMXZ 00461430 f i fluidsim.obj
 0002:0002f470       ?sum@?$DenseBase@V?$CwiseUnaryOp@U?$scalar_abs2_op@M@internal@Eigen@@$$CBV?$CwiseBinaryOp@U?$scalar_difference_op@M@internal@Eigen@@$$CBV?$Matrix@M$02$02$0A@$02$02@3@$$CBV43@@3@@Eigen@@@Eigen@@QBEMXZ 00461470 f i fluidsim.obj
 0002:0002f4b0       ?sync@?$basic_filebuf@DU?$char_traits@D@std@@@std@@MAEHXZ 004614b0 f i fluidsim.obj
 0002:0002f550       ?system_category@std@@YAABVerror_category@1@XZ 00461550 f i fluidsim.obj
 0002:0002f570       ?tail@?$DenseBase@V?$Matrix@M$02$00$0A@$02$00@Eigen@@@Eigen@@QAE?AV?$VectorBlock@V?$Matrix@M$02$00$0A@$02$00@Eigen@@$0?0@2@H@Z 00461570 f i fluidsim.obj
 0002:0002f5c0       ?to_char_type@?$char_traits@D@std@@SADABH@Z 004615c0 f i fluidsim.obj
 0002:0002f5e0       ?to_int_type@?$char_traits@D@std@@SAHABD@Z 004615e0 f i fluidsim.obj
 0002:0002f600       ?to_string@std@@YA?AV?$basic_string@DU?$char_traits@D@std@@V?$allocator@D@2@@1@H@Z 00461600 f i fluidsim.obj
 0002:0002f680       ?trace_rk2@FluidSim@@AAE?AU?$Vec@$02M@@ABU2@M@Z 00461680 f   fluidsim.obj
 0002:0002f7a0       ?transpose@?$DenseBase@V?$CwiseUnaryOp@U?$scalar_multiple_op@M@internal@Eigen@@$$CBV?$Matrix@M$02$00$0A@$02$00@3@@Eigen@@@Eigen@@QBE?BV?$Transpose@$$CBV?$CwiseUnaryOp@U?$scalar_multiple_op@M@internal@Eigen@@$$CBV?$Matrix@M$02$00$0A@$02$00@3@@Eigen@@@2@XZ 004617a0 f i fluidsim.obj
 0002:0002f7e0       ?transpose@?$DenseBase@V?$Matrix@M$02$00$0A@$02$00@Eigen@@@Eigen@@QAE?AV?$Transpose@V?$Matrix@M$02$00$0A@$02$00@Eigen@@@2@XZ 004617e0 f i fluidsim.obj
 0002:0002f820       ?transpose@?$DenseBase@V?$Matrix@M$02$02$0A@$02$02@Eigen@@@Eigen@@QAE?AV?$Transpose@V?$Matrix@M$02$02$0A@$02$02@Eigen@@@2@XZ 00461820 f i fluidsim.obj
 0002:0002f860       ?transpose@?$JacobiRotation@M@Eigen@@QBE?AV12@XZ 00461860 f i fluidsim.obj
 0002:0002f8c0       ?uflow@?$basic_filebuf@DU?$char_traits@D@std@@@std@@MAEHXZ 004618c0 f i fluidsim.obj
 0002:0002fcc0       ?underflow@?$basic_filebuf@DU?$char_traits@D@std@@@std@@MAEHXZ 00461cc0 f i fluidsim.obj
 0002:0002fd80       ?underflow@?$basic_stringbuf@DU?$char_traits@D@std@@V?$allocator@D@2@@std@@MAEHXZ 00461d80 f i fluidsim.obj
 0002:00030820       ?update_deform_gradient@FluidSim@@AAEXM@Z 00462820 f   fluidsim.obj
 0002:00030870       ?update_grid_velocities@FluidSim@@AAEXXZ 00462870 f   fluidsim.obj
 0002:00030b80       ?update_particle_positions@FluidSim@@AAEXM@Z 00462b80 f   fluidsim.obj
 0002:00031330       ?update_particle_velocities@FluidSim@@AAEXXZ 00463330 f   fluidsim.obj
 0002:000316d0       ?update_temp_velocities@FluidSim@@AAEXM@Z 004636d0 f   fluidsim.obj
 0002:00031720       ?value@?$variable_if_dynamic@H$00@internal@Eigen@@SAHXZ 00463720 f i fluidsim.obj
 0002:00031740       ?value@?$variable_if_dynamic@H$01@internal@Eigen@@SAHXZ 00463740 f i fluidsim.obj
 0002:00031760       ?value@?$variable_if_dynamic@H$02@internal@Eigen@@SAHXZ 00463760 f i fluidsim.obj
 0002:00031780       ?value@?$variable_if_dynamic@H$0?0@internal@Eigen@@QBEHXZ 00463780 f i fluidsim.obj
 0002:000317a0       ?value@error_code@std@@QBEHXZ 004637a0 f i fluidsim.obj
 0002:000317c0       ?value@error_condition@std@@QBEHXZ 004637c0 f i fluidsim.obj
 0002:000317e0       _expf                      004637e0 f i fluidsim.obj
 0002:00031830       _fabsf                     00463830 f i fluidsim.obj
 0002:00031880       _floorf                    00463880 f i fluidsim.obj
 0002:000318d0       _sqrtf                     004638d0 f i fluidsim.obj
 0002:00031920       ??$?D$01M@@YA?AU?$Vec@$01M@@MABU0@@Z 00463920 f i gluvi.obj
 0002:00031990       ??$_Destroy_range@U?$_Wrap_alloc@V?$allocator@PAUWidget@Gluvi@@@std@@@std@@@std@@YAXPAPAUWidget@Gluvi@@0AAU?$_Wrap_alloc@V?$allocator@PAUWidget@Gluvi@@@std@@@0@@Z 00463990 f i gluvi.obj
 0002:000319e0       ??$_Destroy_range@U?$_Wrap_alloc@V?$allocator@PAUWidget@Gluvi@@@std@@@std@@@std@@YAXPAPAUWidget@Gluvi@@0AAU?$_Wrap_alloc@V?$allocator@PAUWidget@Gluvi@@@std@@@0@U_Scalar_ptr_iterator_tag@0@@Z 004639e0 f i gluvi.obj
 0002:00031a00       ??$_Pow_int@N@@YANNH@Z     00463a00 f i gluvi.obj
 0002:00031ac0       ??$_Ptr_cat@PAUWidget@Gluvi@@PAU12@@std@@YA?AU_Scalar_ptr_iterator_tag@0@PAPAUWidget@Gluvi@@0@Z 00463ac0 f i gluvi.obj
 0002:00031ae0       ??$cross@M@@YA?AU?$Vec@$02M@@ABU0@0@Z 00463ae0 f i gluvi.obj
 0002:00031c20       ??$mag2@$01M@@YAMABU?$Vec@$01M@@@Z 00463c20 f i gluvi.obj
 0002:00031cb0       ??$mag@$01M@@YAMABU?$Vec@$01M@@@Z 00463cb0 f i gluvi.obj
 0002:00031ce0       ??0?$Vec@$01M@@QAE@MM@Z    00463ce0 f i gluvi.obj
 0002:00031d40       ??0?$Vec@$01M@@QAE@XZ      00463d40 f i gluvi.obj
 0002:00031d60       ??0?$_Vector_alloc@$0A@U?$_Vec_base_types@PAUWidget@Gluvi@@V?$allocator@PAUWidget@Gluvi@@@std@@@std@@@std@@QAE@ABV?$allocator@PAUWidget@Gluvi@@@1@@Z 00463d60 f i gluvi.obj
 0002:00031d90       ??0?$_Vector_val@U?$_Simple_types@PAUWidget@Gluvi@@@std@@@std@@QAE@XZ 00463d90 f i gluvi.obj
 0002:00031dd0       ??0?$_Wrap_alloc@V?$allocator@PAUWidget@Gluvi@@@std@@@std@@QAE@XZ 00463dd0 f i gluvi.obj
 0002:00031e00       ??0?$allocator@PAUWidget@Gluvi@@@std@@QAE@XZ 00463e00 f i gluvi.obj
 0002:00031e20       ??0?$vector@PAUWidget@Gluvi@@V?$allocator@PAUWidget@Gluvi@@@std@@@std@@QAE@XZ 00463e20 f i gluvi.obj
 0002:00031e50       ??0Button@Gluvi@@QAE@PBDH@Z 00463e50 f   gluvi.obj
 0002:00031eb0       ??0Camera@Gluvi@@QAE@XZ    00463eb0 f i gluvi.obj
 0002:00031ee0       ??0PanZoom2D@Gluvi@@QAE@MMM@Z 00463ee0 f   gluvi.obj
 0002:00031f80       ??0Slider@Gluvi@@QAE@PBDHHH@Z 00463f80 f   gluvi.obj
 0002:00031ff0       ??0StaticText@Gluvi@@QAE@PBD@Z 00463ff0 f   gluvi.obj
 0002:00032030       ??0Target3D@Gluvi@@QAE@QAMMMMMMM@Z 00464030 f   gluvi.obj
 0002:00032240       ??0TargetOrtho3D@Gluvi@@QAE@QAMMMMMMM@Z 00464240 f   gluvi.obj
 0002:00032450       ??0Widget@Gluvi@@QAE@XZ    00464450 f i gluvi.obj
 0002:00032480       ??0WidgetList@Gluvi@@QAE@H_N@Z 00464480 f   gluvi.obj
 0002:00032530       ??1?$vector@PAUWidget@Gluvi@@V?$allocator@PAUWidget@Gluvi@@@std@@@std@@QAE@XZ 00464530 f i gluvi.obj
 0002:00032560       ??1Button@Gluvi@@UAE@XZ    00464560 f i gluvi.obj
 0002:00032590       ??1Camera@Gluvi@@UAE@XZ    00464590 f i gluvi.obj
 0002:000325c0       ??1PanZoom2D@Gluvi@@UAE@XZ 004645c0 f i gluvi.obj
 0002:000325f0       ??1Slider@Gluvi@@UAE@XZ    004645f0 f i gluvi.obj
 0002:00032620       ??1StaticText@Gluvi@@UAE@XZ 00464620 f i gluvi.obj
 0002:00032650       ??1Target3D@Gluvi@@UAE@XZ  00464650 f i gluvi.obj
 0002:00032680       ??1TargetOrtho3D@Gluvi@@UAE@XZ 00464680 f i gluvi.obj
 0002:000326b0       ??1Widget@Gluvi@@UAE@XZ    004646b0 f i gluvi.obj
 0002:000326e0       ??1WidgetList@Gluvi@@UAE@XZ 004646e0 f i gluvi.obj
 0002:00032710       ??A?$Vec@$01M@@QAEAAMH@Z   00464710 f i gluvi.obj
 0002:00032760       ??A?$Vec@$01M@@QBEABMH@Z   00464760 f i gluvi.obj
 0002:000327b0       ??A?$vector@PAUWidget@Gluvi@@V?$allocator@PAUWidget@Gluvi@@@std@@@std@@QAEAAPAUWidget@Gluvi@@I@Z 004647b0 f i gluvi.obj
 0002:000327e0       ??G?$Vec@$01M@@QBE?AU0@ABU0@@Z 004647e0 f i gluvi.obj
 0002:00032850       ??H?$Vec@$01M@@QBE?AU0@ABU0@@Z 00464850 f i gluvi.obj
 0002:000328c0       ??K?$Vec@$01M@@QBE?AU0@M@Z 004648c0 f i gluvi.obj
 0002:00032940       ??X?$Vec@$01M@@QAE?AU0@M@Z 00464940 f i gluvi.obj
 0002:000329c0       ??Y?$Vec@$01M@@QAE?AU0@ABU0@@Z 004649c0 f i gluvi.obj
 0002:00032a50       ??Z?$Vec@$01M@@QAE?AU0@ABU0@@Z 00464a50 f i gluvi.obj
 0002:00032ae0       ??_0?$Vec@$01M@@QAE?AU0@M@Z 00464ae0 f i gluvi.obj
 0002:00032b60       ??_EButton@Gluvi@@UAEPAXI@Z 00464b60 f i gluvi.obj
 0002:00032b60       ??_GButton@Gluvi@@UAEPAXI@Z 00464b60 f i gluvi.obj
 0002:00032bb0       ??_ECamera@Gluvi@@UAEPAXI@Z 00464bb0 f i gluvi.obj
 0002:00032bb0       ??_GCamera@Gluvi@@UAEPAXI@Z 00464bb0 f i gluvi.obj
 0002:00032c00       ??_GPanZoom2D@Gluvi@@UAEPAXI@Z 00464c00 f i gluvi.obj
 0002:00032c00       ??_EPanZoom2D@Gluvi@@UAEPAXI@Z 00464c00 f i gluvi.obj
 0002:00032c50       ??_GSlider@Gluvi@@UAEPAXI@Z 00464c50 f i gluvi.obj
 0002:00032c50       ??_ESlider@Gluvi@@UAEPAXI@Z 00464c50 f i gluvi.obj
 0002:00032ca0       ??_EStaticText@Gluvi@@UAEPAXI@Z 00464ca0 f i gluvi.obj
 0002:00032ca0       ??_GStaticText@Gluvi@@UAEPAXI@Z 00464ca0 f i gluvi.obj
 0002:00032cf0       ??_GTarget3D@Gluvi@@UAEPAXI@Z 00464cf0 f i gluvi.obj
 0002:00032cf0       ??_ETarget3D@Gluvi@@UAEPAXI@Z 00464cf0 f i gluvi.obj
 0002:00032d40       ??_ETargetOrtho3D@Gluvi@@UAEPAXI@Z 00464d40 f i gluvi.obj
 0002:00032d40       ??_GTargetOrtho3D@Gluvi@@UAEPAXI@Z 00464d40 f i gluvi.obj
 0002:00032d90       ??_GWidget@Gluvi@@UAEPAXI@Z 00464d90 f i gluvi.obj
 0002:00032d90       ??_EWidget@Gluvi@@UAEPAXI@Z 00464d90 f i gluvi.obj
 0002:00032de0       ??_GWidgetList@Gluvi@@UAEPAXI@Z 00464de0 f i gluvi.obj
 0002:00032de0       ??_EWidgetList@Gluvi@@UAEPAXI@Z 00464de0 f i gluvi.obj
 0002:00032e30       ?_Destroy@?$vector@PAUWidget@Gluvi@@V?$allocator@PAUWidget@Gluvi@@@std@@@std@@IAEXPAPAUWidget@Gluvi@@0@Z 00464e30 f i gluvi.obj
 0002:00032e80       ?_Getal@?$_Vector_alloc@$0A@U?$_Vec_base_types@PAUWidget@Gluvi@@V?$allocator@PAUWidget@Gluvi@@@std@@@std@@@std@@QBE?AU?$_Wrap_alloc@V?$allocator@PAUWidget@Gluvi@@@std@@@2@XZ 00464e80 f i gluvi.obj
 0002:00032eb0       ?_Tidy@?$vector@PAUWidget@Gluvi@@V?$allocator@PAUWidget@Gluvi@@@std@@@std@@IAEXXZ 00464eb0 f i gluvi.obj
 0002:00032f50       ?action@Button@Gluvi@@UAEXXZ 00464f50 f i gluvi.obj
 0002:00032f70       ?action@Slider@Gluvi@@UAEXXZ 00464f70 f i gluvi.obj
 0002:00032f90       ?click@Button@Gluvi@@UAE_NHHH@Z 00464f90 f   gluvi.obj
 0002:000330b0       ?click@PanZoom2D@Gluvi@@UAEXHHHH@Z 004650b0 f   gluvi.obj
 0002:00033660       ?click@Slider@Gluvi@@UAE_NHHH@Z 00465660 f   gluvi.obj
 0002:00033730       ?click@Target3D@Gluvi@@UAEXHHHH@Z 00465730 f   gluvi.obj
 0002:000337c0       ?click@TargetOrtho3D@Gluvi@@UAEXHHHH@Z 004657c0 f   gluvi.obj
 0002:00033850       ?click@Widget@Gluvi@@UAE_NHHH@Z 00465850 f i gluvi.obj
 0002:00033870       ?click@WidgetList@Gluvi@@UAE_NHHH@Z 00465870 f   gluvi.obj
 0002:00033970       ?cos@@YAMM@Z               00465970 f i gluvi.obj
 0002:000339a0       ?deallocate@?$_Wrap_alloc@V?$allocator@PAUWidget@Gluvi@@@std@@@std@@QAEXPAPAUWidget@Gluvi@@I@Z 004659a0 f i gluvi.obj
 0002:000339d0       ?deallocate@?$allocator@PAUWidget@Gluvi@@@std@@QAEXPAPAUWidget@Gluvi@@I@Z 004659d0 f i gluvi.obj
 0002:00033a00       ?display@Button@Gluvi@@UAEXHH@Z 00465a00 f   gluvi.obj
 0002:00033e20       ?display@Slider@Gluvi@@UAEXHH@Z 00465e20 f   gluvi.obj
 0002:000344b0       ?display@StaticText@Gluvi@@UAEXHH@Z 004664b0 f   gluvi.obj
 0002:00034660       ?display@WidgetList@Gluvi@@UAEXHH@Z 00466660 f   gluvi.obj
 0002:000347e0       ?display_screen@Camera@Gluvi@@UAEXXZ 004667e0 f i gluvi.obj
 0002:00034800       ?display_screen@PanZoom2D@Gluvi@@UAEXXZ 00466800 f   gluvi.obj
 0002:00034930       ?drag@Button@Gluvi@@UAEXHH@Z 00466930 f   gluvi.obj
 0002:00034a20       ?drag@PanZoom2D@Gluvi@@UAEXHH@Z 00466a20 f   gluvi.obj
 0002:00034b20       ?drag@Slider@Gluvi@@UAEXHH@Z 00466b20 f   gluvi.obj
 0002:00034c00       ?drag@Target3D@Gluvi@@UAEXHH@Z 00466c00 f   gluvi.obj
 0002:00034fa0       ?drag@TargetOrtho3D@Gluvi@@UAEXHH@Z 00466fa0 f   gluvi.obj
 0002:00035340       ?drag@Widget@Gluvi@@UAEXHH@Z 00467340 f i gluvi.obj
 0002:00035360       ?drag@WidgetList@Gluvi@@UAEXHH@Z 00467360 f   gluvi.obj
 0002:000353c0       ?draw_2d_arrow@Gluvi@@YAXU?$Vec@$01M@@0M@Z 004673c0 f   gluvi.obj
 0002:00035820       ?draw_3d_arrow@Gluvi@@YAXQBM0M@Z 00467820 f   gluvi.obj
 0002:00036000       ?draw_coordinate_grid@Gluvi@@YAXMH@Z 00468000 f   gluvi.obj
 0002:00036450       ?draw_text@Gluvi@@YAXQBMPBDH@Z 00468450 f   gluvi.obj
 0002:00036470       ?export_rib@PanZoom2D@Gluvi@@UAEXAAV?$basic_ostream@DU?$char_traits@D@std@@@std@@@Z 00468470 f   gluvi.obj
 0002:000366e0       ?export_rib@Target3D@Gluvi@@UAEXAAV?$basic_ostream@DU?$char_traits@D@std@@@std@@@Z 004686e0 f   gluvi.obj
 0002:000369f0       ?export_rib@TargetOrtho3D@Gluvi@@UAEXAAV?$basic_ostream@DU?$char_traits@D@std@@@std@@@Z 004689f0 f   gluvi.obj
 0002:00036ce0       ?get_viewing_direction@Target3D@Gluvi@@QAEXQAM@Z 00468ce0 f   gluvi.obj
 0002:00036df0       ?get_viewing_direction@TargetOrtho3D@Gluvi@@QAEXQAM@Z 00468df0 f   gluvi.obj
 0002:00036f00       ?gl_transform@PanZoom2D@Gluvi@@UAEXXZ 00468f00 f   gluvi.obj
 0002:00037020       ?gl_transform@Target3D@Gluvi@@UAEXXZ 00469020 f   gluvi.obj
 0002:00037400       ?gl_transform@TargetOrtho3D@Gluvi@@UAEXXZ 00469400 f   gluvi.obj
 0002:00037c40       ?init@Gluvi@@YAXPBDPAHPAPAD@Z 00469c40 f   gluvi.obj
 0002:00037d70       ?pow@@YANNH@Z              00469d70 f i gluvi.obj
 0002:00037db0       ?ppm_screenshot@Gluvi@@YAXPBDZZ 00469db0 f   gluvi.obj
 0002:00038030       ?return_to_default@PanZoom2D@Gluvi@@UAEXXZ 0046a030 f   gluvi.obj
 0002:00038080       ?return_to_default@Target3D@Gluvi@@UAEXXZ 0046a080 f   gluvi.obj
 0002:00038140       ?return_to_default@TargetOrtho3D@Gluvi@@UAEXXZ 0046a140 f   gluvi.obj
 0002:00038200       ?run@Gluvi@@YAXXZ          0046a200 f   gluvi.obj
 0002:00038220       ?set_generic_lights@Gluvi@@YAXXZ 0046a220 f   gluvi.obj
 0002:00038440       ?set_generic_material@Gluvi@@YAXMMMI@Z 0046a440 f   gluvi.obj
 0002:000386c0       ?set_matte_material@Gluvi@@YAXMMMI@Z 0046a6c0 f   gluvi.obj
 0002:000388e0       ?sgi_screenshot@Gluvi@@YAXPBDZZ 0046a8e0 f   gluvi.obj
 0002:00038d40       ?sin@@YAMM@Z               0046ad40 f i gluvi.obj
 0002:00038d70       ?size@?$vector@PAUWidget@Gluvi@@V?$allocator@PAUWidget@Gluvi@@@std@@@std@@QBEIXZ 0046ad70 f i gluvi.obj
 0002:00038da0       ?tan@@YAMM@Z               0046ada0 f i gluvi.obj
 0002:00038dd0       ?transform_mouse@PanZoom2D@Gluvi@@QAEXHHQAM@Z 0046add0 f   gluvi.obj
 0002:00038e70       ?transform_mouse@Target3D@Gluvi@@QAEXHHQAM0@Z 0046ae70 f   gluvi.obj
 0002:00039380       ?transform_mouse@TargetOrtho3D@Gluvi@@QAEXHHQAM0@Z 0046b380 f   gluvi.obj
 0002:00039490       _cosf                      0046b490 f i gluvi.obj
 0002:000394e0       _sinf                      0046b4e0 f i gluvi.obj
 0002:00039530       _tanf                      0046b530 f i gluvi.obj
 0002:00039610       ?fraction_inside@@YAMMM@Z  0046b610 f   levelset_util.obj
 0002:000396e0       ?fraction_inside@@YAMMMMM@Z 0046b6e0 f   levelset_util.obj
 0002:00039f70       ??$?0M@?$tvec3@M@detail@glm@@QAE@ABU?$tvec4@M@12@@Z 0046bf70 f i main.obj
 0002:00039fc0       ??$?8II@std@@YA_NABV?$allocator@I@0@0@Z 0046bfc0 f i main.obj
 0002:00039fe0       ??$?8NN@std@@YA_NABV?$allocator@N@0@0@Z 0046bfe0 f i main.obj
 0002:0003a000       ??$?8V?$_Vector_iterator@V?$_Vector_val@U?$_Simple_types@I@std@@@std@@@std@@V01@@std@@YA_NABV?$move_iterator@V?$_Vector_iterator@V?$_Vector_val@U?$_Simple_types@I@std@@@std@@@std@@@0@0@Z 0046c000 f i main.obj
 0002:0003a030       ??$?8V?$_Vector_iterator@V?$_Vector_val@U?$_Simple_types@N@std@@@std@@@std@@V01@@std@@YA_NABV?$move_iterator@V?$_Vector_iterator@V?$_Vector_val@U?$_Simple_types@N@std@@@std@@@std@@@0@0@Z 0046c030 f i main.obj
 0002:0003a060       ??$?8V?$allocator@I@std@@V01@@std@@YA_NABU?$_Wrap_alloc@V?$allocator@I@std@@@0@0@Z 0046c060 f i main.obj
 0002:0003a0a0       ??$?8V?$allocator@N@std@@V01@@std@@YA_NABU?$_Wrap_alloc@V?$allocator@N@std@@@0@0@Z 0046c0a0 f i main.obj
 0002:0003a0e0       ??$?9V?$_Vector_iterator@V?$_Vector_val@U?$_Simple_types@I@std@@@std@@@std@@V01@@std@@YA_NABV?$move_iterator@V?$_Vector_iterator@V?$_Vector_val@U?$_Simple_types@I@std@@@std@@@std@@@0@0@Z 0046c0e0 f i main.obj
 0002:0003a130       ??$?9V?$_Vector_iterator@V?$_Vector_val@U?$_Simple_types@N@std@@@std@@@std@@V01@@std@@YA_NABV?$move_iterator@V?$_Vector_iterator@V?$_Vector_val@U?$_Simple_types@N@std@@@std@@@std@@@0@0@Z 0046c130 f i main.obj
 0002:0003a180       ??$?9V?$allocator@I@std@@V01@@std@@YA_NABU?$_Wrap_alloc@V?$allocator@I@std@@@0@0@Z 0046c180 f i main.obj
 0002:0003a1d0       ??$?9V?$allocator@N@std@@V01@@std@@YA_NABU?$_Wrap_alloc@V?$allocator@N@std@@@0@0@Z 0046c1d0 f i main.obj
 0002:0003a220       ??$?GV?$_Vector_iterator@V?$_Vector_val@U?$_Simple_types@I@std@@@std@@@std@@V01@@std@@YAHAAV?$move_iterator@V?$_Vector_iterator@V?$_Vector_val@U?$_Simple_types@I@std@@@std@@@std@@@0@ABV10@@Z 0046c220 f i main.obj
 0002:0003a260       ??$?GV?$_Vector_iterator@V?$_Vector_val@U?$_Simple_types@N@std@@@std@@@std@@V01@@std@@YAHAAV?$move_iterator@V?$_Vector_iterator@V?$_Vector_val@U?$_Simple_types@N@std@@@std@@@std@@@0@ABV10@@Z 0046c260 f i main.obj
 0002:0003a2a0       ??$_Advance@PAIH@std@@YAXAAPAIHUrandom_access_iterator_tag@0@@Z 0046c2a0 f i main.obj
 0002:0003a2d0       ??$_Advance@PANH@std@@YAXAAPANHUrandom_access_iterator_tag@0@@Z 0046c2d0 f i main.obj
 0002:0003a300       ??$_Allocate@H@std@@YAPAHIPAH@Z 0046c300 f i main.obj
 0002:0003a360       ??$_Allocate@I@std@@YAPAIIPAI@Z 0046c360 f i main.obj
 0002:0003a3c0       ??$_Allocate@N@std@@YAPANIPAN@Z 0046c3c0 f i main.obj
 0002:0003a420       ??$_Allocate@V?$vector@IV?$allocator@I@std@@@std@@@std@@YAPAV?$vector@IV?$allocator@I@std@@@0@IPAV10@@Z 0046c420 f i main.obj
 0002:0003a480       ??$_Allocate@V?$vector@NV?$allocator@N@std@@@std@@@std@@YAPAV?$vector@NV?$allocator@N@std@@@0@IPAV10@@Z 0046c480 f i main.obj
 0002:0003a4e0       ??$_Destroy_range@U?$_Wrap_alloc@V?$allocator@H@std@@@std@@@std@@YAXPAH0AAU?$_Wrap_alloc@V?$allocator@H@std@@@0@@Z 0046c4e0 f i main.obj
 0002:0003a530       ??$_Destroy_range@U?$_Wrap_alloc@V?$allocator@H@std@@@std@@@std@@YAXPAH0AAU?$_Wrap_alloc@V?$allocator@H@std@@@0@U_Scalar_ptr_iterator_tag@0@@Z 0046c530 f i main.obj
 0002:0003a550       ??$_Destroy_range@U?$_Wrap_alloc@V?$allocator@I@std@@@std@@@std@@YAXPAI0AAU?$_Wrap_alloc@V?$allocator@I@std@@@0@@Z 0046c550 f i main.obj
 0002:0003a5a0       ??$_Destroy_range@U?$_Wrap_alloc@V?$allocator@I@std@@@std@@@std@@YAXPAI0AAU?$_Wrap_alloc@V?$allocator@I@std@@@0@U_Scalar_ptr_iterator_tag@0@@Z 0046c5a0 f i main.obj
 0002:0003a5c0       ??$_Destroy_range@U?$_Wrap_alloc@V?$allocator@N@std@@@std@@@std@@YAXPAN0AAU?$_Wrap_alloc@V?$allocator@N@std@@@0@@Z 0046c5c0 f i main.obj
 0002:0003a610       ??$_Destroy_range@U?$_Wrap_alloc@V?$allocator@N@std@@@std@@@std@@YAXPAN0AAU?$_Wrap_alloc@V?$allocator@N@std@@@0@U_Scalar_ptr_iterator_tag@0@@Z 0046c610 f i main.obj
 0002:0003a630       ??$_Destroy_range@U?$_Wrap_alloc@V?$allocator@V?$vector@IV?$allocator@I@std@@@std@@@std@@@std@@@std@@YAXPAV?$vector@IV?$allocator@I@std@@@0@0AAU?$_Wrap_alloc@V?$allocator@V?$vector@IV?$allocator@I@std@@@std@@@std@@@0@@Z 0046c630 f i main.obj
 0002:0003a680       ??$_Destroy_range@U?$_Wrap_alloc@V?$allocator@V?$vector@IV?$allocator@I@std@@@std@@@std@@@std@@@std@@YAXPAV?$vector@IV?$allocator@I@std@@@0@0AAU?$_Wrap_alloc@V?$allocator@V?$vector@IV?$allocator@I@std@@@std@@@std@@@0@U_Nonscalar_ptr_iterator_tag@0@@Z 0046c680 f i main.obj
 0002:0003a6c0       ??$_Destroy_range@U?$_Wrap_alloc@V?$allocator@V?$vector@NV?$allocator@N@std@@@std@@@std@@@std@@@std@@YAXPAV?$vector@NV?$allocator@N@std@@@0@0AAU?$_Wrap_alloc@V?$allocator@V?$vector@NV?$allocator@N@std@@@std@@@std@@@0@@Z 0046c6c0 f i main.obj
 0002:0003a710       ??$_Destroy_range@U?$_Wrap_alloc@V?$allocator@V?$vector@NV?$allocator@N@std@@@std@@@std@@@std@@@std@@YAXPAV?$vector@NV?$allocator@N@std@@@0@0AAU?$_Wrap_alloc@V?$allocator@V?$vector@NV?$allocator@N@std@@@std@@@std@@@0@U_Nonscalar_ptr_iterator_tag@0@@Z 0046c710 f i main.obj
 0002:0003a750       ??$_Dist_type@PAI@std@@YAPAHPAI@Z 0046c750 f i main.obj
 0002:0003a770       ??$_Dist_type@PAN@std@@YAPAHPAN@Z 0046c770 f i main.obj
 0002:0003a790       ??$_Distance2@PAIH@std@@YAXPAI0AAHUrandom_access_iterator_tag@0@@Z 0046c790 f i main.obj
 0002:0003a7c0       ??$_Distance2@PANH@std@@YAXPAN0AAHUrandom_access_iterator_tag@0@@Z 0046c7c0 f i main.obj
 0002:0003a7f0       ??$_Distance2@V?$move_iterator@V?$_Vector_iterator@V?$_Vector_val@U?$_Simple_types@I@std@@@std@@@std@@@std@@I@std@@YAXV?$move_iterator@V?$_Vector_iterator@V?$_Vector_val@U?$_Simple_types@I@std@@@std@@@std@@@0@0AAIUrandom_access_iterator_tag@0@@Z 0046c7f0 f i main.obj
 0002:0003a830       ??$_Distance2@V?$move_iterator@V?$_Vector_iterator@V?$_Vector_val@U?$_Simple_types@N@std@@@std@@@std@@@std@@I@std@@YAXV?$move_iterator@V?$_Vector_iterator@V?$_Vector_val@U?$_Simple_types@N@std@@@std@@@std@@@0@0AAIUrandom_access_iterator_tag@0@@Z 0046c830 f i main.obj
 0002:0003a870       ??$_Distance@V?$move_iterator@V?$_Vector_iterator@V?$_Vector_val@U?$_Simple_types@I@std@@@std@@@std@@@std@@I@std@@YAXV?$move_iterator@V?$_Vector_iterator@V?$_Vector_val@U?$_Simple_types@I@std@@@std@@@std@@@0@0AAI@Z 0046c870 f i main.obj
 0002:0003a8c0       ??$_Distance@V?$move_iterator@V?$_Vector_iterator@V?$_Vector_val@U?$_Simple_types@N@std@@@std@@@std@@@std@@I@std@@YAXV?$move_iterator@V?$_Vector_iterator@V?$_Vector_val@U?$_Simple_types@N@std@@@std@@@std@@@0@0AAI@Z 0046c8c0 f i main.obj
 0002:0003a910       ??$_Equal@V?$_Vector_iterator@V?$_Vector_val@U?$_Simple_types@I@std@@@std@@@std@@@?$move_iterator@V?$_Vector_iterator@V?$_Vector_val@U?$_Simple_types@I@std@@@std@@@std@@@std@@QBE_NABV01@@Z 0046c910 f i main.obj
 0002:0003a950       ??$_Equal@V?$_Vector_iterator@V?$_Vector_val@U?$_Simple_types@N@std@@@std@@@std@@@?$move_iterator@V?$_Vector_iterator@V?$_Vector_val@U?$_Simple_types@N@std@@@std@@@std@@@std@@QBE_NABV01@@Z 0046c950 f i main.obj
 0002:0003a990       ??$_Fill_n@PAIII@std@@YAPAIPAIIABI@Z 0046c990 f i main.obj
 0002:0003a9e0       ??$_Fill_n@PANIN@std@@YAPANPANIABN@Z 0046c9e0 f i main.obj
 0002:0003aa30       ??$_Insert@V?$move_iterator@V?$_Vector_iterator@V?$_Vector_val@U?$_Simple_types@I@std@@@std@@@std@@@std@@@?$vector@IV?$allocator@I@std@@@std@@QAEXV?$_Vector_const_iterator@V?$_Vector_val@U?$_Simple_types@I@std@@@std@@@1@V?$move_iterator@V?$_Vector_iterator@V?$_Vector_val@U?$_Simple_types@I@std@@@std@@@std@@@1@1Uforward_iterator_tag@1@@Z 0046ca30 f i main.obj
 0002:0003ad20       ??$_Insert@V?$move_iterator@V?$_Vector_iterator@V?$_Vector_val@U?$_Simple_types@N@std@@@std@@@std@@@std@@@?$vector@NV?$allocator@N@std@@@std@@QAEXV?$_Vector_const_iterator@V?$_Vector_val@U?$_Simple_types@N@std@@@std@@@1@V?$move_iterator@V?$_Vector_iterator@V?$_Vector_val@U?$_Simple_types@N@std@@@std@@@std@@@1@1Uforward_iterator_tag@1@@Z 0046cd20 f i main.obj
 0002:0003b010       ??$_Iter_cat@PAI@std@@YA?AUrandom_access_iterator_tag@0@ABQAI@Z 0046d010 f i main.obj
 0002:0003b040       ??$_Iter_cat@PAN@std@@YA?AUrandom_access_iterator_tag@0@ABQAN@Z 0046d040 f i main.obj
 0002:0003b070       ??$_Iter_cat@V?$move_iterator@V?$_Vector_iterator@V?$_Vector_val@U?$_Simple_types@I@std@@@std@@@std@@@std@@@std@@YA?AUrandom_access_iterator_tag@0@ABV?$move_iterator@V?$_Vector_iterator@V?$_Vector_val@U?$_Simple_types@I@std@@@std@@@std@@@0@@Z 0046d070 f i main.obj
 0002:0003b0a0       ??$_Iter_cat@V?$move_iterator@V?$_Vector_iterator@V?$_Vector_val@U?$_Simple_types@N@std@@@std@@@std@@@std@@@std@@YA?AUrandom_access_iterator_tag@0@ABV?$move_iterator@V?$_Vector_iterator@V?$_Vector_val@U?$_Simple_types@N@std@@@std@@@std@@@0@@Z 0046d0a0 f i main.obj
 0002:0003b0d0       ??$_Move@AAI@std@@YA$$QAIAAI@Z 0046d0d0 f i main.obj
 0002:0003b0f0       ??$_Move@AAN@std@@YA$$QANAAN@Z 0046d0f0 f i main.obj
 0002:0003b110       ??$_Move@PAIPAI@std@@YAPAIPAI00@Z 0046d110 f i main.obj
 0002:0003b160       ??$_Move@PAIPAI@std@@YAPAIPAI00U_Scalar_ptr_iterator_tag@0@@Z 0046d160 f i main.obj
 0002:0003b1b0       ??$_Move@PANPAN@std@@YAPANPAN00@Z 0046d1b0 f i main.obj
 0002:0003b200       ??$_Move@PANPAN@std@@YAPANPAN00U_Scalar_ptr_iterator_tag@0@@Z 0046d200 f i main.obj
 0002:0003b250       ??$_Move@PAV?$vector@IV?$allocator@I@std@@@std@@PAV12@@std@@YAPAV?$vector@IV?$allocator@I@std@@@0@PAV10@00@Z 0046d250 f i main.obj
 0002:0003b2a0       ??$_Move@PAV?$vector@IV?$allocator@I@std@@@std@@PAV12@@std@@YAPAV?$vector@IV?$allocator@I@std@@@0@PAV10@00U_Nonscalar_ptr_iterator_tag@0@@Z 0046d2a0 f i main.obj
 0002:0003b300       ??$_Move@PAV?$vector@NV?$allocator@N@std@@@std@@PAV12@@std@@YAPAV?$vector@NV?$allocator@N@std@@@0@PAV10@00@Z 0046d300 f i main.obj
 0002:0003b350       ??$_Move@PAV?$vector@NV?$allocator@N@std@@@std@@PAV12@@std@@YAPAV?$vector@NV?$allocator@N@std@@@0@PAV10@00U_Nonscalar_ptr_iterator_tag@0@@Z 0046d350 f i main.obj
 0002:0003b3b0       ??$_Ptr_cat@HH@std@@YA?AU_Scalar_ptr_iterator_tag@0@PAH0@Z 0046d3b0 f i main.obj
 0002:0003b3d0       ??$_Ptr_cat@II@std@@YA?AU_Scalar_ptr_iterator_tag@0@PAI0@Z 0046d3d0 f i main.obj
 0002:0003b3f0       ??$_Ptr_cat@NN@std@@YA?AU_Scalar_ptr_iterator_tag@0@PAN0@Z 0046d3f0 f i main.obj
 0002:0003b410       ??$_Ptr_cat@V?$_Vector_const_iterator@V?$_Vector_val@U?$_Simple_types@H@std@@@std@@@std@@PAH@std@@YA?AU_Nonscalar_ptr_iterator_tag@0@AAV?$_Vector_const_iterator@V?$_Vector_val@U?$_Simple_types@H@std@@@std@@@0@AAPAH@Z 0046d410 f i main.obj
 0002:0003b430       ??$_Ptr_cat@V?$move_iterator@V?$_Vector_iterator@V?$_Vector_val@U?$_Simple_types@I@std@@@std@@@std@@@std@@PAI@std@@YA?AU_Nonscalar_ptr_iterator_tag@0@AAV?$move_iterator@V?$_Vector_iterator@V?$_Vector_val@U?$_Simple_types@I@std@@@std@@@std@@@0@AAPAI@Z 0046d430 f i main.obj
 0002:0003b450       ??$_Ptr_cat@V?$move_iterator@V?$_Vector_iterator@V?$_Vector_val@U?$_Simple_types@N@std@@@std@@@std@@@std@@PAN@std@@YA?AU_Nonscalar_ptr_iterator_tag@0@AAV?$move_iterator@V?$_Vector_iterator@V?$_Vector_val@U?$_Simple_types@N@std@@@std@@@std@@@0@AAPAN@Z 0046d450 f i main.obj
 0002:0003b470       ??$_Ptr_cat@V?$vector@IV?$allocator@I@std@@@std@@V12@@std@@YA?AU_Nonscalar_ptr_iterator_tag@0@PAV?$vector@IV?$allocator@I@std@@@0@0@Z 0046d470 f i main.obj
 0002:0003b490       ??$_Ptr_cat@V?$vector@NV?$allocator@N@std@@@std@@V12@@std@@YA?AU_Nonscalar_ptr_iterator_tag@0@PAV?$vector@NV?$allocator@N@std@@@0@0@Z 0046d490 f i main.obj
 0002:0003b4b0       ??$_Rotate@PAI@std@@YAXPAI00Urandom_access_iterator_tag@0@@Z 0046d4b0 f i main.obj
 0002:0003b500       ??$_Rotate@PAIHI@std@@YAXPAI00PAH0@Z 0046d500 f i main.obj
 0002:0003b650       ??$_Rotate@PAN@std@@YAXPAN00Urandom_access_iterator_tag@0@@Z 0046d650 f i main.obj
 0002:0003b6a0       ??$_Rotate@PANHN@std@@YAXPAN00PAH0@Z 0046d6a0 f i main.obj
 0002:0003b7f0       ??$_Ucopy@V?$_Vector_const_iterator@V?$_Vector_val@U?$_Simple_types@H@std@@@std@@@std@@@?$vector@HV?$allocator@H@std@@@std@@IAEPAHV?$_Vector_const_iterator@V?$_Vector_val@U?$_Simple_types@H@std@@@std@@@1@0PAH@Z 0046d7f0 f i main.obj
 0002:0003b840       ??$_Ucopy@V?$move_iterator@V?$_Vector_iterator@V?$_Vector_val@U?$_Simple_types@I@std@@@std@@@std@@@std@@@?$vector@IV?$allocator@I@std@@@std@@IAEPAIV?$move_iterator@V?$_Vector_iterator@V?$_Vector_val@U?$_Simple_types@I@std@@@std@@@std@@@1@0PAI@Z 0046d840 f i main.obj
 0002:0003b890       ??$_Ucopy@V?$move_iterator@V?$_Vector_iterator@V?$_Vector_val@U?$_Simple_types@N@std@@@std@@@std@@@std@@@?$vector@NV?$allocator@N@std@@@std@@IAEPANV?$move_iterator@V?$_Vector_iterator@V?$_Vector_val@U?$_Simple_types@N@std@@@std@@@std@@@1@0PAN@Z 0046d890 f i main.obj
 0002:0003b8e0       ??$_Umove@PAI@?$vector@IV?$allocator@I@std@@@std@@IAEPAIPAI00@Z 0046d8e0 f i main.obj
 0002:0003b930       ??$_Umove@PAN@?$vector@NV?$allocator@N@std@@@std@@IAEPANPAN00@Z 0046d930 f i main.obj
 0002:0003b980       ??$_Umove@PAV?$vector@IV?$allocator@I@std@@@std@@@?$vector@V?$vector@IV?$allocator@I@std@@@std@@V?$allocator@V?$vector@IV?$allocator@I@std@@@std@@@2@@std@@IAEPAV?$vector@IV?$allocator@I@std@@@1@PAV21@00@Z 0046d980 f i main.obj
 0002:0003b9d0       ??$_Umove@PAV?$vector@NV?$allocator@N@std@@@std@@@?$vector@V?$vector@NV?$allocator@N@std@@@std@@V?$allocator@V?$vector@NV?$allocator@N@std@@@std@@@2@@std@@IAEPAV?$vector@NV?$allocator@N@std@@@1@PAV21@00@Z 0046d9d0 f i main.obj
 0002:0003ba20       ??$_Unchecked@PAI@std@@YAPAIPAI@Z 0046da20 f i main.obj
 0002:0003ba40       ??$_Unchecked@PAN@std@@YAPANPAN@Z 0046da40 f i main.obj
 0002:0003ba60       ??$_Uninit_copy@V?$_Vector_const_iterator@V?$_Vector_val@U?$_Simple_types@H@std@@@std@@@std@@PAHV?$allocator@H@2@@std@@YAPAHV?$_Vector_const_iterator@V?$_Vector_val@U?$_Simple_types@H@std@@@std@@@0@0PAHAAU?$_Wrap_alloc@V?$allocator@H@std@@@0@U_Nonscalar_ptr_iterator_tag@0@@Z 0046da60 f i main.obj
 0002:0003bb70       ??$_Uninit_copy@V?$move_iterator@V?$_Vector_iterator@V?$_Vector_val@U?$_Simple_types@I@std@@@std@@@std@@@std@@PAIV?$allocator@I@2@@std@@YAPAIV?$move_iterator@V?$_Vector_iterator@V?$_Vector_val@U?$_Simple_types@I@std@@@std@@@std@@@0@0PAIAAU?$_Wrap_alloc@V?$allocator@I@std@@@0@U_Nonscalar_ptr_iterator_tag@0@@Z 0046db70 f i main.obj
 0002:0003bc90       ??$_Uninit_copy@V?$move_iterator@V?$_Vector_iterator@V?$_Vector_val@U?$_Simple_types@N@std@@@std@@@std@@@std@@PANV?$allocator@N@2@@std@@YAPANV?$move_iterator@V?$_Vector_iterator@V?$_Vector_val@U?$_Simple_types@N@std@@@std@@@std@@@0@0PANAAU?$_Wrap_alloc@V?$allocator@N@std@@@0@U_Nonscalar_ptr_iterator_tag@0@@Z 0046dc90 f i main.obj
 0002:0003bdb0       ??$_Uninit_def_fill_n@III@std@@YAXPAIIAAU?$_Wrap_alloc@V?$allocator@I@std@@@0@0U_Scalar_ptr_iterator_tag@0@@Z 0046ddb0 f i main.obj
 0002:0003bdf0       ??$_Uninit_def_fill_n@NIN@std@@YAXPANIAAU?$_Wrap_alloc@V?$allocator@N@std@@@0@0U_Scalar_ptr_iterator_tag@0@@Z 0046ddf0 f i main.obj
 0002:0003be30       ??$_Uninit_def_fill_n@PAV?$vector@IV?$allocator@I@std@@@std@@IV?$allocator@V?$vector@IV?$allocator@I@std@@@std@@@2@V12@@std@@YAXPAV?$vector@IV?$allocator@I@std@@@0@IAAU?$_Wrap_alloc@V?$allocator@V?$vector@IV?$allocator@I@std@@@std@@@std@@@0@0U_Nonscalar_ptr_iterator_tag@0@@Z 0046de30 f i main.obj
 0002:0003bf20       ??$_Uninit_def_fill_n@PAV?$vector@NV?$allocator@N@std@@@std@@IV?$allocator@V?$vector@NV?$allocator@N@std@@@std@@@2@V12@@std@@YAXPAV?$vector@NV?$allocator@N@std@@@0@IAAU?$_Wrap_alloc@V?$allocator@V?$vector@NV?$allocator@N@std@@@std@@@std@@@0@0U_Nonscalar_ptr_iterator_tag@0@@Z 0046df20 f i main.obj
 0002:0003c010       ??$_Uninit_move@III@std@@YAPAIPAI00AAU?$_Wrap_alloc@V?$allocator@I@std@@@0@0U_Scalar_ptr_iterator_tag@0@@Z 0046e010 f i main.obj
 0002:0003c060       ??$_Uninit_move@NNN@std@@YAPANPAN00AAU?$_Wrap_alloc@V?$allocator@N@std@@@0@0U_Scalar_ptr_iterator_tag@0@@Z 0046e060 f i main.obj
 0002:0003c0b0       ??$_Uninit_move@PAV?$vector@IV?$allocator@I@std@@@std@@PAV12@V?$allocator@V?$vector@IV?$allocator@I@std@@@std@@@2@V12@@std@@YAPAV?$vector@IV?$allocator@I@std@@@0@PAV10@00AAU?$_Wrap_alloc@V?$allocator@V?$vector@IV?$allocator@I@std@@@std@@@std@@@0@0U_Nonscalar_ptr_iterator_tag@0@@Z 0046e0b0 f i main.obj
 0002:0003c1a0       ??$_Uninit_move@PAV?$vector@NV?$allocator@N@std@@@std@@PAV12@V?$allocator@V?$vector@NV?$allocator@N@std@@@std@@@2@V12@@std@@YAPAV?$vector@NV?$allocator@N@std@@@0@PAV10@00AAU?$_Wrap_alloc@V?$allocator@V?$vector@NV?$allocator@N@std@@@std@@@std@@@0@0U_Nonscalar_ptr_iterator_tag@0@@Z 0046e1a0 f i main.obj
 0002:0003c290       ??$_Uninitialized_copy@V?$_Vector_const_iterator@V?$_Vector_val@U?$_Simple_types@H@std@@@std@@@std@@PAHU?$_Wrap_alloc@V?$allocator@H@std@@@2@@std@@YAPAHV?$_Vector_const_iterator@V?$_Vector_val@U?$_Simple_types@H@std@@@std@@@0@0PAHAAU?$_Wrap_alloc@V?$allocator@H@std@@@0@@Z 0046e290 f i main.obj
 0002:0003c2e0       ??$_Uninitialized_copy@V?$move_iterator@V?$_Vector_iterator@V?$_Vector_val@U?$_Simple_types@I@std@@@std@@@std@@@std@@PAIU?$_Wrap_alloc@V?$allocator@I@std@@@2@@std@@YAPAIV?$move_iterator@V?$_Vector_iterator@V?$_Vector_val@U?$_Simple_types@I@std@@@std@@@std@@@0@0PAIAAU?$_Wrap_alloc@V?$allocator@I@std@@@0@@Z 0046e2e0 f i main.obj
 0002:0003c330       ??$_Uninitialized_copy@V?$move_iterator@V?$_Vector_iterator@V?$_Vector_val@U?$_Simple_types@N@std@@@std@@@std@@@std@@PANU?$_Wrap_alloc@V?$allocator@N@std@@@2@@std@@YAPANV?$move_iterator@V?$_Vector_iterator@V?$_Vector_val@U?$_Simple_types@N@std@@@std@@@std@@@0@0PANAAU?$_Wrap_alloc@V?$allocator@N@std@@@0@@Z 0046e330 f i main.obj
 0002:0003c380       ??$_Uninitialized_default_fill_n@PAIIU?$_Wrap_alloc@V?$allocator@I@std@@@std@@@std@@YAXPAIIAAU?$_Wrap_alloc@V?$allocator@I@std@@@0@@Z 0046e380 f i main.obj
 0002:0003c3e0       ??$_Uninitialized_default_fill_n@PANIU?$_Wrap_alloc@V?$allocator@N@std@@@std@@@std@@YAXPANIAAU?$_Wrap_alloc@V?$allocator@N@std@@@0@@Z 0046e3e0 f i main.obj
 0002:0003c440       ??$_Uninitialized_default_fill_n@PAV?$vector@IV?$allocator@I@std@@@std@@IU?$_Wrap_alloc@V?$allocator@V?$vector@IV?$allocator@I@std@@@std@@@std@@@2@@std@@YAXPAV?$vector@IV?$allocator@I@std@@@0@IAAU?$_Wrap_alloc@V?$allocator@V?$vector@IV?$allocator@I@std@@@std@@@std@@@0@@Z 0046e440 f i main.obj
 0002:0003c4a0       ??$_Uninitialized_default_fill_n@PAV?$vector@NV?$allocator@N@std@@@std@@IU?$_Wrap_alloc@V?$allocator@V?$vector@NV?$allocator@N@std@@@std@@@std@@@2@@std@@YAXPAV?$vector@NV?$allocator@N@std@@@0@IAAU?$_Wrap_alloc@V?$allocator@V?$vector@NV?$allocator@N@std@@@std@@@std@@@0@@Z 0046e4a0 f i main.obj
 0002:0003c500       ??$_Uninitialized_move@PAIPAIU?$_Wrap_alloc@V?$allocator@I@std@@@std@@@std@@YAPAIPAI00AAU?$_Wrap_alloc@V?$allocator@I@std@@@0@@Z 0046e500 f i main.obj
 0002:0003c560       ??$_Uninitialized_move@PANPANU?$_Wrap_alloc@V?$allocator@N@std@@@std@@@std@@YAPANPAN00AAU?$_Wrap_alloc@V?$allocator@N@std@@@0@@Z 0046e560 f i main.obj
 0002:0003c5c0       ??$_Uninitialized_move@PAV?$vector@IV?$allocator@I@std@@@std@@PAV12@U?$_Wrap_alloc@V?$allocator@V?$vector@IV?$allocator@I@std@@@std@@@std@@@2@@std@@YAPAV?$vector@IV?$allocator@I@std@@@0@PAV10@00AAU?$_Wrap_alloc@V?$allocator@V?$vector@IV?$allocator@I@std@@@std@@@std@@@0@@Z 0046e5c0 f i main.obj
 0002:0003c620       ??$_Uninitialized_move@PAV?$vector@NV?$allocator@N@std@@@std@@PAV12@U?$_Wrap_alloc@V?$allocator@V?$vector@NV?$allocator@N@std@@@std@@@std@@@2@@std@@YAPAV?$vector@NV?$allocator@N@std@@@0@PAV10@00AAU?$_Wrap_alloc@V?$allocator@V?$vector@NV?$allocator@N@std@@@std@@@std@@@0@@Z 0046e620 f i main.obj
 0002:0003c680       ??$_Val_type@PAI@std@@YAPAIPAI@Z 0046e680 f i main.obj
 0002:0003c6a0       ??$_Val_type@PAN@std@@YAPANPAN@Z 0046e6a0 f i main.obj
 0002:0003c6c0       ??$_Val_type@PAV?$vector@IV?$allocator@I@std@@@std@@@std@@YAPAV?$vector@IV?$allocator@I@std@@@0@PAV10@@Z 0046e6c0 f i main.obj
 0002:0003c6e0       ??$_Val_type@PAV?$vector@NV?$allocator@N@std@@@std@@@std@@YAPAV?$vector@NV?$allocator@N@std@@@0@PAV10@@Z 0046e6e0 f i main.obj
 0002:0003c700       ??$advance@PAIH@std@@YAXAAPAIH@Z 0046e700 f i main.obj
 0002:0003c750       ??$advance@PANH@std@@YAXAAPANH@Z 0046e750 f i main.obj
 0002:0003c7a0       ??$assign@V?$move_iterator@V?$_Vector_iterator@V?$_Vector_val@U?$_Simple_types@I@std@@@std@@@std@@@std@@@?$vector@IV?$allocator@I@std@@@std@@QAEXV?$move_iterator@V?$_Vector_iterator@V?$_Vector_val@U?$_Simple_types@I@std@@@std@@@std@@@1@0@Z 0046e7a0 f i main.obj
 0002:0003c840       ??$assign@V?$move_iterator@V?$_Vector_iterator@V?$_Vector_val@U?$_Simple_types@N@std@@@std@@@std@@@std@@@?$vector@NV?$allocator@N@std@@@std@@QAEXV?$move_iterator@V?$_Vector_iterator@V?$_Vector_val@U?$_Simple_types@N@std@@@std@@@std@@@1@0@Z 0046e840 f i main.obj
 0002:0003c8e0       ??$construct@HABH@?$_Wrap_alloc@V?$allocator@H@std@@@std@@QAEXPAHABH@Z 0046e8e0 f i main.obj
 0002:0003c920       ??$construct@HABH@?$allocator_traits@V?$allocator@H@std@@@std@@SAXAAV?$allocator@H@1@PAHABH@Z 0046e920 f i main.obj
 0002:0003c960       ??$construct@II@?$_Wrap_alloc@V?$allocator@I@std@@@std@@QAEXPAI$$QAI@Z 0046e960 f i main.obj
 0002:0003c9a0       ??$construct@II@?$allocator@I@std@@QAEXPAI$$QAI@Z 0046e9a0 f i main.obj
 0002:0003ca50       ??$construct@II@?$allocator_traits@V?$allocator@I@std@@@std@@SAXAAV?$allocator@I@1@PAI$$QAI@Z 0046ea50 f i main.obj
 0002:0003ca90       ??$construct@NN@?$_Wrap_alloc@V?$allocator@N@std@@@std@@QAEXPAN$$QAN@Z 0046ea90 f i main.obj
 0002:0003cad0       ??$construct@NN@?$allocator@N@std@@QAEXPAN$$QAN@Z 0046ead0 f i main.obj
 0002:0003cb90       ??$construct@NN@?$allocator_traits@V?$allocator@N@std@@@std@@SAXAAV?$allocator@N@1@PAN$$QAN@Z 0046eb90 f i main.obj
 0002:0003cbd0       ??$construct@V?$vector@IV?$allocator@I@std@@@std@@@?$allocator_traits@V?$allocator@V?$vector@IV?$allocator@I@std@@@std@@@std@@@std@@SAXAAV?$allocator@V?$vector@IV?$allocator@I@std@@@std@@@1@PAV?$vector@IV?$allocator@I@std@@@1@@Z 0046ebd0 f i main.obj
 0002:0003cc00       ??$construct@V?$vector@IV?$allocator@I@std@@@std@@V12@@?$_Wrap_alloc@V?$allocator@V?$vector@IV?$allocator@I@std@@@std@@@std@@@std@@QAEXPAV?$vector@IV?$allocator@I@std@@@1@$$QAV21@@Z 0046ec00 f i main.obj
 0002:0003cc40       ??$construct@V?$vector@IV?$allocator@I@std@@@std@@V12@@?$allocator@V?$vector@IV?$allocator@I@std@@@std@@@std@@QAEXPAV?$vector@IV?$allocator@I@std@@@1@$$QAV21@@Z 0046ec40 f i main.obj
 0002:0003ccf0       ??$construct@V?$vector@IV?$allocator@I@std@@@std@@V12@@?$allocator_traits@V?$allocator@V?$vector@IV?$allocator@I@std@@@std@@@std@@@std@@SAXAAV?$allocator@V?$vector@IV?$allocator@I@std@@@std@@@1@PAV?$vector@IV?$allocator@I@std@@@1@$$QAV31@@Z 0046ecf0 f i main.obj
 0002:0003cd30       ??$construct@V?$vector@NV?$allocator@N@std@@@std@@@?$allocator_traits@V?$allocator@V?$vector@NV?$allocator@N@std@@@std@@@std@@@std@@SAXAAV?$allocator@V?$vector@NV?$allocator@N@std@@@std@@@1@PAV?$vector@NV?$allocator@N@std@@@1@@Z 0046ed30 f i main.obj
 0002:0003cd60       ??$construct@V?$vector@NV?$allocator@N@std@@@std@@V12@@?$_Wrap_alloc@V?$allocator@V?$vector@NV?$allocator@N@std@@@std@@@std@@@std@@QAEXPAV?$vector@NV?$allocator@N@std@@@1@$$QAV21@@Z 0046ed60 f i main.obj
 0002:0003cda0       ??$construct@V?$vector@NV?$allocator@N@std@@@std@@V12@@?$allocator@V?$vector@NV?$allocator@N@std@@@std@@@std@@QAEXPAV?$vector@NV?$allocator@N@std@@@1@$$QAV21@@Z 0046eda0 f i main.obj
 0002:0003ce50       ??$construct@V?$vector@NV?$allocator@N@std@@@std@@V12@@?$allocator_traits@V?$allocator@V?$vector@NV?$allocator@N@std@@@std@@@std@@@std@@SAXAAV?$allocator@V?$vector@NV?$allocator@N@std@@@std@@@1@PAV?$vector@NV?$allocator@N@std@@@1@$$QAV31@@Z 0046ee50 f i main.obj
 0002:0003ce90       ??$destroy@H@?$_Wrap_alloc@V?$allocator@H@std@@@std@@QAEXPAH@Z 0046ee90 f i main.obj
 0002:0003cec0       ??$destroy@H@?$allocator@H@std@@QAEXPAH@Z 0046eec0 f i main.obj
 0002:0003cee0       ??$destroy@H@?$allocator_traits@V?$allocator@H@std@@@std@@SAXAAV?$allocator@H@1@PAH@Z 0046eee0 f i main.obj
 0002:0003cf10       ??$destroy@I@?$_Wrap_alloc@V?$allocator@I@std@@@std@@QAEXPAI@Z 0046ef10 f i main.obj
 0002:0003cf40       ??$destroy@I@?$allocator@I@std@@QAEXPAI@Z 0046ef40 f i main.obj
 0002:0003cf60       ??$destroy@I@?$allocator_traits@V?$allocator@I@std@@@std@@SAXAAV?$allocator@I@1@PAI@Z 0046ef60 f i main.obj
 0002:0003cf90       ??$destroy@N@?$_Wrap_alloc@V?$allocator@N@std@@@std@@QAEXPAN@Z 0046ef90 f i main.obj
 0002:0003cfc0       ??$destroy@N@?$allocator@N@std@@QAEXPAN@Z 0046efc0 f i main.obj
 0002:0003cfe0       ??$destroy@N@?$allocator_traits@V?$allocator@N@std@@@std@@SAXAAV?$allocator@N@1@PAN@Z 0046efe0 f i main.obj
 0002:0003d010       ??$destroy@V?$vector@IV?$allocator@I@std@@@std@@@?$_Wrap_alloc@V?$allocator@V?$vector@IV?$allocator@I@std@@@std@@@std@@@std@@QAEXPAV?$vector@IV?$allocator@I@std@@@1@@Z 0046f010 f i main.obj
 0002:0003d040       ??$destroy@V?$vector@IV?$allocator@I@std@@@std@@@?$allocator@V?$vector@IV?$allocator@I@std@@@std@@@std@@QAEXPAV?$vector@IV?$allocator@I@std@@@1@@Z 0046f040 f i main.obj
 0002:0003d070       ??$destroy@V?$vector@IV?$allocator@I@std@@@std@@@?$allocator_traits@V?$allocator@V?$vector@IV?$allocator@I@std@@@std@@@std@@@std@@SAXAAV?$allocator@V?$vector@IV?$allocator@I@std@@@std@@@1@PAV?$vector@IV?$allocator@I@std@@@1@@Z 0046f070 f i main.obj
 0002:0003d0a0       ??$destroy@V?$vector@NV?$allocator@N@std@@@std@@@?$_Wrap_alloc@V?$allocator@V?$vector@NV?$allocator@N@std@@@std@@@std@@@std@@QAEXPAV?$vector@NV?$allocator@N@std@@@1@@Z 0046f0a0 f i main.obj
 0002:0003d0d0       ??$destroy@V?$vector@NV?$allocator@N@std@@@std@@@?$allocator@V?$vector@NV?$allocator@N@std@@@std@@@std@@QAEXPAV?$vector@NV?$allocator@N@std@@@1@@Z 0046f0d0 f i main.obj
 0002:0003d100       ??$destroy@V?$vector@NV?$allocator@N@std@@@std@@@?$allocator_traits@V?$allocator@V?$vector@NV?$allocator@N@std@@@std@@@std@@@std@@SAXAAV?$allocator@V?$vector@NV?$allocator@N@std@@@std@@@1@PAV?$vector@NV?$allocator@N@std@@@1@@Z 0046f100 f i main.obj
 0002:0003d130       ??$dist2@$02M@@YAMABU?$Vec@$02M@@0@Z 0046f130 f i main.obj
 0002:0003d1f0       ??$dist@$02M@@YAMABU?$Vec@$02M@@0@Z 0046f1f0 f i main.obj
 0002:0003d230       ??$distance@PAI@std@@YAHPAI0@Z 0046f230 f i main.obj
 0002:0003d290       ??$distance@PAN@std@@YAHPAN0@Z 0046f290 f i main.obj
 0002:0003d2f0       ??$forward@ABH@std@@YAABHABH@Z 0046f2f0 f i main.obj
 0002:0003d310       ??$forward@I@std@@YA$$QAIAAI@Z 0046f310 f i main.obj
 0002:0003d330       ??$forward@N@std@@YA$$QANAAN@Z 0046f330 f i main.obj
 0002:0003d350       ??$forward@V?$vector@IV?$allocator@I@std@@@std@@@std@@YA$$QAV?$vector@IV?$allocator@I@std@@@0@AAV10@@Z 0046f350 f i main.obj
 0002:0003d370       ??$forward@V?$vector@NV?$allocator@N@std@@@std@@@std@@YA$$QAV?$vector@NV?$allocator@N@std@@@0@AAV10@@Z 0046f370 f i main.obj
 0002:0003d390       ??$insert@V?$move_iterator@V?$_Vector_iterator@V?$_Vector_val@U?$_Simple_types@I@std@@@std@@@std@@@std@@@?$vector@IV?$allocator@I@std@@@std@@QAE?AV?$_Vector_iterator@V?$_Vector_val@U?$_Simple_types@I@std@@@std@@@1@V?$_Vector_const_iterator@V?$_Vector_val@U?$_Simple_types@I@std@@@std@@@1@V?$move_iterator@V?$_Vector_iterator@V?$_Vector_val@U?$_Simple_types@I@std@@@std@@@std@@@1@1@Z 0046f390 f i main.obj
 0002:0003d420       ??$insert@V?$move_iterator@V?$_Vector_iterator@V?$_Vector_val@U?$_Simple_types@N@std@@@std@@@std@@@std@@@?$vector@NV?$allocator@N@std@@@std@@QAE?AV?$_Vector_iterator@V?$_Vector_val@U?$_Simple_types@N@std@@@std@@@1@V?$_Vector_const_iterator@V?$_Vector_val@U?$_Simple_types@N@std@@@std@@@1@V?$move_iterator@V?$_Vector_iterator@V?$_Vector_val@U?$_Simple_types@N@std@@@std@@@std@@@1@1@Z 0046f420 f i main.obj
 0002:0003d4b0       ??$iter_swap@PAIPAI@std@@YAXPAI0@Z 0046f4b0 f i main.obj
 0002:0003d4e0       ??$iter_swap@PANPAN@std@@YAXPAN0@Z 0046f4e0 f i main.obj
 0002:0003d510       ??$make_move_iterator@V?$_Vector_iterator@V?$_Vector_val@U?$_Simple_types@I@std@@@std@@@std@@@std@@YA?AV?$move_iterator@V?$_Vector_iterator@V?$_Vector_val@U?$_Simple_types@I@std@@@std@@@std@@@0@V?$_Vector_iterator@V?$_Vector_val@U?$_Simple_types@I@std@@@std@@@0@@Z 0046f510 f i main.obj
 0002:0003d540       ??$make_move_iterator@V?$_Vector_iterator@V?$_Vector_val@U?$_Simple_types@N@std@@@std@@@std@@@std@@YA?AV?$move_iterator@V?$_Vector_iterator@V?$_Vector_val@U?$_Simple_types@N@std@@@std@@@std@@@0@V?$_Vector_iterator@V?$_Vector_val@U?$_Simple_types@N@std@@@std@@@0@@Z 0046f540 f i main.obj
 0002:0003d570       ??$move@AAI@std@@YA$$QAIAAI@Z 0046f570 f i main.obj
 0002:0003d590       ??$move@AAN@std@@YA$$QANAAN@Z 0046f590 f i main.obj
 0002:0003d5b0       ??$move@AAV?$vector@IV?$allocator@I@std@@@std@@@std@@YA$$QAV?$vector@IV?$allocator@I@std@@@0@AAV10@@Z 0046f5b0 f i main.obj
 0002:0003d5d0       ??$move@AAV?$vector@NV?$allocator@N@std@@@std@@@std@@YA$$QAV?$vector@NV?$allocator@N@std@@@0@AAV10@@Z 0046f5d0 f i main.obj
 0002:0003d5f0       ??$rotate@PAI@std@@YAPAIPAI00@Z 0046f5f0 f i main.obj
 0002:0003d6a0       ??$rotate@PAN@std@@YAPANPAN00@Z 0046f6a0 f i main.obj
 0002:0003d750       ??$swap@I@std@@YAXAAI0@Z   0046f750 f i main.obj
 0002:0003d7b0       ??$swap@N@std@@YAXAAN0@Z   0046f7b0 f i main.obj
 0002:0003d820       ??0?$Array1@H@@QAE@XZ      0046f820 f i main.obj
 0002:0003d860       ??0?$Array1@M@@QAE@XZ      0046f860 f i main.obj
 0002:0003d8a0       ??0?$Array3@HU?$Array1@H@@@@QAE@XZ 0046f8a0 f i main.obj
 0002:0003d8f0       ??0?$Array3@MU?$Array1@M@@@@QAE@XZ 0046f8f0 f i main.obj
 0002:0003d940       ??0?$FixedSparseMatrix@N@@QAE@I@Z 0046f940 f i main.obj
 0002:0003d9f0       ??0?$PCGSolver@N@@QAE@XZ   0046f9f0 f i main.obj
 0002:0003db10       ??0?$SparseColumnLowerFactor@N@@QAE@I@Z 0046fb10 f i main.obj
 0002:0003dbf0       ??0?$SparseMatrix@N@@QAE@II@Z 0046fbf0 f i main.obj
 0002:0003dcf0       ??0?$_Vector_alloc@$0A@U?$_Vec_base_types@HV?$allocator@H@std@@@std@@@std@@QAE@ABV?$allocator@H@1@@Z 0046fcf0 f i main.obj
 0002:0003dd20       ??0?$_Vector_alloc@$0A@U?$_Vec_base_types@IV?$allocator@I@std@@@std@@@std@@QAE@ABV?$allocator@I@1@@Z 0046fd20 f i main.obj
 0002:0003dd50       ??0?$_Vector_alloc@$0A@U?$_Vec_base_types@NV?$allocator@N@std@@@std@@@std@@QAE@ABV?$allocator@N@1@@Z 0046fd50 f i main.obj
 0002:0003dd80       ??0?$_Vector_alloc@$0A@U?$_Vec_base_types@UParticle@@V?$allocator@UParticle@@@std@@@std@@@std@@QAE@ABV?$allocator@UParticle@@@1@@Z 0046fd80 f i main.obj
 0002:0003ddb0       ??0?$_Vector_alloc@$0A@U?$_Vec_base_types@V?$vector@IV?$allocator@I@std@@@std@@V?$allocator@V?$vector@IV?$allocator@I@std@@@std@@@2@@std@@@std@@QAE@ABV?$allocator@V?$vector@IV?$allocator@I@std@@@std@@@1@@Z 0046fdb0 f i main.obj
 0002:0003dde0       ??0?$_Vector_alloc@$0A@U?$_Vec_base_types@V?$vector@NV?$allocator@N@std@@@std@@V?$allocator@V?$vector@NV?$allocator@N@std@@@std@@@2@@std@@@std@@QAE@ABV?$allocator@V?$vector@NV?$allocator@N@std@@@std@@@1@@Z 0046fde0 f i main.obj
 0002:0003de10       ??0?$_Vector_const_iterator@V?$_Vector_val@U?$_Simple_types@H@std@@@std@@@std@@QAE@PAHPBU_Container_base0@1@@Z 0046fe10 f i main.obj
 0002:0003de50       ??0?$_Vector_const_iterator@V?$_Vector_val@U?$_Simple_types@I@std@@@std@@@std@@QAE@PAIPBU_Container_base0@1@@Z 0046fe50 f i main.obj
 0002:0003de90       ??0?$_Vector_const_iterator@V?$_Vector_val@U?$_Simple_types@N@std@@@std@@@std@@QAE@PANPBU_Container_base0@1@@Z 0046fe90 f i main.obj
 0002:0003ded0       ??0?$_Vector_const_iterator@V?$_Vector_val@U?$_Simple_types@V?$vector@IV?$allocator@I@std@@@std@@@std@@@std@@@std@@QAE@PAV?$vector@IV?$allocator@I@std@@@1@PBU_Container_base0@1@@Z 0046fed0 f i main.obj
 0002:0003df10       ??0?$_Vector_const_iterator@V?$_Vector_val@U?$_Simple_types@V?$vector@NV?$allocator@N@std@@@std@@@std@@@std@@@std@@QAE@PAV?$vector@NV?$allocator@N@std@@@1@PBU_Container_base0@1@@Z 0046ff10 f i main.obj
 0002:0003df50       ??0?$_Vector_iterator@V?$_Vector_val@U?$_Simple_types@I@std@@@std@@@std@@QAE@PAIPBU_Container_base0@1@@Z 0046ff50 f i main.obj
 0002:0003df90       ??0?$_Vector_iterator@V?$_Vector_val@U?$_Simple_types@N@std@@@std@@@std@@QAE@PANPBU_Container_base0@1@@Z 0046ff90 f i main.obj
 0002:0003dfd0       ??0?$_Vector_iterator@V?$_Vector_val@U?$_Simple_types@V?$vector@IV?$allocator@I@std@@@std@@@std@@@std@@@std@@QAE@PAV?$vector@IV?$allocator@I@std@@@1@PBU_Container_base0@1@@Z 0046ffd0 f i main.obj
 0002:0003e010       ??0?$_Vector_iterator@V?$_Vector_val@U?$_Simple_types@V?$vector@NV?$allocator@N@std@@@std@@@std@@@std@@@std@@QAE@PAV?$vector@NV?$allocator@N@std@@@1@PBU_Container_base0@1@@Z 00470010 f i main.obj
 0002:0003e050       ??0?$_Vector_val@U?$_Simple_types@H@std@@@std@@QAE@XZ 00470050 f i main.obj
 0002:0003e090       ??0?$_Vector_val@U?$_Simple_types@I@std@@@std@@QAE@XZ 00470090 f i main.obj
 0002:0003e0d0       ??0?$_Vector_val@U?$_Simple_types@N@std@@@std@@QAE@XZ 004700d0 f i main.obj
 0002:0003e110       ??0?$_Vector_val@U?$_Simple_types@UParticle@@@std@@@std@@QAE@XZ 00470110 f i main.obj
 0002:0003e150       ??0?$_Vector_val@U?$_Simple_types@V?$vector@IV?$allocator@I@std@@@std@@@std@@@std@@QAE@XZ 00470150 f i main.obj
 0002:0003e190       ??0?$_Vector_val@U?$_Simple_types@V?$vector@NV?$allocator@N@std@@@std@@@std@@@std@@QAE@XZ 00470190 f i main.obj
 0002:0003e1d0       ??0?$_Wrap_alloc@V?$allocator@H@std@@@std@@QAE@ABV?$allocator@H@1@@Z 004701d0 f i main.obj
 0002:0003e200       ??0?$_Wrap_alloc@V?$allocator@H@std@@@std@@QAE@XZ 00470200 f i main.obj
 0002:0003e230       ??0?$_Wrap_alloc@V?$allocator@I@std@@@std@@QAE@XZ 00470230 f i main.obj
 0002:0003e260       ??0?$_Wrap_alloc@V?$allocator@N@std@@@std@@QAE@XZ 00470260 f i main.obj
 0002:0003e290       ??0?$_Wrap_alloc@V?$allocator@V?$vector@IV?$allocator@I@std@@@std@@@std@@@std@@QAE@XZ 00470290 f i main.obj
 0002:0003e2c0       ??0?$_Wrap_alloc@V?$allocator@V?$vector@NV?$allocator@N@std@@@std@@@std@@@std@@QAE@XZ 004702c0 f i main.obj
 0002:0003e2f0       ??0?$allocator@H@std@@QAE@ABV01@@Z 004702f0 f i main.obj
 0002:0003e310       ??0?$allocator@H@std@@QAE@XZ 00470310 f i main.obj
 0002:0003e330       ??0?$allocator@I@std@@QAE@ABV01@@Z 00470330 f i main.obj
 0002:0003e350       ??0?$allocator@I@std@@QAE@XZ 00470350 f i main.obj
 0002:0003e370       ??0?$allocator@N@std@@QAE@ABV01@@Z 00470370 f i main.obj
 0002:0003e390       ??0?$allocator@N@std@@QAE@XZ 00470390 f i main.obj
 0002:0003e3b0       ??0?$allocator@V?$vector@IV?$allocator@I@std@@@std@@@std@@QAE@XZ 004703b0 f i main.obj
 0002:0003e3d0       ??0?$allocator@V?$vector@NV?$allocator@N@std@@@std@@@std@@QAE@XZ 004703d0 f i main.obj
 0002:0003e3f0       ??0?$basic_string@DU?$char_traits@D@std@@V?$allocator@D@2@@std@@QAE@PBDI@Z 004703f0 f i main.obj
 0002:0003e450       ??0?$basic_stringbuf@DU?$char_traits@D@std@@V?$allocator@D@2@@std@@QAE@H@Z 00470450 f i main.obj
 0002:0003e500       ??0?$basic_stringstream@DU?$char_traits@D@std@@V?$allocator@D@2@@std@@QAE@H@Z 00470500 f i main.obj
 0002:0003e610       ??0?$move_iterator@V?$_Vector_iterator@V?$_Vector_val@U?$_Simple_types@I@std@@@std@@@std@@@std@@QAE@V?$_Vector_iterator@V?$_Vector_val@U?$_Simple_types@I@std@@@std@@@1@@Z 00470610 f i main.obj
 0002:0003e640       ??0?$move_iterator@V?$_Vector_iterator@V?$_Vector_val@U?$_Simple_types@N@std@@@std@@@std@@@std@@QAE@V?$_Vector_iterator@V?$_Vector_val@U?$_Simple_types@N@std@@@std@@@1@@Z 00470640 f i main.obj
 0002:0003e670       ??0?$vector@HV?$allocator@H@std@@@std@@QAE@ABV01@@Z 00470670 f i main.obj
 0002:0003e790       ??0?$vector@IV?$allocator@I@std@@@std@@QAE@$$QAV01@@Z 00470790 f i main.obj
 0002:0003e7f0       ??0?$vector@IV?$allocator@I@std@@@std@@QAE@I@Z 004707f0 f i main.obj
 0002:0003e840       ??0?$vector@IV?$allocator@I@std@@@std@@QAE@XZ 00470840 f i main.obj
 0002:0003e870       ??0?$vector@NV?$allocator@N@std@@@std@@QAE@$$QAV01@@Z 00470870 f i main.obj
 0002:0003e8d0       ??0?$vector@NV?$allocator@N@std@@@std@@QAE@I@Z 004708d0 f i main.obj
 0002:0003e920       ??0?$vector@NV?$allocator@N@std@@@std@@QAE@XZ 00470920 f i main.obj
 0002:0003e950       ??0?$vector@UParticle@@V?$allocator@UParticle@@@std@@@std@@QAE@XZ 00470950 f i main.obj
 0002:0003e980       ??0?$vector@V?$vector@IV?$allocator@I@std@@@std@@V?$allocator@V?$vector@IV?$allocator@I@std@@@std@@@2@@std@@QAE@I@Z 00470980 f i main.obj
 0002:0003e9d0       ??0?$vector@V?$vector@NV?$allocator@N@std@@@std@@V?$allocator@V?$vector@NV?$allocator@N@std@@@std@@@2@@std@@QAE@I@Z 004709d0 f i main.obj
 0002:0003ea20       ??0FluidSim@@QAE@XZ        00470a20 f i main.obj
 0002:0003ec00       ??1?$Array1@H@@QAE@XZ      00470c00 f i main.obj
 0002:0003ec50       ??1?$Array1@M@@QAE@XZ      00470c50 f i main.obj
 0002:0003eca0       ??1?$Array3@HU?$Array1@H@@@@QAE@XZ 00470ca0 f i main.obj
 0002:0003ece0       ??1?$Array3@MU?$Array1@M@@@@QAE@XZ 00470ce0 f i main.obj
 0002:0003ed20       ??1?$FixedSparseMatrix@N@@QAE@XZ 00470d20 f i main.obj
 0002:0003ed70       ??1?$PCGSolver@N@@QAE@XZ   00470d70 f i main.obj
 0002:0003ede0       ??1?$SparseColumnLowerFactor@N@@QAE@XZ 00470de0 f i main.obj
 0002:0003ee40       ??1?$SparseMatrix@N@@QAE@XZ 00470e40 f i main.obj
 0002:0003ee80       ??1?$vector@HV?$allocator@H@std@@@std@@QAE@XZ 00470e80 f i main.obj
 0002:0003eeb0       ??1?$vector@IV?$allocator@I@std@@@std@@QAE@XZ 00470eb0 f i main.obj
 0002:0003eee0       ??1?$vector@NV?$allocator@N@std@@@std@@QAE@XZ 00470ee0 f i main.obj
 0002:0003ef10       ??1?$vector@UParticle@@V?$allocator@UParticle@@@std@@@std@@QAE@XZ 00470f10 f i main.obj
 0002:0003ef40       ??1?$vector@V?$vector@IV?$allocator@I@std@@@std@@V?$allocator@V?$vector@IV?$allocator@I@std@@@std@@@2@@std@@QAE@XZ 00470f40 f i main.obj
 0002:0003ef70       ??1?$vector@V?$vector@NV?$allocator@N@std@@@std@@V?$allocator@V?$vector@NV?$allocator@N@std@@@std@@@2@@std@@QAE@XZ 00470f70 f i main.obj
 0002:0003efa0       ??1FluidSim@@QAE@XZ        00470fa0 f i main.obj
 0002:0003f170       ??4?$vector@IV?$allocator@I@std@@@std@@QAEAAV01@$$QAV01@@Z 00471170 f i main.obj
 0002:0003f2a0       ??4?$vector@NV?$allocator@N@std@@@std@@QAEAAV01@$$QAV01@@Z 004712a0 f i main.obj
 0002:0003f3d0       ??8?$_Vector_const_iterator@V?$_Vector_val@U?$_Simple_types@H@std@@@std@@@std@@QBE_NABV01@@Z 004713d0 f i main.obj
 0002:0003f420       ??8?$_Vector_const_iterator@V?$_Vector_val@U?$_Simple_types@I@std@@@std@@@std@@QBE_NABV01@@Z 00471420 f i main.obj
 0002:0003f470       ??8?$_Vector_const_iterator@V?$_Vector_val@U?$_Simple_types@N@std@@@std@@@std@@QBE_NABV01@@Z 00471470 f i main.obj
 0002:0003f4c0       ??8?$_Vector_const_iterator@V?$_Vector_val@U?$_Simple_types@V?$vector@IV?$allocator@I@std@@@std@@@std@@@std@@@std@@QBE_NABV01@@Z 004714c0 f i main.obj
 0002:0003f510       ??8?$_Vector_const_iterator@V?$_Vector_val@U?$_Simple_types@V?$vector@NV?$allocator@N@std@@@std@@@std@@@std@@@std@@QBE_NABV01@@Z 00471510 f i main.obj
 0002:0003f560       ??9?$_Vector_const_iterator@V?$_Vector_val@U?$_Simple_types@H@std@@@std@@@std@@QBE_NABV01@@Z 00471560 f i main.obj
 0002:0003f5b0       ??9?$_Vector_const_iterator@V?$_Vector_val@U?$_Simple_types@I@std@@@std@@@std@@QBE_NABV01@@Z 004715b0 f i main.obj
 0002:0003f600       ??9?$_Vector_const_iterator@V?$_Vector_val@U?$_Simple_types@N@std@@@std@@@std@@QBE_NABV01@@Z 00471600 f i main.obj
 0002:0003f650       ??9?$_Vector_const_iterator@V?$_Vector_val@U?$_Simple_types@V?$vector@IV?$allocator@I@std@@@std@@@std@@@std@@@std@@QBE_NABV01@@Z 00471650 f i main.obj
 0002:0003f6a0       ??9?$_Vector_const_iterator@V?$_Vector_val@U?$_Simple_types@V?$vector@NV?$allocator@N@std@@@std@@@std@@@std@@@std@@QBE_NABV01@@Z 004716a0 f i main.obj
 0002:0003f6f0       ??A?$vector@HV?$allocator@H@std@@@std@@QAEAAHI@Z 004716f0 f i main.obj
 0002:0003f720       ??A?$vector@U?$tvec4@M@detail@glm@@V?$allocator@U?$tvec4@M@detail@glm@@@std@@@std@@QAEAAU?$tvec4@M@detail@glm@@I@Z 00471720 f i main.obj
 0002:0003f750       ??A?$vector@UParticle@@V?$allocator@UParticle@@@std@@@std@@QBEABUParticle@@I@Z 00471750 f i main.obj
 0002:0003f780       ??A?$vector@V?$vector@HV?$allocator@H@std@@@std@@V?$allocator@V?$vector@HV?$allocator@H@std@@@std@@@2@@std@@QAEAAV?$vector@HV?$allocator@H@std@@@1@I@Z 00471780 f i main.obj
 0002:0003f7b0       ??A?$vector@V?$vector@IV?$allocator@I@std@@@std@@V?$allocator@V?$vector@IV?$allocator@I@std@@@std@@@2@@std@@QAEAAV?$vector@IV?$allocator@I@std@@@1@I@Z 004717b0 f i main.obj
 0002:0003f7e0       ??A?$vector@V?$vector@NV?$allocator@N@std@@@std@@V?$allocator@V?$vector@NV?$allocator@N@std@@@std@@@2@@std@@QAEAAV?$vector@NV?$allocator@N@std@@@1@I@Z 004717e0 f i main.obj
 0002:0003f810       ??D?$_Vector_const_iterator@V?$_Vector_val@U?$_Simple_types@H@std@@@std@@@std@@QBEABHXZ 00471810 f i main.obj
 0002:0003f830       ??D?$_Vector_const_iterator@V?$_Vector_val@U?$_Simple_types@I@std@@@std@@@std@@QBEABIXZ 00471830 f i main.obj
 0002:0003f850       ??D?$_Vector_const_iterator@V?$_Vector_val@U?$_Simple_types@N@std@@@std@@@std@@QBEABNXZ 00471850 f i main.obj
 0002:0003f870       ??D?$_Vector_iterator@V?$_Vector_val@U?$_Simple_types@I@std@@@std@@@std@@QBEAAIXZ 00471870 f i main.obj
 0002:0003f8a0       ??D?$_Vector_iterator@V?$_Vector_val@U?$_Simple_types@N@std@@@std@@@std@@QBEAANXZ 004718a0 f i main.obj
 0002:0003f8d0       ??D?$move_iterator@V?$_Vector_iterator@V?$_Vector_val@U?$_Simple_types@I@std@@@std@@@std@@@std@@QBE$$QAIXZ 004718d0 f i main.obj
 0002:0003f900       ??D?$move_iterator@V?$_Vector_iterator@V?$_Vector_val@U?$_Simple_types@N@std@@@std@@@std@@@std@@QBE$$QANXZ 00471900 f i main.obj
 0002:0003f930       ??E?$_Vector_const_iterator@V?$_Vector_val@U?$_Simple_types@H@std@@@std@@@std@@QAEAAV01@XZ 00471930 f i main.obj
 0002:0003f960       ??E?$_Vector_const_iterator@V?$_Vector_val@U?$_Simple_types@I@std@@@std@@@std@@QAEAAV01@XZ 00471960 f i main.obj
 0002:0003f990       ??E?$_Vector_const_iterator@V?$_Vector_val@U?$_Simple_types@N@std@@@std@@@std@@QAEAAV01@XZ 00471990 f i main.obj
 0002:0003f9c0       ??E?$_Vector_iterator@V?$_Vector_val@U?$_Simple_types@I@std@@@std@@@std@@QAEAAV01@XZ 004719c0 f i main.obj
 0002:0003f9f0       ??E?$_Vector_iterator@V?$_Vector_val@U?$_Simple_types@N@std@@@std@@@std@@QAEAAV01@XZ 004719f0 f i main.obj
 0002:0003fa20       ??E?$move_iterator@V?$_Vector_iterator@V?$_Vector_val@U?$_Simple_types@I@std@@@std@@@std@@@std@@QAEAAV01@XZ 00471a20 f i main.obj
 0002:0003fa50       ??E?$move_iterator@V?$_Vector_iterator@V?$_Vector_val@U?$_Simple_types@N@std@@@std@@@std@@@std@@QAEAAV01@XZ 00471a50 f i main.obj
 0002:0003fa80       ??G?$_Vector_const_iterator@V?$_Vector_val@U?$_Simple_types@I@std@@@std@@@std@@QBEHABV01@@Z 00471a80 f i main.obj
 0002:0003fac0       ??G?$_Vector_const_iterator@V?$_Vector_val@U?$_Simple_types@N@std@@@std@@@std@@QBEHABV01@@Z 00471ac0 f i main.obj
 0002:0003fb00       ??G?$_Vector_iterator@V?$_Vector_val@U?$_Simple_types@I@std@@@std@@@std@@QBEHABV?$_Vector_const_iterator@V?$_Vector_val@U?$_Simple_types@I@std@@@std@@@1@@Z 00471b00 f i main.obj
 0002:0003fb30       ??G?$_Vector_iterator@V?$_Vector_val@U?$_Simple_types@N@std@@@std@@@std@@QBEHABV?$_Vector_const_iterator@V?$_Vector_val@U?$_Simple_types@N@std@@@std@@@1@@Z 00471b30 f i main.obj
 0002:0003fb60       ??H?$_Vector_iterator@V?$_Vector_val@U?$_Simple_types@I@std@@@std@@@std@@QBE?AV01@H@Z 00471b60 f i main.obj
 0002:0003fba0       ??H?$_Vector_iterator@V?$_Vector_val@U?$_Simple_types@N@std@@@std@@@std@@QBE?AV01@H@Z 00471ba0 f i main.obj
 0002:0003fbe0       ??H?$_Vector_iterator@V?$_Vector_val@U?$_Simple_types@V?$vector@IV?$allocator@I@std@@@std@@@std@@@std@@@std@@QBE?AV01@H@Z 00471be0 f i main.obj
 0002:0003fc20       ??H?$_Vector_iterator@V?$_Vector_val@U?$_Simple_types@V?$vector@NV?$allocator@N@std@@@std@@@std@@@std@@@std@@QBE?AV01@H@Z 00471c20 f i main.obj
 0002:0003fc60       ??Y?$_Vector_const_iterator@V?$_Vector_val@U?$_Simple_types@I@std@@@std@@@std@@QAEAAV01@H@Z 00471c60 f i main.obj
 0002:0003fca0       ??Y?$_Vector_const_iterator@V?$_Vector_val@U?$_Simple_types@N@std@@@std@@@std@@QAEAAV01@H@Z 00471ca0 f i main.obj
 0002:0003fce0       ??Y?$_Vector_const_iterator@V?$_Vector_val@U?$_Simple_types@V?$vector@IV?$allocator@I@std@@@std@@@std@@@std@@@std@@QAEAAV01@H@Z 00471ce0 f i main.obj
 0002:0003fd20       ??Y?$_Vector_const_iterator@V?$_Vector_val@U?$_Simple_types@V?$vector@NV?$allocator@N@std@@@std@@@std@@@std@@@std@@QAEAAV01@H@Z 00471d20 f i main.obj
 0002:0003fd60       ??Y?$_Vector_iterator@V?$_Vector_val@U?$_Simple_types@I@std@@@std@@@std@@QAEAAV01@H@Z 00471d60 f i main.obj
 0002:0003fd90       ??Y?$_Vector_iterator@V?$_Vector_val@U?$_Simple_types@N@std@@@std@@@std@@QAEAAV01@H@Z 00471d90 f i main.obj
 0002:0003fdc0       ??Y?$_Vector_iterator@V?$_Vector_val@U?$_Simple_types@V?$vector@IV?$allocator@I@std@@@std@@@std@@@std@@@std@@QAEAAV01@H@Z 00471dc0 f i main.obj
 0002:0003fdf0       ??Y?$_Vector_iterator@V?$_Vector_val@U?$_Simple_types@V?$vector@NV?$allocator@N@std@@@std@@@std@@@std@@@std@@QAEAAV01@H@Z 00471df0 f i main.obj
 0002:0003fe20       ??_G?$vector@IV?$allocator@I@std@@@std@@QAEPAXI@Z 00471e20 f i main.obj
 0002:0003fe70       ??_G?$vector@NV?$allocator@N@std@@@std@@QAEPAXI@Z 00471e70 f i main.obj
 0002:0003fec0       ??_GobjLoader@@QAEPAXI@Z   00471ec0 f i main.obj
 0002:0003ff10       ?_Assign_rv@?$vector@IV?$allocator@I@std@@@std@@QAEX$$QAV12@@Z 00471f10 f i main.obj
 0002:0003ff90       ?_Assign_rv@?$vector@NV?$allocator@N@std@@@std@@QAEX$$QAV12@@Z 00471f90 f i main.obj
 0002:00040010       ?_Buy@?$vector@HV?$allocator@H@std@@@std@@IAE_NI@Z 00472010 f i main.obj
 0002:000400d0       ?_Change_alloc@?$_Vector_alloc@$0A@U?$_Vec_base_types@IV?$allocator@I@std@@@std@@@std@@QAEXABU?$_Wrap_alloc@V?$allocator@I@std@@@2@@Z 004720d0 f i main.obj
 0002:000400f0       ?_Change_alloc@?$_Vector_alloc@$0A@U?$_Vec_base_types@NV?$allocator@N@std@@@std@@@std@@QAEXABU?$_Wrap_alloc@V?$allocator@N@std@@@2@@Z 004720f0 f i main.obj
 0002:00040110       ?_Compat@?$_Vector_const_iterator@V?$_Vector_val@U?$_Simple_types@H@std@@@std@@@std@@QBEXABV12@@Z 00472110 f i main.obj
 0002:00040130       ?_Compat@?$_Vector_const_iterator@V?$_Vector_val@U?$_Simple_types@I@std@@@std@@@std@@QBEXABV12@@Z 00472130 f i main.obj
 0002:00040150       ?_Compat@?$_Vector_const_iterator@V?$_Vector_val@U?$_Simple_types@N@std@@@std@@@std@@QBEXABV12@@Z 00472150 f i main.obj
 0002:00040170       ?_Compat@?$_Vector_const_iterator@V?$_Vector_val@U?$_Simple_types@V?$vector@IV?$allocator@I@std@@@std@@@std@@@std@@@std@@QBEXABV12@@Z 00472170 f i main.obj
 0002:00040190       ?_Compat@?$_Vector_const_iterator@V?$_Vector_val@U?$_Simple_types@V?$vector@NV?$allocator@N@std@@@std@@@std@@@std@@@std@@QBEXABV12@@Z 00472190 f i main.obj
 0002:000401b0       ?_Destroy@?$vector@HV?$allocator@H@std@@@std@@IAEXPAH0@Z 004721b0 f i main.obj
 0002:00040200       ?_Destroy@?$vector@IV?$allocator@I@std@@@std@@IAEXPAI0@Z 00472200 f i main.obj
 0002:00040250       ?_Destroy@?$vector@NV?$allocator@N@std@@@std@@IAEXPAN0@Z 00472250 f i main.obj
 0002:000402a0       ?_Destroy@?$vector@V?$vector@IV?$allocator@I@std@@@std@@V?$allocator@V?$vector@IV?$allocator@I@std@@@std@@@2@@std@@IAEXPAV?$vector@IV?$allocator@I@std@@@2@0@Z 004722a0 f i main.obj
 0002:000402f0       ?_Destroy@?$vector@V?$vector@NV?$allocator@N@std@@@std@@V?$allocator@V?$vector@NV?$allocator@N@std@@@std@@@2@@std@@IAEXPAV?$vector@NV?$allocator@N@std@@@2@0@Z 004722f0 f i main.obj
 0002:00040340       ?_Getal@?$_Vector_alloc@$0A@U?$_Vec_base_types@HV?$allocator@H@std@@@std@@@std@@QBE?AU?$_Wrap_alloc@V?$allocator@H@std@@@2@XZ 00472340 f i main.obj
 0002:00040370       ?_Getal@?$_Vector_alloc@$0A@U?$_Vec_base_types@IV?$allocator@I@std@@@std@@@std@@QBE?AU?$_Wrap_alloc@V?$allocator@I@std@@@2@XZ 00472370 f i main.obj
 0002:000403a0       ?_Getal@?$_Vector_alloc@$0A@U?$_Vec_base_types@NV?$allocator@N@std@@@std@@@std@@QBE?AU?$_Wrap_alloc@V?$allocator@N@std@@@2@XZ 004723a0 f i main.obj
 0002:000403d0       ?_Getal@?$_Vector_alloc@$0A@U?$_Vec_base_types@V?$vector@IV?$allocator@I@std@@@std@@V?$allocator@V?$vector@IV?$allocator@I@std@@@std@@@2@@std@@@std@@QBE?AU?$_Wrap_alloc@V?$allocator@V?$vector@IV?$allocator@I@std@@@std@@@std@@@2@XZ 004723d0 f i main.obj
 0002:00040400       ?_Getal@?$_Vector_alloc@$0A@U?$_Vec_base_types@V?$vector@NV?$allocator@N@std@@@std@@V?$allocator@V?$vector@NV?$allocator@N@std@@@std@@@2@@std@@@std@@QBE?AU?$_Wrap_alloc@V?$allocator@V?$vector@NV?$allocator@N@std@@@std@@@std@@@2@XZ 00472400 f i main.obj
 0002:00040430       ?_Grow_to@?$vector@IV?$allocator@I@std@@@std@@IBEII@Z 00472430 f i main.obj
 0002:000404b0       ?_Grow_to@?$vector@NV?$allocator@N@std@@@std@@IBEII@Z 004724b0 f i main.obj
 0002:00040530       ?_Grow_to@?$vector@V?$vector@IV?$allocator@I@std@@@std@@V?$allocator@V?$vector@IV?$allocator@I@std@@@std@@@2@@std@@IBEII@Z 00472530 f i main.obj
 0002:000405b0       ?_Grow_to@?$vector@V?$vector@NV?$allocator@N@std@@@std@@V?$allocator@V?$vector@NV?$allocator@N@std@@@std@@@2@@std@@IBEII@Z 004725b0 f i main.obj
 0002:00040630       ?_Make_iter@?$vector@IV?$allocator@I@std@@@std@@QBE?AV?$_Vector_iterator@V?$_Vector_val@U?$_Simple_types@I@std@@@std@@@2@V?$_Vector_const_iterator@V?$_Vector_val@U?$_Simple_types@I@std@@@std@@@2@@Z 00472630 f i main.obj
 0002:00040670       ?_Make_iter@?$vector@NV?$allocator@N@std@@@std@@QBE?AV?$_Vector_iterator@V?$_Vector_val@U?$_Simple_types@N@std@@@std@@@2@V?$_Vector_const_iterator@V?$_Vector_val@U?$_Simple_types@N@std@@@std@@@2@@Z 00472670 f i main.obj
 0002:000406b0       ?_Make_iter@?$vector@V?$vector@IV?$allocator@I@std@@@std@@V?$allocator@V?$vector@IV?$allocator@I@std@@@std@@@2@@std@@QBE?AV?$_Vector_iterator@V?$_Vector_val@U?$_Simple_types@V?$vector@IV?$allocator@I@std@@@std@@@std@@@std@@@2@V?$_Vector_const_iterator@V?$_Vector_val@U?$_Simple_types@V?$vector@IV?$allocator@I@std@@@std@@@std@@@std@@@2@@Z 004726b0 f i main.obj
 0002:000406f0       ?_Make_iter@?$vector@V?$vector@NV?$allocator@N@std@@@std@@V?$allocator@V?$vector@NV?$allocator@N@std@@@std@@@2@@std@@QBE?AV?$_Vector_iterator@V?$_Vector_val@U?$_Simple_types@V?$vector@NV?$allocator@N@std@@@std@@@std@@@std@@@2@V?$_Vector_const_iterator@V?$_Vector_val@U?$_Simple_types@V?$vector@NV?$allocator@N@std@@@std@@@std@@@std@@@2@@Z 004726f0 f i main.obj
 0002:00040730       ?_Orphan_range@?$vector@IV?$allocator@I@std@@@std@@IBEXPAI0@Z 00472730 f i main.obj
 0002:00040750       ?_Orphan_range@?$vector@NV?$allocator@N@std@@@std@@IBEXPAN0@Z 00472750 f i main.obj
 0002:00040770       ?_Reallocate@?$vector@IV?$allocator@I@std@@@std@@IAEXI@Z 00472770 f i main.obj
 0002:00040900       ?_Reallocate@?$vector@NV?$allocator@N@std@@@std@@IAEXI@Z 00472900 f i main.obj
 0002:00040a90       ?_Reallocate@?$vector@V?$vector@IV?$allocator@I@std@@@std@@V?$allocator@V?$vector@IV?$allocator@I@std@@@std@@@2@@std@@IAEXI@Z 00472a90 f i main.obj
 0002:00040c20       ?_Reallocate@?$vector@V?$vector@NV?$allocator@N@std@@@std@@V?$allocator@V?$vector@NV?$allocator@N@std@@@std@@@2@@std@@IAEXI@Z 00472c20 f i main.obj
 0002:00040db0       ?_Reserve@?$vector@IV?$allocator@I@std@@@std@@IAEXI@Z 00472db0 f i main.obj
 0002:00040e30       ?_Reserve@?$vector@NV?$allocator@N@std@@@std@@IAEXI@Z 00472e30 f i main.obj
 0002:00040eb0       ?_Reserve@?$vector@V?$vector@IV?$allocator@I@std@@@std@@V?$allocator@V?$vector@IV?$allocator@I@std@@@std@@@2@@std@@IAEXI@Z 00472eb0 f i main.obj
 0002:00040f30       ?_Reserve@?$vector@V?$vector@NV?$allocator@N@std@@@std@@V?$allocator@V?$vector@NV?$allocator@N@std@@@std@@@2@@std@@IAEXI@Z 00472f30 f i main.obj
 0002:00040fb0       ?_Tidy@?$vector@HV?$allocator@H@std@@@std@@IAEXXZ 00472fb0 f i main.obj
 0002:00041050       ?_Tidy@?$vector@IV?$allocator@I@std@@@std@@IAEXXZ 00473050 f i main.obj
 0002:000410f0       ?_Tidy@?$vector@NV?$allocator@N@std@@@std@@IAEXXZ 004730f0 f i main.obj
 0002:00041190       ?_Tidy@?$vector@UParticle@@V?$allocator@UParticle@@@std@@@std@@IAEXXZ 00473190 f i main.obj
 0002:00041240       ?_Tidy@?$vector@V?$vector@IV?$allocator@I@std@@@std@@V?$allocator@V?$vector@IV?$allocator@I@std@@@std@@@2@@std@@IAEXXZ 00473240 f i main.obj
 0002:000412f0       ?_Tidy@?$vector@V?$vector@NV?$allocator@N@std@@@std@@V?$allocator@V?$vector@NV?$allocator@N@std@@@std@@@2@@std@@IAEXXZ 004732f0 f i main.obj
 0002:000413a0       ?_Unused_capacity@?$vector@IV?$allocator@I@std@@@std@@QBEIXZ 004733a0 f i main.obj
 0002:000413d0       ?_Unused_capacity@?$vector@NV?$allocator@N@std@@@std@@QBEIXZ 004733d0 f i main.obj
 0002:00041400       ?_Unused_capacity@?$vector@V?$vector@IV?$allocator@I@std@@@std@@V?$allocator@V?$vector@IV?$allocator@I@std@@@std@@@2@@std@@QBEIXZ 00473400 f i main.obj
 0002:00041430       ?_Unused_capacity@?$vector@V?$vector@NV?$allocator@N@std@@@std@@V?$allocator@V?$vector@NV?$allocator@N@std@@@std@@@2@@std@@QBEIXZ 00473430 f i main.obj
 0002:00041460       ?_Xlen@?$vector@HV?$allocator@H@std@@@std@@IBEXXZ 00473460 f i main.obj
 0002:00041490       ?_Xlen@?$vector@IV?$allocator@I@std@@@std@@IBEXXZ 00473490 f i main.obj
 0002:000414c0       ?_Xlen@?$vector@NV?$allocator@N@std@@@std@@IBEXXZ 004734c0 f i main.obj
 0002:000414f0       ?_Xlen@?$vector@V?$vector@IV?$allocator@I@std@@@std@@V?$allocator@V?$vector@IV?$allocator@I@std@@@std@@@2@@std@@IBEXXZ 004734f0 f i main.obj
 0002:00041520       ?_Xlen@?$vector@V?$vector@NV?$allocator@N@std@@@std@@V?$allocator@V?$vector@NV?$allocator@N@std@@@std@@@2@@std@@IBEXXZ 00473520 f i main.obj
 0002:00041550       ?allocate@?$_Wrap_alloc@V?$allocator@H@std@@@std@@QAEPAHI@Z 00473550 f i main.obj
 0002:00041580       ?allocate@?$_Wrap_alloc@V?$allocator@I@std@@@std@@QAEPAII@Z 00473580 f i main.obj
 0002:000415b0       ?allocate@?$_Wrap_alloc@V?$allocator@N@std@@@std@@QAEPANI@Z 004735b0 f i main.obj
 0002:000415e0       ?allocate@?$_Wrap_alloc@V?$allocator@V?$vector@IV?$allocator@I@std@@@std@@@std@@@std@@QAEPAV?$vector@IV?$allocator@I@std@@@2@I@Z 004735e0 f i main.obj
 0002:00041610       ?allocate@?$_Wrap_alloc@V?$allocator@V?$vector@NV?$allocator@N@std@@@std@@@std@@@std@@QAEPAV?$vector@NV?$allocator@N@std@@@2@I@Z 00473610 f i main.obj
 0002:00041640       ?allocate@?$allocator@H@std@@QAEPAHI@Z 00473640 f i main.obj
 0002:00041670       ?allocate@?$allocator@I@std@@QAEPAII@Z 00473670 f i main.obj
 0002:000416a0       ?allocate@?$allocator@N@std@@QAEPANI@Z 004736a0 f i main.obj
 0002:000416d0       ?allocate@?$allocator@V?$vector@IV?$allocator@I@std@@@std@@@std@@QAEPAV?$vector@IV?$allocator@I@std@@@2@I@Z 004736d0 f i main.obj
 0002:00041700       ?allocate@?$allocator@V?$vector@NV?$allocator@N@std@@@std@@@std@@QAEPAV?$vector@NV?$allocator@N@std@@@2@I@Z 00473700 f i main.obj
 0002:00041730       ?base@?$move_iterator@V?$_Vector_iterator@V?$_Vector_val@U?$_Simple_types@I@std@@@std@@@std@@@std@@QBE?AV?$_Vector_iterator@V?$_Vector_val@U?$_Simple_types@I@std@@@std@@@2@XZ 00473730 f i main.obj
 0002:00041760       ?base@?$move_iterator@V?$_Vector_iterator@V?$_Vector_val@U?$_Simple_types@N@std@@@std@@@std@@@std@@QBE?AV?$_Vector_iterator@V?$_Vector_val@U?$_Simple_types@N@std@@@std@@@2@XZ 00473760 f i main.obj
 0002:00041790       ?begin@?$vector@HV?$allocator@H@std@@@std@@QBE?AV?$_Vector_const_iterator@V?$_Vector_val@U?$_Simple_types@H@std@@@std@@@2@XZ 00473790 f i main.obj
 0002:000417d0       ?begin@?$vector@IV?$allocator@I@std@@@std@@QAE?AV?$_Vector_iterator@V?$_Vector_val@U?$_Simple_types@I@std@@@std@@@2@XZ 004737d0 f i main.obj
 0002:00041810       ?begin@?$vector@NV?$allocator@N@std@@@std@@QAE?AV?$_Vector_iterator@V?$_Vector_val@U?$_Simple_types@N@std@@@std@@@2@XZ 00473810 f i main.obj
 0002:00041850       ?begin@?$vector@V?$vector@IV?$allocator@I@std@@@std@@V?$allocator@V?$vector@IV?$allocator@I@std@@@std@@@2@@std@@QAE?AV?$_Vector_iterator@V?$_Vector_val@U?$_Simple_types@V?$vector@IV?$allocator@I@std@@@std@@@std@@@std@@@2@XZ 00473850 f i main.obj
 0002:00041890       ?begin@?$vector@V?$vector@NV?$allocator@N@std@@@std@@V?$allocator@V?$vector@NV?$allocator@N@std@@@std@@@2@@std@@QAE?AV?$_Vector_iterator@V?$_Vector_val@U?$_Simple_types@V?$vector@NV?$allocator@N@std@@@std@@@std@@@std@@@2@XZ 00473890 f i main.obj
 0002:000418d0       ?boundary_phi@@YAMABU?$Vec@$02M@@@Z 004738d0 f   main.obj
 0002:00041930       ?capacity@?$vector@IV?$allocator@I@std@@@std@@QBEIXZ 00473930 f i main.obj
 0002:00041960       ?capacity@?$vector@NV?$allocator@N@std@@@std@@QBEIXZ 00473960 f i main.obj
 0002:00041990       ?capacity@?$vector@V?$vector@IV?$allocator@I@std@@@std@@V?$allocator@V?$vector@IV?$allocator@I@std@@@std@@@2@@std@@QBEIXZ 00473990 f i main.obj
 0002:000419c0       ?capacity@?$vector@V?$vector@NV?$allocator@N@std@@@std@@V?$allocator@V?$vector@NV?$allocator@N@std@@@std@@@2@@std@@QBEIXZ 004739c0 f i main.obj
 0002:000419f0       ?clear@?$vector@IV?$allocator@I@std@@@std@@QAEXXZ 004739f0 f i main.obj
 0002:00041a40       ?clear@?$vector@NV?$allocator@N@std@@@std@@QAEXXZ 00473a40 f i main.obj
 0002:00041a90       ?clear@?$vector@V?$vector@IV?$allocator@I@std@@@std@@V?$allocator@V?$vector@IV?$allocator@I@std@@@std@@@2@@std@@QAEXXZ 00473a90 f i main.obj
 0002:00041ae0       ?clear@?$vector@V?$vector@NV?$allocator@N@std@@@std@@V?$allocator@V?$vector@NV?$allocator@N@std@@@std@@@2@@std@@QAEXXZ 00473ae0 f i main.obj
 0002:00041b30       ?construct@?$_Wrap_alloc@V?$allocator@V?$vector@IV?$allocator@I@std@@@std@@@std@@@std@@QAEXPAV?$vector@IV?$allocator@I@std@@@2@@Z 00473b30 f i main.obj
 0002:00041b60       ?construct@?$_Wrap_alloc@V?$allocator@V?$vector@NV?$allocator@N@std@@@std@@@std@@@std@@QAEXPAV?$vector@NV?$allocator@N@std@@@2@@Z 00473b60 f i main.obj
 0002:00041b90       ?construct@?$allocator@H@std@@QAEXPAHABH@Z 00473b90 f i main.obj
 0002:00041bf0       ?construct@?$allocator@V?$vector@IV?$allocator@I@std@@@std@@@std@@QAEXPAV?$vector@IV?$allocator@I@std@@@2@@Z 00473bf0 f i main.obj
 0002:00041c90       ?construct@?$allocator@V?$vector@NV?$allocator@N@std@@@std@@@std@@QAEXPAV?$vector@NV?$allocator@N@std@@@2@@Z 00473c90 f i main.obj
 0002:00041d30       ?deallocate@?$_Wrap_alloc@V?$allocator@H@std@@@std@@QAEXPAHI@Z 00473d30 f i main.obj
 0002:00041d60       ?deallocate@?$_Wrap_alloc@V?$allocator@I@std@@@std@@QAEXPAII@Z 00473d60 f i main.obj
 0002:00041d90       ?deallocate@?$_Wrap_alloc@V?$allocator@N@std@@@std@@QAEXPANI@Z 00473d90 f i main.obj
 0002:00041dc0       ?deallocate@?$_Wrap_alloc@V?$allocator@V?$vector@IV?$allocator@I@std@@@std@@@std@@@std@@QAEXPAV?$vector@IV?$allocator@I@std@@@2@I@Z 00473dc0 f i main.obj
 0002:00041df0       ?deallocate@?$_Wrap_alloc@V?$allocator@V?$vector@NV?$allocator@N@std@@@std@@@std@@@std@@QAEXPAV?$vector@NV?$allocator@N@std@@@2@I@Z 00473df0 f i main.obj
 0002:00041e20       ?deallocate@?$allocator@H@std@@QAEXPAHI@Z 00473e20 f i main.obj
 0002:00041e50       ?deallocate@?$allocator@I@std@@QAEXPAII@Z 00473e50 f i main.obj
 0002:00041e80       ?deallocate@?$allocator@N@std@@QAEXPANI@Z 00473e80 f i main.obj
 0002:00041eb0       ?deallocate@?$allocator@V?$vector@IV?$allocator@I@std@@@std@@@std@@QAEXPAV?$vector@IV?$allocator@I@std@@@2@I@Z 00473eb0 f i main.obj
 0002:00041ee0       ?deallocate@?$allocator@V?$vector@NV?$allocator@N@std@@@std@@@std@@QAEXPAV?$vector@NV?$allocator@N@std@@@2@I@Z 00473ee0 f i main.obj
 0002:00041f10       ?display@@YAXXZ            00473f10 f   main.obj
 0002:00042910       ?drawSolidBoundary@@YAXXZ  00474910 f   main.obj
 0002:00042ba0       ?end@?$vector@HV?$allocator@H@std@@@std@@QBE?AV?$_Vector_const_iterator@V?$_Vector_val@U?$_Simple_types@H@std@@@std@@@2@XZ 00474ba0 f i main.obj
 0002:00042be0       ?end@?$vector@IV?$allocator@I@std@@@std@@QAE?AV?$_Vector_iterator@V?$_Vector_val@U?$_Simple_types@I@std@@@std@@@2@XZ 00474be0 f i main.obj
 0002:00042c20       ?end@?$vector@NV?$allocator@N@std@@@std@@QAE?AV?$_Vector_iterator@V?$_Vector_val@U?$_Simple_types@N@std@@@std@@@2@XZ 00474c20 f i main.obj
 0002:00042c60       ?end@?$vector@V?$vector@IV?$allocator@I@std@@@std@@V?$allocator@V?$vector@IV?$allocator@I@std@@@std@@@2@@std@@QAE?AV?$_Vector_iterator@V?$_Vector_val@U?$_Simple_types@V?$vector@IV?$allocator@I@std@@@std@@@std@@@std@@@2@XZ 00474c60 f i main.obj
 0002:00042ca0       ?end@?$vector@V?$vector@NV?$allocator@N@std@@@std@@V?$allocator@V?$vector@NV?$allocator@N@std@@@std@@@2@@std@@QAE?AV?$_Vector_iterator@V?$_Vector_val@U?$_Simple_types@V?$vector@NV?$allocator@N@std@@@std@@@std@@@std@@@2@XZ 00474ca0 f i main.obj
 0002:00042ce0       ?erase@?$vector@IV?$allocator@I@std@@@std@@QAE?AV?$_Vector_iterator@V?$_Vector_val@U?$_Simple_types@I@std@@@std@@@2@V?$_Vector_const_iterator@V?$_Vector_val@U?$_Simple_types@I@std@@@std@@@2@0@Z 00474ce0 f i main.obj
 0002:00042e00       ?erase@?$vector@NV?$allocator@N@std@@@std@@QAE?AV?$_Vector_iterator@V?$_Vector_val@U?$_Simple_types@N@std@@@std@@@2@V?$_Vector_const_iterator@V?$_Vector_val@U?$_Simple_types@N@std@@@std@@@2@0@Z 00474e00 f i main.obj
 0002:00042f20       ?erase@?$vector@V?$vector@IV?$allocator@I@std@@@std@@V?$allocator@V?$vector@IV?$allocator@I@std@@@std@@@2@@std@@QAE?AV?$_Vector_iterator@V?$_Vector_val@U?$_Simple_types@V?$vector@IV?$allocator@I@std@@@std@@@std@@@std@@@2@V?$_Vector_const_iterator@V?$_Vector_val@U?$_Simple_types@V?$vector@IV?$allocator@I@std@@@std@@@std@@@std@@@2@0@Z 00474f20 f i main.obj
 0002:00043040       ?erase@?$vector@V?$vector@NV?$allocator@N@std@@@std@@V?$allocator@V?$vector@NV?$allocator@N@std@@@std@@@2@@std@@QAE?AV?$_Vector_iterator@V?$_Vector_val@U?$_Simple_types@V?$vector@NV?$allocator@N@std@@@std@@@std@@@std@@@2@V?$_Vector_const_iterator@V?$_Vector_val@U?$_Simple_types@V?$vector@NV?$allocator@N@std@@@std@@@std@@@std@@@2@0@Z 00475040 f i main.obj
 0002:00043160       ?export_particles@@YAXV?$basic_string@DU?$char_traits@D@std@@V?$allocator@D@2@@std@@HABV?$vector@UParticle@@V?$allocator@UParticle@@@std@@@2@@Z 00475160 f   main.obj
 0002:00043410       ?keyPress@@YAXEHH@Z        00475410 f   main.obj
 0002:000434c0       ?liquid_phi@@YAMABU?$Vec@$02M@@@Z 004754c0 f   main.obj
 0002:00043550       ?max_size@?$_Wrap_alloc@V?$allocator@H@std@@@std@@QBEIXZ 00475550 f i main.obj
 0002:00043580       ?max_size@?$_Wrap_alloc@V?$allocator@I@std@@@std@@QBEIXZ 00475580 f i main.obj
 0002:000435b0       ?max_size@?$_Wrap_alloc@V?$allocator@N@std@@@std@@QBEIXZ 004755b0 f i main.obj
 0002:000435e0       ?max_size@?$_Wrap_alloc@V?$allocator@V?$vector@IV?$allocator@I@std@@@std@@@std@@@std@@QBEIXZ 004755e0 f i main.obj
 0002:00043610       ?max_size@?$_Wrap_alloc@V?$allocator@V?$vector@NV?$allocator@N@std@@@std@@@std@@@std@@QBEIXZ 00475610 f i main.obj
 0002:00043640       ?max_size@?$allocator@H@std@@QBEIXZ 00475640 f i main.obj
 0002:00043660       ?max_size@?$allocator@I@std@@QBEIXZ 00475660 f i main.obj
 0002:00043680       ?max_size@?$allocator@N@std@@QBEIXZ 00475680 f i main.obj
 0002:000436a0       ?max_size@?$allocator@V?$vector@IV?$allocator@I@std@@@std@@@std@@QBEIXZ 004756a0 f i main.obj
 0002:000436c0       ?max_size@?$allocator@V?$vector@NV?$allocator@N@std@@@std@@@std@@QBEIXZ 004756c0 f i main.obj
 0002:000436e0       ?max_size@?$allocator_traits@V?$allocator@H@std@@@std@@SAIABV?$allocator@H@2@@Z 004756e0 f i main.obj
 0002:00043700       ?max_size@?$allocator_traits@V?$allocator@I@std@@@std@@SAIABV?$allocator@I@2@@Z 00475700 f i main.obj
 0002:00043720       ?max_size@?$allocator_traits@V?$allocator@N@std@@@std@@SAIABV?$allocator@N@2@@Z 00475720 f i main.obj
 0002:00043740       ?max_size@?$allocator_traits@V?$allocator@V?$vector@IV?$allocator@I@std@@@std@@@std@@@std@@SAIABV?$allocator@V?$vector@IV?$allocator@I@std@@@std@@@2@@Z 00475740 f i main.obj
 0002:00043760       ?max_size@?$allocator_traits@V?$allocator@V?$vector@NV?$allocator@N@std@@@std@@@std@@@std@@SAIABV?$allocator@V?$vector@NV?$allocator@N@std@@@std@@@2@@Z 00475760 f i main.obj
 0002:00043780       ?max_size@?$vector@HV?$allocator@H@std@@@std@@QBEIXZ 00475780 f i main.obj
 0002:000437b0       ?max_size@?$vector@IV?$allocator@I@std@@@std@@QBEIXZ 004757b0 f i main.obj
 0002:000437e0       ?max_size@?$vector@NV?$allocator@N@std@@@std@@QBEIXZ 004757e0 f i main.obj
 0002:00043810       ?max_size@?$vector@V?$vector@IV?$allocator@I@std@@@std@@V?$allocator@V?$vector@IV?$allocator@I@std@@@std@@@2@@std@@QBEIXZ 00475810 f i main.obj
 0002:00043840       ?max_size@?$vector@V?$vector@NV?$allocator@N@std@@@std@@V?$allocator@V?$vector@NV?$allocator@N@std@@@std@@@2@@std@@QBEIXZ 00475840 f i main.obj
 0002:00043870       ?reserve@?$vector@IV?$allocator@I@std@@@std@@QAEXI@Z 00475870 f i main.obj
 0002:000438d0       ?reserve@?$vector@NV?$allocator@N@std@@@std@@QAEXI@Z 004758d0 f i main.obj
 0002:00043930       ?resize@?$vector@IV?$allocator@I@std@@@std@@QAEXI@Z 00475930 f i main.obj
 0002:00043ac0       ?resize@?$vector@NV?$allocator@N@std@@@std@@QAEXI@Z 00475ac0 f i main.obj
 0002:00043c50       ?resize@?$vector@V?$vector@IV?$allocator@I@std@@@std@@V?$allocator@V?$vector@IV?$allocator@I@std@@@std@@@2@@std@@QAEXI@Z 00475c50 f i main.obj
 0002:00043de0       ?resize@?$vector@V?$vector@NV?$allocator@N@std@@@std@@V?$allocator@V?$vector@NV?$allocator@N@std@@@std@@@2@@std@@QAEXI@Z 00475de0 f i main.obj
 0002:00043f70       ?select_on_container_copy_construction@?$_Wrap_alloc@V?$allocator@H@std@@@std@@QBE?AU12@XZ 00475f70 f i main.obj
 0002:00043fb0       ?select_on_container_copy_construction@?$allocator@H@std@@QBE?AV12@XZ 00475fb0 f i main.obj
 0002:00043fe0       ?select_on_container_copy_construction@?$allocator_traits@V?$allocator@H@std@@@std@@SA?AV?$allocator@H@2@ABV32@@Z 00475fe0 f i main.obj
 0002:00044010       ?set_lights_and_material@@YAXH@Z 00476010 f   main.obj
 0002:000440e0       ?set_solver_parameters@?$PCGSolver@N@@QAEXNHNN@Z 004760e0 f i main.obj
 0002:00044180       ?set_view@@YAXAAUTarget3D@Gluvi@@@Z 00476180 f   main.obj
 0002:00044210       ?setupDisplay@@YAXHPAPAD@Z 00476210 f   main.obj
 0002:00044360       ?simulate_frame@@YAXH@Z    00476360 f   main.obj
 0002:00044510       ?size@?$vector@HV?$allocator@H@std@@@std@@QBEIXZ 00476510 f i main.obj
 0002:00044540       ?size@?$vector@IV?$allocator@I@std@@@std@@QBEIXZ 00476540 f i main.obj
 0002:00044570       ?size@?$vector@NV?$allocator@N@std@@@std@@QBEIXZ 00476570 f i main.obj
 0002:000445a0       ?size@?$vector@V?$vector@HV?$allocator@H@std@@@std@@V?$allocator@V?$vector@HV?$allocator@H@std@@@std@@@2@@std@@QBEIXZ 004765a0 f i main.obj
 0002:000445d0       ?size@?$vector@V?$vector@IV?$allocator@I@std@@@std@@V?$allocator@V?$vector@IV?$allocator@I@std@@@std@@@2@@std@@QBEIXZ 004765d0 f i main.obj
 0002:00044600       ?size@?$vector@V?$vector@NV?$allocator@N@std@@@std@@V?$allocator@V?$vector@NV?$allocator@N@std@@@std@@@2@@std@@QBEIXZ 00476600 f i main.obj
 0002:00044630       ?sphere_phi@@YAMABU?$Vec@$02M@@0M@Z 00476630 f   main.obj
 0002:00044680       ?str@?$basic_stringbuf@DU?$char_traits@D@std@@V?$allocator@D@2@@std@@QBE?AV?$basic_string@DU?$char_traits@D@std@@V?$allocator@D@2@@2@XZ 00476680 f i main.obj
 0002:00044850       ?str@?$basic_stringstream@DU?$char_traits@D@std@@V?$allocator@D@2@@std@@QBE?AV?$basic_string@DU?$char_traits@D@std@@V?$allocator@D@2@@2@XZ 00476850 f i main.obj
 0002:000448a0       ?timer@@YAXH@Z             004768a0 f   main.obj
 0002:00044950       _main                      00476950 f   main.obj
 0002:00044c60       ??$assign@$02I@@YAXABU?$Vec@$02I@@AAI11@Z 00476c60 f i makelevelset3.obj
 0002:00044cc0       ??$clamp@H@@YAHHHH@Z       00476cc0 f i makelevelset3.obj
 0002:00044d00       ??$max@N@@YANNNN@Z         00476d00 f i makelevelset3.obj
 0002:00044d40       ??$max@N@std@@YAABNABN0@Z  00476d40 f i makelevelset3.obj
 0002:00044d90       ??$min@M@std@@YAABMABM0@Z  00476d90 f i makelevelset3.obj
 0002:00044de0       ??$min@N@@YANNNN@Z         00476de0 f i makelevelset3.obj
 0002:00044e20       ??$min@N@std@@YAABNABN0@Z  00476e20 f i makelevelset3.obj
 0002:00044e70       ??0?$Array1@H@@QAE@KABH@Z  00476e70 f i makelevelset3.obj
 0002:00044f70       ??0?$Array3@HU?$Array1@H@@@@QAE@HHHABH@Z 00476f70 f i makelevelset3.obj
 0002:00045010       ??A?$vector@U?$Vec@$02I@@V?$allocator@U?$Vec@$02I@@@std@@@std@@QBEABU?$Vec@$02I@@I@Z 00477010 f i makelevelset3.obj
 0002:00045040       ??A?$vector@U?$Vec@$02M@@V?$allocator@U?$Vec@$02M@@@std@@@std@@QBEABU?$Vec@$02M@@I@Z 00477040 f i makelevelset3.obj
 0002:00045070       ?assign@?$Array1@M@@QAEXABM@Z 00477070 f i makelevelset3.obj
 0002:000450d0       ?assign@?$Array3@MU?$Array1@M@@@@QAEXABM@Z 004770d0 f i makelevelset3.obj
 0002:00045240       ?make_level_set3@@YAXABV?$vector@U?$Vec@$02I@@V?$allocator@U?$Vec@$02I@@@std@@@std@@ABV?$vector@U?$Vec@$02M@@V?$allocator@U?$Vec@$02M@@@std@@@2@ABU?$Vec@$02M@@MHHHAAU?$Array3@MU?$Array1@M@@@@H@Z 00477240 f   makelevelset3.obj
 0002:000470d0       ??$?0HHH@?$tvec3@M@detail@glm@@QAE@ABH00@Z 004790d0 f i obj.obj
 0002:00047130       ??$?0MMMH@?$tvec4@M@detail@glm@@QAE@ABM00ABH@Z 00479130 f i obj.obj
 0002:00047190       ??$?0NNN@?$tvec3@M@detail@glm@@QAE@ABN00@Z 00479190 f i obj.obj
 0002:000471f0       ??$?DM@detail@glm@@YA?AU?$tvec3@M@01@ABU201@ABM@Z 004791f0 f i obj.obj
 0002:00047270       ??$?GM@detail@glm@@YA?AU?$tvec3@M@01@ABU201@0@Z 00479270 f i obj.obj
 0002:000472f0       ??$_Allocate@M@std@@YAPAMIPAM@Z 004792f0 f i obj.obj
 0002:00047350       ??$_Allocate@PAM@std@@YAPAPAMIPAPAM@Z 00479350 f i obj.obj
 0002:000473b0       ??$_Allocate@U?$tvec4@M@detail@glm@@@std@@YAPAU?$tvec4@M@detail@glm@@IPAU123@@Z 004793b0 f i obj.obj
 0002:00047410       ??$_Allocate@V?$vector@HV?$allocator@H@std@@@std@@@std@@YAPAV?$vector@HV?$allocator@H@std@@@0@IPAV10@@Z 00479410 f i obj.obj
 0002:00047470       ??$_Destroy_range@U?$_Wrap_alloc@V?$allocator@M@std@@@std@@@std@@YAXPAM0AAU?$_Wrap_alloc@V?$allocator@M@std@@@0@@Z 00479470 f i obj.obj
 0002:000474c0       ??$_Destroy_range@U?$_Wrap_alloc@V?$allocator@M@std@@@std@@@std@@YAXPAM0AAU?$_Wrap_alloc@V?$allocator@M@std@@@0@U_Scalar_ptr_iterator_tag@0@@Z 004794c0 f i obj.obj
 0002:000474e0       ??$_Destroy_range@U?$_Wrap_alloc@V?$allocator@PAM@std@@@std@@@std@@YAXPAPAM0AAU?$_Wrap_alloc@V?$allocator@PAM@std@@@0@@Z 004794e0 f i obj.obj
 0002:00047530       ??$_Destroy_range@U?$_Wrap_alloc@V?$allocator@PAM@std@@@std@@@std@@YAXPAPAM0AAU?$_Wrap_alloc@V?$allocator@PAM@std@@@0@U_Scalar_ptr_iterator_tag@0@@Z 00479530 f i obj.obj
 0002:00047550       ??$_Destroy_range@U?$_Wrap_alloc@V?$allocator@U?$tvec4@M@detail@glm@@@std@@@std@@@std@@YAXPAU?$tvec4@M@detail@glm@@0AAU?$_Wrap_alloc@V?$allocator@U?$tvec4@M@detail@glm@@@std@@@0@@Z 00479550 f i obj.obj
 0002:000475a0       ??$_Destroy_range@U?$_Wrap_alloc@V?$allocator@U?$tvec4@M@detail@glm@@@std@@@std@@@std@@YAXPAU?$tvec4@M@detail@glm@@0AAU?$_Wrap_alloc@V?$allocator@U?$tvec4@M@detail@glm@@@std@@@0@U_Nonscalar_ptr_iterator_tag@0@@Z 004795a0 f i obj.obj
 0002:000475e0       ??$_Destroy_range@U?$_Wrap_alloc@V?$allocator@V?$vector@HV?$allocator@H@std@@@std@@@std@@@std@@@std@@YAXPAV?$vector@HV?$allocator@H@std@@@0@0AAU?$_Wrap_alloc@V?$allocator@V?$vector@HV?$allocator@H@std@@@std@@@std@@@0@@Z 004795e0 f i obj.obj
 0002:00047630       ??$_Destroy_range@U?$_Wrap_alloc@V?$allocator@V?$vector@HV?$allocator@H@std@@@std@@@std@@@std@@@std@@YAXPAV?$vector@HV?$allocator@H@std@@@0@0AAU?$_Wrap_alloc@V?$allocator@V?$vector@HV?$allocator@H@std@@@std@@@std@@@0@U_Nonscalar_ptr_iterator_tag@0@@Z 00479630 f i obj.obj
 0002:00047670       ??$_Ptr_cat@MM@std@@YA?AU_Scalar_ptr_iterator_tag@0@PAM0@Z 00479670 f i obj.obj
 0002:00047690       ??$_Ptr_cat@PAMPAM@std@@YA?AU_Scalar_ptr_iterator_tag@0@PAPAM0@Z 00479690 f i obj.obj
 0002:000476b0       ??$_Ptr_cat@U?$tvec4@M@detail@glm@@U123@@std@@YA?AU_Nonscalar_ptr_iterator_tag@0@PAU?$tvec4@M@detail@glm@@0@Z 004796b0 f i obj.obj
 0002:000476d0       ??$_Ptr_cat@V?$vector@HV?$allocator@H@std@@@std@@V12@@std@@YA?AU_Nonscalar_ptr_iterator_tag@0@PAV?$vector@HV?$allocator@H@std@@@0@0@Z 004796d0 f i obj.obj
 0002:000476f0       ??$_Umove@PAH@?$vector@HV?$allocator@H@std@@@std@@IAEPAHPAH00@Z 004796f0 f i obj.obj
 0002:00047740       ??$_Umove@PAM@?$vector@MV?$allocator@M@std@@@std@@IAEPAMPAM00@Z 00479740 f i obj.obj
 0002:00047790       ??$_Umove@PAPAM@?$vector@PAMV?$allocator@PAM@std@@@std@@IAEPAPAMPAPAM00@Z 00479790 f i obj.obj
 0002:000477e0       ??$_Umove@PAU?$tvec4@M@detail@glm@@@?$vector@U?$tvec4@M@detail@glm@@V?$allocator@U?$tvec4@M@detail@glm@@@std@@@std@@IAEPAU?$tvec4@M@detail@glm@@PAU234@00@Z 004797e0 f i obj.obj
 0002:00047830       ??$_Umove@PAV?$vector@HV?$allocator@H@std@@@std@@@?$vector@V?$vector@HV?$allocator@H@std@@@std@@V?$allocator@V?$vector@HV?$allocator@H@std@@@std@@@2@@std@@IAEPAV?$vector@HV?$allocator@H@std@@@1@PAV21@00@Z 00479830 f i obj.obj
 0002:00047880       ??$_Uninit_move@HHH@std@@YAPAHPAH00AAU?$_Wrap_alloc@V?$allocator@H@std@@@0@0U_Scalar_ptr_iterator_tag@0@@Z 00479880 f i obj.obj
 0002:000478d0       ??$_Uninit_move@MMM@std@@YAPAMPAM00AAU?$_Wrap_alloc@V?$allocator@M@std@@@0@0U_Scalar_ptr_iterator_tag@0@@Z 004798d0 f i obj.obj
 0002:00047920       ??$_Uninit_move@PAMPAMPAM@std@@YAPAPAMPAPAM00AAU?$_Wrap_alloc@V?$allocator@PAM@std@@@0@0U_Scalar_ptr_iterator_tag@0@@Z 00479920 f i obj.obj
 0002:00047970       ??$_Uninit_move@PAU?$tvec4@M@detail@glm@@PAU123@V?$allocator@U?$tvec4@M@detail@glm@@@std@@U123@@std@@YAPAU?$tvec4@M@detail@glm@@PAU123@00AAU?$_Wrap_alloc@V?$allocator@U?$tvec4@M@detail@glm@@@std@@@0@0U_Nonscalar_ptr_iterator_tag@0@@Z 00479970 f i obj.obj
 0002:00047a60       ??$_Uninit_move@PAV?$vector@HV?$allocator@H@std@@@std@@PAV12@V?$allocator@V?$vector@HV?$allocator@H@std@@@std@@@2@V12@@std@@YAPAV?$vector@HV?$allocator@H@std@@@0@PAV10@00AAU?$_Wrap_alloc@V?$allocator@V?$vector@HV?$allocator@H@std@@@std@@@std@@@0@0U_Nonscalar_ptr_iterator_tag@0@@Z 00479a60 f i obj.obj
 0002:00047b50       ??$_Uninitialized_move@PAHPAHU?$_Wrap_alloc@V?$allocator@H@std@@@std@@@std@@YAPAHPAH00AAU?$_Wrap_alloc@V?$allocator@H@std@@@0@@Z 00479b50 f i obj.obj
 0002:00047bb0       ??$_Uninitialized_move@PAMPAMU?$_Wrap_alloc@V?$allocator@M@std@@@std@@@std@@YAPAMPAM00AAU?$_Wrap_alloc@V?$allocator@M@std@@@0@@Z 00479bb0 f i obj.obj
 0002:00047c10       ??$_Uninitialized_move@PAPAMPAPAMU?$_Wrap_alloc@V?$allocator@PAM@std@@@std@@@std@@YAPAPAMPAPAM00AAU?$_Wrap_alloc@V?$allocator@PAM@std@@@0@@Z 00479c10 f i obj.obj
 0002:00047c70       ??$_Uninitialized_move@PAU?$tvec4@M@detail@glm@@PAU123@U?$_Wrap_alloc@V?$allocator@U?$tvec4@M@detail@glm@@@std@@@std@@@std@@YAPAU?$tvec4@M@detail@glm@@PAU123@00AAU?$_Wrap_alloc@V?$allocator@U?$tvec4@M@detail@glm@@@std@@@0@@Z 00479c70 f i obj.obj
 0002:00047cd0       ??$_Uninitialized_move@PAV?$vector@HV?$allocator@H@std@@@std@@PAV12@U?$_Wrap_alloc@V?$allocator@V?$vector@HV?$allocator@H@std@@@std@@@std@@@2@@std@@YAPAV?$vector@HV?$allocator@H@std@@@0@PAV10@00AAU?$_Wrap_alloc@V?$allocator@V?$vector@HV?$allocator@H@std@@@std@@@std@@@0@@Z 00479cd0 f i obj.obj
 0002:00047d30       ??$_Val_type@PAH@std@@YAPAHPAH@Z 00479d30 f i obj.obj
 0002:00047d50       ??$_Val_type@PAM@std@@YAPAMPAM@Z 00479d50 f i obj.obj
 0002:00047d70       ??$_Val_type@PAPAM@std@@YAPAPAMPAPAM@Z 00479d70 f i obj.obj
 0002:00047d90       ??$_Val_type@PAU?$tvec4@M@detail@glm@@@std@@YAPAU?$tvec4@M@detail@glm@@PAU123@@Z 00479d90 f i obj.obj
 0002:00047db0       ??$_Val_type@PAV?$vector@HV?$allocator@H@std@@@std@@@std@@YAPAV?$vector@HV?$allocator@H@std@@@0@PAV10@@Z 00479db0 f i obj.obj
 0002:00047dd0       ??$addressof@$$CBM@std@@YAPBMABM@Z 00479dd0 f i obj.obj
 0002:00047df0       ??$addressof@$$CBV?$vector@HV?$allocator@H@std@@@std@@@std@@YAPBV?$vector@HV?$allocator@H@std@@@0@ABV10@@Z 00479df0 f i obj.obj
 0002:00047e10       ??$addressof@H@std@@YAPAHAAH@Z 00479e10 f i obj.obj
 0002:00047e30       ??$addressof@QAM@std@@YAPBQAMABQAM@Z 00479e30 f i obj.obj
 0002:00047e50       ??$addressof@U?$tvec4@M@detail@glm@@@std@@YAPAU?$tvec4@M@detail@glm@@AAU123@@Z 00479e50 f i obj.obj
 0002:00047e70       ??$construct@HH@?$_Wrap_alloc@V?$allocator@H@std@@@std@@QAEXPAH$$QAH@Z 00479e70 f i obj.obj
 0002:00047eb0       ??$construct@HH@?$allocator@H@std@@QAEXPAH$$QAH@Z 00479eb0 f i obj.obj
 0002:00047f60       ??$construct@HH@?$allocator_traits@V?$allocator@H@std@@@std@@SAXAAV?$allocator@H@1@PAH$$QAH@Z 00479f60 f i obj.obj
 0002:00047fa0       ??$construct@MAAM@?$_Wrap_alloc@V?$allocator@M@std@@@std@@QAEXPAMAAM@Z 00479fa0 f i obj.obj
 0002:00047fe0       ??$construct@MAAM@?$allocator@M@std@@QAEXPAMAAM@Z 00479fe0 f i obj.obj
 0002:00048090       ??$construct@MAAM@?$allocator_traits@V?$allocator@M@std@@@std@@SAXAAV?$allocator@M@1@PAMAAM@Z 0047a090 f i obj.obj
 0002:000480d0       ??$construct@MABM@?$_Wrap_alloc@V?$allocator@M@std@@@std@@QAEXPAMABM@Z 0047a0d0 f i obj.obj
 0002:00048110       ??$construct@MABM@?$allocator_traits@V?$allocator@M@std@@@std@@SAXAAV?$allocator@M@1@PAMABM@Z 0047a110 f i obj.obj
 0002:00048150       ??$construct@PAMAAPAM@?$_Wrap_alloc@V?$allocator@PAM@std@@@std@@QAEXPAPAMAAPAM@Z 0047a150 f i obj.obj
 0002:00048190       ??$construct@PAMAAPAM@?$allocator@PAM@std@@QAEXPAPAMAAPAM@Z 0047a190 f i obj.obj
 0002:00048240       ??$construct@PAMAAPAM@?$allocator_traits@V?$allocator@PAM@std@@@std@@SAXAAV?$allocator@PAM@1@PAPAMAAPAM@Z 0047a240 f i obj.obj
 0002:00048280       ??$construct@PAMABQAM@?$_Wrap_alloc@V?$allocator@PAM@std@@@std@@QAEXPAPAMABQAM@Z 0047a280 f i obj.obj
 0002:000482c0       ??$construct@PAMABQAM@?$allocator_traits@V?$allocator@PAM@std@@@std@@SAXAAV?$allocator@PAM@1@PAPAMABQAM@Z 0047a2c0 f i obj.obj
 0002:00048300       ??$construct@U?$tvec4@M@detail@glm@@U123@@?$_Wrap_alloc@V?$allocator@U?$tvec4@M@detail@glm@@@std@@@std@@QAEXPAU?$tvec4@M@detail@glm@@$$QAU234@@Z 0047a300 f i obj.obj
 0002:00048340       ??$construct@U?$tvec4@M@detail@glm@@U123@@?$allocator@U?$tvec4@M@detail@glm@@@std@@QAEXPAU?$tvec4@M@detail@glm@@$$QAU234@@Z 0047a340 f i obj.obj
 0002:000483f0       ??$construct@U?$tvec4@M@detail@glm@@U123@@?$allocator_traits@V?$allocator@U?$tvec4@M@detail@glm@@@std@@@std@@SAXAAV?$allocator@U?$tvec4@M@detail@glm@@@1@PAU?$tvec4@M@detail@glm@@$$QAU345@@Z 0047a3f0 f i obj.obj
 0002:00048430       ??$construct@V?$vector@HV?$allocator@H@std@@@std@@AAV12@@?$_Wrap_alloc@V?$allocator@V?$vector@HV?$allocator@H@std@@@std@@@std@@@std@@QAEXPAV?$vector@HV?$allocator@H@std@@@1@AAV21@@Z 0047a430 f i obj.obj
 0002:00048470       ??$construct@V?$vector@HV?$allocator@H@std@@@std@@AAV12@@?$allocator@V?$vector@HV?$allocator@H@std@@@std@@@std@@QAEXPAV?$vector@HV?$allocator@H@std@@@1@AAV21@@Z 0047a470 f i obj.obj
 0002:00048520       ??$construct@V?$vector@HV?$allocator@H@std@@@std@@AAV12@@?$allocator_traits@V?$allocator@V?$vector@HV?$allocator@H@std@@@std@@@std@@@std@@SAXAAV?$allocator@V?$vector@HV?$allocator@H@std@@@std@@@1@PAV?$vector@HV?$allocator@H@std@@@1@AAV31@@Z 0047a520 f i obj.obj
 0002:00048560       ??$construct@V?$vector@HV?$allocator@H@std@@@std@@ABV12@@?$_Wrap_alloc@V?$allocator@V?$vector@HV?$allocator@H@std@@@std@@@std@@@std@@QAEXPAV?$vector@HV?$allocator@H@std@@@1@ABV21@@Z 0047a560 f i obj.obj
 0002:000485a0       ??$construct@V?$vector@HV?$allocator@H@std@@@std@@ABV12@@?$allocator_traits@V?$allocator@V?$vector@HV?$allocator@H@std@@@std@@@std@@@std@@SAXAAV?$allocator@V?$vector@HV?$allocator@H@std@@@std@@@1@PAV?$vector@HV?$allocator@H@std@@@1@ABV31@@Z 0047a5a0 f i obj.obj
 0002:000485e0       ??$construct@V?$vector@HV?$allocator@H@std@@@std@@V12@@?$_Wrap_alloc@V?$allocator@V?$vector@HV?$allocator@H@std@@@std@@@std@@@std@@QAEXPAV?$vector@HV?$allocator@H@std@@@1@$$QAV21@@Z 0047a5e0 f i obj.obj
 0002:00048620       ??$construct@V?$vector@HV?$allocator@H@std@@@std@@V12@@?$allocator@V?$vector@HV?$allocator@H@std@@@std@@@std@@QAEXPAV?$vector@HV?$allocator@H@std@@@1@$$QAV21@@Z 0047a620 f i obj.obj
 0002:000486d0       ??$construct@V?$vector@HV?$allocator@H@std@@@std@@V12@@?$allocator_traits@V?$allocator@V?$vector@HV?$allocator@H@std@@@std@@@std@@@std@@SAXAAV?$allocator@V?$vector@HV?$allocator@H@std@@@std@@@1@PAV?$vector@HV?$allocator@H@std@@@1@$$QAV31@@Z 0047a6d0 f i obj.obj
 0002:00048710       ??$cross@M@glm@@YA?AU?$tvec3@M@detail@0@ABU120@0@Z 0047a710 f i obj.obj
 0002:000487e0       ??$destroy@U?$tvec4@M@detail@glm@@@?$_Wrap_alloc@V?$allocator@U?$tvec4@M@detail@glm@@@std@@@std@@QAEXPAU?$tvec4@M@detail@glm@@@Z 0047a7e0 f i obj.obj
 0002:00048810       ??$destroy@U?$tvec4@M@detail@glm@@@?$allocator@U?$tvec4@M@detail@glm@@@std@@QAEXPAU?$tvec4@M@detail@glm@@@Z 0047a810 f i obj.obj
 0002:00048830       ??$destroy@U?$tvec4@M@detail@glm@@@?$allocator_traits@V?$allocator@U?$tvec4@M@detail@glm@@@std@@@std@@SAXAAV?$allocator@U?$tvec4@M@detail@glm@@@1@PAU?$tvec4@M@detail@glm@@@Z 0047a830 f i obj.obj
 0002:00048860       ??$destroy@V?$vector@HV?$allocator@H@std@@@std@@@?$_Wrap_alloc@V?$allocator@V?$vector@HV?$allocator@H@std@@@std@@@std@@@std@@QAEXPAV?$vector@HV?$allocator@H@std@@@1@@Z 0047a860 f i obj.obj
 0002:00048890       ??$destroy@V?$vector@HV?$allocator@H@std@@@std@@@?$allocator@V?$vector@HV?$allocator@H@std@@@std@@@std@@QAEXPAV?$vector@HV?$allocator@H@std@@@1@@Z 0047a890 f i obj.obj
 0002:000488c0       ??$destroy@V?$vector@HV?$allocator@H@std@@@std@@@?$allocator_traits@V?$allocator@V?$vector@HV?$allocator@H@std@@@std@@@std@@@std@@SAXAAV?$allocator@V?$vector@HV?$allocator@H@std@@@std@@@1@PAV?$vector@HV?$allocator@H@std@@@1@@Z 0047a8c0 f i obj.obj
 0002:000488f0       ??$forward@AAM@std@@YAAAMAAM@Z 0047a8f0 f i obj.obj
 0002:00048910       ??$forward@AAPAM@std@@YAAAPAMAAPAM@Z 0047a910 f i obj.obj
 0002:00048930       ??$forward@AAV?$vector@HV?$allocator@H@std@@@std@@@std@@YAAAV?$vector@HV?$allocator@H@std@@@0@AAV10@@Z 0047a930 f i obj.obj
 0002:00048950       ??$forward@ABM@std@@YAABMABM@Z 0047a950 f i obj.obj
 0002:00048970       ??$forward@ABQAM@std@@YAABQAMABQAM@Z 0047a970 f i obj.obj
 0002:00048990       ??$forward@ABV?$vector@HV?$allocator@H@std@@@std@@@std@@YAABV?$vector@HV?$allocator@H@std@@@0@ABV10@@Z 0047a990 f i obj.obj
 0002:000489b0       ??$forward@H@std@@YA$$QAHAAH@Z 0047a9b0 f i obj.obj
 0002:000489d0       ??$forward@U?$tvec4@M@detail@glm@@@std@@YA$$QAU?$tvec4@M@detail@glm@@AAU123@@Z 0047a9d0 f i obj.obj
 0002:000489f0       ??$forward@V?$vector@HV?$allocator@H@std@@@std@@@std@@YA$$QAV?$vector@HV?$allocator@H@std@@@0@AAV10@@Z 0047a9f0 f i obj.obj
 0002:00048a10       ??$inversesqrt@M@glm@@YAMABM@Z 0047aa10 f i obj.obj
 0002:00048a60       ??$normalize@M@glm@@YA?AU?$tvec3@M@detail@0@ABU120@@Z 0047aa60 f i obj.obj
 0002:00048af0       ??0?$_Vector_alloc@$0A@U?$_Vec_base_types@MV?$allocator@M@std@@@std@@@std@@QAE@ABV?$allocator@M@1@@Z 0047aaf0 f i obj.obj
 0002:00048b20       ??0?$_Vector_alloc@$0A@U?$_Vec_base_types@PAMV?$allocator@PAM@std@@@std@@@std@@QAE@ABV?$allocator@PAM@1@@Z 0047ab20 f i obj.obj
 0002:00048b50       ??0?$_Vector_alloc@$0A@U?$_Vec_base_types@U?$tvec4@M@detail@glm@@V?$allocator@U?$tvec4@M@detail@glm@@@std@@@std@@@std@@QAE@ABV?$allocator@U?$tvec4@M@detail@glm@@@1@@Z 0047ab50 f i obj.obj
 0002:00048b80       ??0?$_Vector_alloc@$0A@U?$_Vec_base_types@V?$vector@HV?$allocator@H@std@@@std@@V?$allocator@V?$vector@HV?$allocator@H@std@@@std@@@2@@std@@@std@@QAE@ABV?$allocator@V?$vector@HV?$allocator@H@std@@@std@@@1@@Z 0047ab80 f i obj.obj
 0002:00048bb0       ??0?$_Vector_val@U?$_Simple_types@M@std@@@std@@QAE@XZ 0047abb0 f i obj.obj
 0002:00048bf0       ??0?$_Vector_val@U?$_Simple_types@PAM@std@@@std@@QAE@XZ 0047abf0 f i obj.obj
 0002:00048c30       ??0?$_Vector_val@U?$_Simple_types@U?$tvec4@M@detail@glm@@@std@@@std@@QAE@XZ 0047ac30 f i obj.obj
 0002:00048c70       ??0?$_Vector_val@U?$_Simple_types@V?$vector@HV?$allocator@H@std@@@std@@@std@@@std@@QAE@XZ 0047ac70 f i obj.obj
 0002:00048cb0       ??0?$_Wrap_alloc@V?$allocator@M@std@@@std@@QAE@XZ 0047acb0 f i obj.obj
 0002:00048ce0       ??0?$_Wrap_alloc@V?$allocator@PAM@std@@@std@@QAE@XZ 0047ace0 f i obj.obj
 0002:00048d10       ??0?$_Wrap_alloc@V?$allocator@U?$tvec4@M@detail@glm@@@std@@@std@@QAE@XZ 0047ad10 f i obj.obj
 0002:00048d40       ??0?$_Wrap_alloc@V?$allocator@V?$vector@HV?$allocator@H@std@@@std@@@std@@@std@@QAE@XZ 0047ad40 f i obj.obj
 0002:00048d70       ??0?$allocator@M@std@@QAE@XZ 0047ad70 f i obj.obj
 0002:00048d90       ??0?$allocator@PAM@std@@QAE@XZ 0047ad90 f i obj.obj
 0002:00048db0       ??0?$allocator@U?$tvec4@M@detail@glm@@@std@@QAE@XZ 0047adb0 f i obj.obj
 0002:00048dd0       ??0?$allocator@V?$vector@HV?$allocator@H@std@@@std@@@std@@QAE@XZ 0047add0 f i obj.obj
 0002:00048df0       ??0?$tvec3@M@detail@glm@@QAE@ABM00@Z 0047adf0 f i obj.obj
 0002:00048e40       ??0?$tvec3@M@detail@glm@@QAE@ABU012@@Z 0047ae40 f i obj.obj
 0002:00048e90       ??0?$tvec3@M@detail@glm@@QAE@XZ 0047ae90 f i obj.obj
 0002:00048ef0       ??0?$tvec4@M@detail@glm@@QAE@ABU012@@Z 0047aef0 f i obj.obj
 0002:00048f50       ??0?$vector@HV?$allocator@H@std@@@std@@QAE@$$QAV01@@Z 0047af50 f i obj.obj
 0002:00048fb0       ??0?$vector@HV?$allocator@H@std@@@std@@QAE@XZ 0047afb0 f i obj.obj
 0002:00048fe0       ??0?$vector@MV?$allocator@M@std@@@std@@QAE@XZ 0047afe0 f i obj.obj
 0002:00049010       ??0?$vector@PAMV?$allocator@PAM@std@@@std@@QAE@XZ 0047b010 f i obj.obj
 0002:00049040       ??0?$vector@U?$tvec4@M@detail@glm@@V?$allocator@U?$tvec4@M@detail@glm@@@std@@@std@@QAE@XZ 0047b040 f i obj.obj
 0002:00049070       ??0?$vector@V?$vector@HV?$allocator@H@std@@@std@@V?$allocator@V?$vector@HV?$allocator@H@std@@@std@@@2@@std@@QAE@XZ 0047b070 f i obj.obj
 0002:000490a0       ??0obj@@QAE@XZ             0047b0a0 f   obj.obj
 0002:000492d0       ??1?$vector@MV?$allocator@M@std@@@std@@QAE@XZ 0047b2d0 f i obj.obj
 0002:00049300       ??1?$vector@PAMV?$allocator@PAM@std@@@std@@QAE@XZ 0047b300 f i obj.obj
 0002:00049330       ??1?$vector@U?$tvec4@M@detail@glm@@V?$allocator@U?$tvec4@M@detail@glm@@@std@@@std@@QAE@XZ 0047b330 f i obj.obj
 0002:00049360       ??1?$vector@V?$vector@HV?$allocator@H@std@@@std@@V?$allocator@V?$vector@HV?$allocator@H@std@@@std@@@2@@std@@QAE@XZ 0047b360 f i obj.obj
 0002:00049390       ??1obj@@QAE@XZ             0047b390 f   obj.obj
 0002:000494e0       ??4?$tvec3@M@detail@glm@@QAEAAU012@ABU012@@Z 0047b4e0 f i obj.obj
 0002:00049530       ??A?$tvec3@M@detail@glm@@QAEAAMI@Z 0047b530 f i obj.obj
 0002:00049580       ??A?$tvec4@M@detail@glm@@QAEAAMI@Z 0047b580 f i obj.obj
 0002:000495d0       ??A?$vector@MV?$allocator@M@std@@@std@@QAEAAMI@Z 0047b5d0 f i obj.obj
 0002:00049600       ??A?$vector@PAMV?$allocator@PAM@std@@@std@@QAEAAPAMI@Z 0047b600 f i obj.obj
 0002:00049630       ??_G?$vector@HV?$allocator@H@std@@@std@@QAEPAXI@Z 0047b630 f i obj.obj
 0002:00049680       ?_Assign_rv@?$vector@HV?$allocator@H@std@@@std@@QAEX$$QAV12@@Z 0047b680 f i obj.obj
 0002:00049700       ?_Destroy@?$vector@MV?$allocator@M@std@@@std@@IAEXPAM0@Z 0047b700 f i obj.obj
 0002:00049750       ?_Destroy@?$vector@PAMV?$allocator@PAM@std@@@std@@IAEXPAPAM0@Z 0047b750 f i obj.obj
 0002:000497a0       ?_Destroy@?$vector@U?$tvec4@M@detail@glm@@V?$allocator@U?$tvec4@M@detail@glm@@@std@@@std@@IAEXPAU?$tvec4@M@detail@glm@@0@Z 0047b7a0 f i obj.obj
 0002:000497f0       ?_Destroy@?$vector@V?$vector@HV?$allocator@H@std@@@std@@V?$allocator@V?$vector@HV?$allocator@H@std@@@std@@@2@@std@@IAEXPAV?$vector@HV?$allocator@H@std@@@2@0@Z 0047b7f0 f i obj.obj
 0002:00049840       ?_Getal@?$_Vector_alloc@$0A@U?$_Vec_base_types@MV?$allocator@M@std@@@std@@@std@@QBE?AU?$_Wrap_alloc@V?$allocator@M@std@@@2@XZ 0047b840 f i obj.obj
 0002:00049870       ?_Getal@?$_Vector_alloc@$0A@U?$_Vec_base_types@PAMV?$allocator@PAM@std@@@std@@@std@@QBE?AU?$_Wrap_alloc@V?$allocator@PAM@std@@@2@XZ 0047b870 f i obj.obj
 0002:000498a0       ?_Getal@?$_Vector_alloc@$0A@U?$_Vec_base_types@U?$tvec4@M@detail@glm@@V?$allocator@U?$tvec4@M@detail@glm@@@std@@@std@@@std@@QBE?AU?$_Wrap_alloc@V?$allocator@U?$tvec4@M@detail@glm@@@std@@@2@XZ 0047b8a0 f i obj.obj
 0002:000498d0       ?_Getal@?$_Vector_alloc@$0A@U?$_Vec_base_types@V?$vector@HV?$allocator@H@std@@@std@@V?$allocator@V?$vector@HV?$allocator@H@std@@@std@@@2@@std@@@std@@QBE?AU?$_Wrap_alloc@V?$allocator@V?$vector@HV?$allocator@H@std@@@std@@@std@@@2@XZ 0047b8d0 f i obj.obj
 0002:00049900       ?_Grow_to@?$vector@HV?$allocator@H@std@@@std@@IBEII@Z 0047b900 f i obj.obj
 0002:00049980       ?_Grow_to@?$vector@MV?$allocator@M@std@@@std@@IBEII@Z 0047b980 f i obj.obj
 0002:00049a00       ?_Grow_to@?$vector@PAMV?$allocator@PAM@std@@@std@@IBEII@Z 0047ba00 f i obj.obj
 0002:00049a80       ?_Grow_to@?$vector@U?$tvec4@M@detail@glm@@V?$allocator@U?$tvec4@M@detail@glm@@@std@@@std@@IBEII@Z 0047ba80 f i obj.obj
 0002:00049b00       ?_Grow_to@?$vector@V?$vector@HV?$allocator@H@std@@@std@@V?$allocator@V?$vector@HV?$allocator@H@std@@@std@@@2@@std@@IBEII@Z 0047bb00 f i obj.obj
 0002:00049b80       ?_Inside@?$vector@HV?$allocator@H@std@@@std@@IBE_NPBH@Z 0047bb80 f i obj.obj
 0002:00049bd0       ?_Inside@?$vector@MV?$allocator@M@std@@@std@@IBE_NPBM@Z 0047bbd0 f i obj.obj
 0002:00049c20       ?_Inside@?$vector@PAMV?$allocator@PAM@std@@@std@@IBE_NPBQAM@Z 0047bc20 f i obj.obj
 0002:00049c70       ?_Inside@?$vector@U?$tvec4@M@detail@glm@@V?$allocator@U?$tvec4@M@detail@glm@@@std@@@std@@IBE_NPBU?$tvec4@M@detail@glm@@@Z 0047bc70 f i obj.obj
 0002:00049cc0       ?_Inside@?$vector@V?$vector@HV?$allocator@H@std@@@std@@V?$allocator@V?$vector@HV?$allocator@H@std@@@std@@@2@@std@@IBE_NPBV?$vector@HV?$allocator@H@std@@@2@@Z 0047bcc0 f i obj.obj
 0002:00049d10       ?_Orphan_range@?$vector@HV?$allocator@H@std@@@std@@IBEXPAH0@Z 0047bd10 f i obj.obj
 0002:00049d30       ?_Orphan_range@?$vector@MV?$allocator@M@std@@@std@@IBEXPAM0@Z 0047bd30 f i obj.obj
 0002:00049d50       ?_Orphan_range@?$vector@PAMV?$allocator@PAM@std@@@std@@IBEXPAPAM0@Z 0047bd50 f i obj.obj
 0002:00049d70       ?_Orphan_range@?$vector@U?$tvec4@M@detail@glm@@V?$allocator@U?$tvec4@M@detail@glm@@@std@@@std@@IBEXPAU?$tvec4@M@detail@glm@@0@Z 0047bd70 f i obj.obj
 0002:00049d90       ?_Orphan_range@?$vector@V?$vector@HV?$allocator@H@std@@@std@@V?$allocator@V?$vector@HV?$allocator@H@std@@@std@@@2@@std@@IBEXPAV?$vector@HV?$allocator@H@std@@@2@0@Z 0047bd90 f i obj.obj
 0002:00049db0       ?_Reallocate@?$vector@HV?$allocator@H@std@@@std@@IAEXI@Z 0047bdb0 f i obj.obj
 0002:00049f40       ?_Reallocate@?$vector@MV?$allocator@M@std@@@std@@IAEXI@Z 0047bf40 f i obj.obj
 0002:0004a0d0       ?_Reallocate@?$vector@PAMV?$allocator@PAM@std@@@std@@IAEXI@Z 0047c0d0 f i obj.obj
 0002:0004a260       ?_Reallocate@?$vector@U?$tvec4@M@detail@glm@@V?$allocator@U?$tvec4@M@detail@glm@@@std@@@std@@IAEXI@Z 0047c260 f i obj.obj
 0002:0004a3f0       ?_Reallocate@?$vector@V?$vector@HV?$allocator@H@std@@@std@@V?$allocator@V?$vector@HV?$allocator@H@std@@@std@@@2@@std@@IAEXI@Z 0047c3f0 f i obj.obj
 0002:0004a580       ?_Reserve@?$vector@HV?$allocator@H@std@@@std@@IAEXI@Z 0047c580 f i obj.obj
 0002:0004a600       ?_Reserve@?$vector@MV?$allocator@M@std@@@std@@IAEXI@Z 0047c600 f i obj.obj
 0002:0004a680       ?_Reserve@?$vector@PAMV?$allocator@PAM@std@@@std@@IAEXI@Z 0047c680 f i obj.obj
 0002:0004a700       ?_Reserve@?$vector@U?$tvec4@M@detail@glm@@V?$allocator@U?$tvec4@M@detail@glm@@@std@@@std@@IAEXI@Z 0047c700 f i obj.obj
 0002:0004a780       ?_Reserve@?$vector@V?$vector@HV?$allocator@H@std@@@std@@V?$allocator@V?$vector@HV?$allocator@H@std@@@std@@@2@@std@@IAEXI@Z 0047c780 f i obj.obj
 0002:0004a800       ?_Tidy@?$vector@MV?$allocator@M@std@@@std@@IAEXXZ 0047c800 f i obj.obj
 0002:0004a8a0       ?_Tidy@?$vector@PAMV?$allocator@PAM@std@@@std@@IAEXXZ 0047c8a0 f i obj.obj
 0002:0004a940       ?_Tidy@?$vector@U?$tvec4@M@detail@glm@@V?$allocator@U?$tvec4@M@detail@glm@@@std@@@std@@IAEXXZ 0047c940 f i obj.obj
 0002:0004a9e0       ?_Tidy@?$vector@V?$vector@HV?$allocator@H@std@@@std@@V?$allocator@V?$vector@HV?$allocator@H@std@@@std@@@2@@std@@IAEXXZ 0047c9e0 f i obj.obj
 0002:0004aa90       ?_Unused_capacity@?$vector@HV?$allocator@H@std@@@std@@QBEIXZ 0047ca90 f i obj.obj
 0002:0004aac0       ?_Unused_capacity@?$vector@MV?$allocator@M@std@@@std@@QBEIXZ 0047cac0 f i obj.obj
 0002:0004aaf0       ?_Unused_capacity@?$vector@PAMV?$allocator@PAM@std@@@std@@QBEIXZ 0047caf0 f i obj.obj
 0002:0004ab20       ?_Unused_capacity@?$vector@U?$tvec4@M@detail@glm@@V?$allocator@U?$tvec4@M@detail@glm@@@std@@@std@@QBEIXZ 0047cb20 f i obj.obj
 0002:0004ab50       ?_Unused_capacity@?$vector@V?$vector@HV?$allocator@H@std@@@std@@V?$allocator@V?$vector@HV?$allocator@H@std@@@std@@@2@@std@@QBEIXZ 0047cb50 f i obj.obj
 0002:0004ab80       ?_Xlen@?$vector@MV?$allocator@M@std@@@std@@IBEXXZ 0047cb80 f i obj.obj
 0002:0004abb0       ?_Xlen@?$vector@PAMV?$allocator@PAM@std@@@std@@IBEXXZ 0047cbb0 f i obj.obj
 0002:0004abe0       ?_Xlen@?$vector@U?$tvec4@M@detail@glm@@V?$allocator@U?$tvec4@M@detail@glm@@@std@@@std@@IBEXXZ 0047cbe0 f i obj.obj
 0002:0004ac10       ?_Xlen@?$vector@V?$vector@HV?$allocator@H@std@@@std@@V?$allocator@V?$vector@HV?$allocator@H@std@@@std@@@2@@std@@IBEXXZ 0047cc10 f i obj.obj
 0002:0004ac40       ?addFace@obj@@QAEXV?$vector@HV?$allocator@H@std@@@std@@@Z 0047cc40 f   obj.obj
 0002:0004b4a0       ?addFaceNormal@obj@@QAEXV?$vector@HV?$allocator@H@std@@@std@@@Z 0047d4a0 f   obj.obj
 0002:0004b520       ?addFaceTexture@obj@@QAEXV?$vector@HV?$allocator@H@std@@@std@@@Z 0047d520 f   obj.obj
 0002:0004b5a0       ?addNormal@obj@@QAEXU?$tvec3@M@detail@glm@@@Z 0047d5a0 f   obj.obj
 0002:0004b610       ?addPoint@obj@@QAEXU?$tvec3@M@detail@glm@@@Z 0047d610 f   obj.obj
 0002:0004b780       ?addTextureCoord@obj@@QAEXU?$tvec3@M@detail@glm@@@Z 0047d780 f   obj.obj
 0002:0004b7f0       ?allocate@?$_Wrap_alloc@V?$allocator@M@std@@@std@@QAEPAMI@Z 0047d7f0 f i obj.obj
 0002:0004b820       ?allocate@?$_Wrap_alloc@V?$allocator@PAM@std@@@std@@QAEPAPAMI@Z 0047d820 f i obj.obj
 0002:0004b850       ?allocate@?$_Wrap_alloc@V?$allocator@U?$tvec4@M@detail@glm@@@std@@@std@@QAEPAU?$tvec4@M@detail@glm@@I@Z 0047d850 f i obj.obj
 0002:0004b880       ?allocate@?$_Wrap_alloc@V?$allocator@V?$vector@HV?$allocator@H@std@@@std@@@std@@@std@@QAEPAV?$vector@HV?$allocator@H@std@@@2@I@Z 0047d880 f i obj.obj
 0002:0004b8b0       ?allocate@?$allocator@M@std@@QAEPAMI@Z 0047d8b0 f i obj.obj
 0002:0004b8e0       ?allocate@?$allocator@PAM@std@@QAEPAPAMI@Z 0047d8e0 f i obj.obj
 0002:0004b910       ?allocate@?$allocator@U?$tvec4@M@detail@glm@@@std@@QAEPAU?$tvec4@M@detail@glm@@I@Z 0047d910 f i obj.obj
 0002:0004b940       ?allocate@?$allocator@V?$vector@HV?$allocator@H@std@@@std@@@std@@QAEPAV?$vector@HV?$allocator@H@std@@@2@I@Z 0047d940 f i obj.obj
 0002:0004b970       ?buildVBOs@obj@@QAEXXZ     0047d970 f   obj.obj
 0002:0004c460       ?capacity@?$vector@HV?$allocator@H@std@@@std@@QBEIXZ 0047e460 f i obj.obj
 0002:0004c490       ?capacity@?$vector@MV?$allocator@M@std@@@std@@QBEIXZ 0047e490 f i obj.obj
 0002:0004c4c0       ?capacity@?$vector@PAMV?$allocator@PAM@std@@@std@@QBEIXZ 0047e4c0 f i obj.obj
 0002:0004c4f0       ?capacity@?$vector@U?$tvec4@M@detail@glm@@V?$allocator@U?$tvec4@M@detail@glm@@@std@@@std@@QBEIXZ 0047e4f0 f i obj.obj
 0002:0004c520       ?capacity@?$vector@V?$vector@HV?$allocator@H@std@@@std@@V?$allocator@V?$vector@HV?$allocator@H@std@@@std@@@2@@std@@QBEIXZ 0047e520 f i obj.obj
 0002:0004c550       ?compareMaxMin@obj@@QAEXMMM@Z 0047e550 f   obj.obj
 0002:0004cad0       ?construct@?$allocator@M@std@@QAEXPAMABM@Z 0047ead0 f i obj.obj
 0002:0004cb30       ?construct@?$allocator@PAM@std@@QAEXPAPAMABQAM@Z 0047eb30 f i obj.obj
 0002:0004cb90       ?construct@?$allocator@V?$vector@HV?$allocator@H@std@@@std@@@std@@QAEXPAV?$vector@HV?$allocator@H@std@@@2@ABV32@@Z 0047eb90 f i obj.obj
 0002:0004cc40       ?deallocate@?$_Wrap_alloc@V?$allocator@M@std@@@std@@QAEXPAMI@Z 0047ec40 f i obj.obj
 0002:0004cc70       ?deallocate@?$_Wrap_alloc@V?$allocator@PAM@std@@@std@@QAEXPAPAMI@Z 0047ec70 f i obj.obj
 0002:0004cca0       ?deallocate@?$_Wrap_alloc@V?$allocator@U?$tvec4@M@detail@glm@@@std@@@std@@QAEXPAU?$tvec4@M@detail@glm@@I@Z 0047eca0 f i obj.obj
 0002:0004ccd0       ?deallocate@?$_Wrap_alloc@V?$allocator@V?$vector@HV?$allocator@H@std@@@std@@@std@@@std@@QAEXPAV?$vector@HV?$allocator@H@std@@@2@I@Z 0047ecd0 f i obj.obj
 0002:0004cd00       ?deallocate@?$allocator@M@std@@QAEXPAMI@Z 0047ed00 f i obj.obj
 0002:0004cd30       ?deallocate@?$allocator@PAM@std@@QAEXPAPAMI@Z 0047ed30 f i obj.obj
 0002:0004cd60       ?deallocate@?$allocator@U?$tvec4@M@detail@glm@@@std@@QAEXPAU?$tvec4@M@detail@glm@@I@Z 0047ed60 f i obj.obj
 0002:0004cd90       ?deallocate@?$allocator@V?$vector@HV?$allocator@H@std@@@std@@@std@@QAEXPAV?$vector@HV?$allocator@H@std@@@2@I@Z 0047ed90 f i obj.obj
 0002:0004cdc0       ?epsilon@?$numeric_limits@N@std@@SANXZ 0047edc0 f i obj.obj
 0002:0004cde0       ?getBoundingBox@obj@@QAEPAMXZ 0047ede0 f   obj.obj
 0002:0004ce00       ?getCBO@obj@@QAEPAMXZ      0047ee00 f   obj.obj
 0002:0004ce20       ?getCBOsize@obj@@QAEHXZ    0047ee20 f   obj.obj
 0002:0004ce40       ?getColor@obj@@QAE?AU?$tvec3@M@detail@glm@@XZ 0047ee40 f   obj.obj
 0002:0004ce70       ?getFaceBoxes@obj@@QAEPAV?$vector@PAMV?$allocator@PAM@std@@@std@@XZ 0047ee70 f   obj.obj
 0002:0004ce90       ?getFaceNormals@obj@@QAEPAV?$vector@V?$vector@HV?$allocator@H@std@@@std@@V?$allocator@V?$vector@HV?$allocator@H@std@@@std@@@2@@std@@XZ 0047ee90 f   obj.obj
 0002:0004ceb0       ?getFaceTextures@obj@@QAEPAV?$vector@V?$vector@HV?$allocator@H@std@@@std@@V?$allocator@V?$vector@HV?$allocator@H@std@@@std@@@2@@std@@XZ 0047eeb0 f   obj.obj
 0002:0004ced0       ?getFaces@obj@@QAEPAV?$vector@V?$vector@HV?$allocator@H@std@@@std@@V?$allocator@V?$vector@HV?$allocator@H@std@@@std@@@2@@std@@XZ 0047eed0 f   obj.obj
 0002:0004cf00       ?getIBO@obj@@QAEPAHXZ      0047ef00 f   obj.obj
 0002:0004cf20       ?getIBOsize@obj@@QAEHXZ    0047ef20 f   obj.obj
 0002:0004cf40       ?getNBO@obj@@QAEPAMXZ      0047ef40 f   obj.obj
 0002:0004cf60       ?getNBOsize@obj@@QAEHXZ    0047ef60 f   obj.obj
 0002:0004cf80       ?getNormals@obj@@QAEPAV?$vector@U?$tvec4@M@detail@glm@@V?$allocator@U?$tvec4@M@detail@glm@@@std@@@std@@XZ 0047ef80 f   obj.obj
 0002:0004cfa0       ?getPoints@obj@@QAEPAV?$vector@U?$tvec4@M@detail@glm@@V?$allocator@U?$tvec4@M@detail@glm@@@std@@@std@@XZ 0047efa0 f   obj.obj
 0002:0004cfd0       ?getTextureCoords@obj@@QAEPAV?$vector@U?$tvec4@M@detail@glm@@V?$allocator@U?$tvec4@M@detail@glm@@@std@@@std@@XZ 0047efd0 f   obj.obj
 0002:0004cff0       ?getTop@obj@@QAEMXZ        0047eff0 f   obj.obj
 0002:0004d010       ?getVBO@obj@@QAEPAMXZ      0047f010 f   obj.obj
 0002:0004d030       ?getVBOsize@obj@@QAEHXZ    0047f030 f   obj.obj
 0002:0004d050       ?isConvex@obj@@QAE_NV?$vector@HV?$allocator@H@std@@@std@@@Z 0047f050 f   obj.obj
 0002:0004dd20       ?length@?$tvec3@M@detail@glm@@QBEIXZ 0047fd20 f i obj.obj
 0002:0004dd40       ?length@?$tvec4@M@detail@glm@@QBEIXZ 0047fd40 f i obj.obj
 0002:0004dd60       ?max_size@?$_Wrap_alloc@V?$allocator@M@std@@@std@@QBEIXZ 0047fd60 f i obj.obj
 0002:0004dd90       ?max_size@?$_Wrap_alloc@V?$allocator@PAM@std@@@std@@QBEIXZ 0047fd90 f i obj.obj
 0002:0004ddc0       ?max_size@?$_Wrap_alloc@V?$allocator@U?$tvec4@M@detail@glm@@@std@@@std@@QBEIXZ 0047fdc0 f i obj.obj
 0002:0004ddf0       ?max_size@?$_Wrap_alloc@V?$allocator@V?$vector@HV?$allocator@H@std@@@std@@@std@@@std@@QBEIXZ 0047fdf0 f i obj.obj
 0002:0004de20       ?max_size@?$allocator@M@std@@QBEIXZ 0047fe20 f i obj.obj
 0002:0004de40       ?max_size@?$allocator@PAM@std@@QBEIXZ 0047fe40 f i obj.obj
 0002:0004de60       ?max_size@?$allocator@U?$tvec4@M@detail@glm@@@std@@QBEIXZ 0047fe60 f i obj.obj
 0002:0004de80       ?max_size@?$allocator@V?$vector@HV?$allocator@H@std@@@std@@@std@@QBEIXZ 0047fe80 f i obj.obj
 0002:0004dea0       ?max_size@?$allocator_traits@V?$allocator@M@std@@@std@@SAIABV?$allocator@M@2@@Z 0047fea0 f i obj.obj
 0002:0004dec0       ?max_size@?$allocator_traits@V?$allocator@PAM@std@@@std@@SAIABV?$allocator@PAM@2@@Z 0047fec0 f i obj.obj
 0002:0004dee0       ?max_size@?$allocator_traits@V?$allocator@U?$tvec4@M@detail@glm@@@std@@@std@@SAIABV?$allocator@U?$tvec4@M@detail@glm@@@2@@Z 0047fee0 f i obj.obj
 0002:0004df00       ?max_size@?$allocator_traits@V?$allocator@V?$vector@HV?$allocator@H@std@@@std@@@std@@@std@@SAIABV?$allocator@V?$vector@HV?$allocator@H@std@@@std@@@2@@Z 0047ff00 f i obj.obj
 0002:0004df20       ?max_size@?$vector@MV?$allocator@M@std@@@std@@QBEIXZ 0047ff20 f i obj.obj
 0002:0004df50       ?max_size@?$vector@PAMV?$allocator@PAM@std@@@std@@QBEIXZ 0047ff50 f i obj.obj
 0002:0004df80       ?max_size@?$vector@U?$tvec4@M@detail@glm@@V?$allocator@U?$tvec4@M@detail@glm@@@std@@@std@@QBEIXZ 0047ff80 f i obj.obj
 0002:0004dfb0       ?max_size@?$vector@V?$vector@HV?$allocator@H@std@@@std@@V?$allocator@V?$vector@HV?$allocator@H@std@@@std@@@2@@std@@QBEIXZ 0047ffb0 f i obj.obj
 0002:0004dfe0       ?push_back@?$vector@HV?$allocator@H@std@@@std@@QAEX$$QAH@Z 0047ffe0 f i obj.obj
 0002:0004e150       ?push_back@?$vector@MV?$allocator@M@std@@@std@@QAEXABM@Z 00480150 f i obj.obj
 0002:0004e2a0       ?push_back@?$vector@PAMV?$allocator@PAM@std@@@std@@QAEXABQAM@Z 004802a0 f i obj.obj
 0002:0004e3f0       ?push_back@?$vector@U?$tvec4@M@detail@glm@@V?$allocator@U?$tvec4@M@detail@glm@@@std@@@std@@QAEX$$QAU?$tvec4@M@detail@glm@@@Z 004803f0 f i obj.obj
 0002:0004e560       ?push_back@?$vector@V?$vector@HV?$allocator@H@std@@@std@@V?$allocator@V?$vector@HV?$allocator@H@std@@@std@@@2@@std@@QAEXABV?$vector@HV?$allocator@H@std@@@2@@Z 00480560 f i obj.obj
 0002:0004e6c0       ?recenter@obj@@QAEXXZ      004806c0 f   obj.obj
 0002:0004f5c0       ?setColor@obj@@QAEXU?$tvec3@M@detail@glm@@@Z 004815c0 f   obj.obj
 0002:0004f6d0       ?size@?$vector@MV?$allocator@M@std@@@std@@QBEIXZ 004816d0 f i obj.obj
 0002:0004f700       ?size@?$vector@PAMV?$allocator@PAM@std@@@std@@QBEIXZ 00481700 f i obj.obj
 0002:0004f730       ?size@?$vector@U?$tvec4@M@detail@glm@@V?$allocator@U?$tvec4@M@detail@glm@@@std@@@std@@QBEIXZ 00481730 f i obj.obj
 0002:0004f760       ??$getline@DU?$char_traits@D@std@@V?$allocator@D@2@@std@@YAAAV?$basic_istream@DU?$char_traits@D@std@@@0@AAV10@AAV?$basic_string@DU?$char_traits@D@std@@V?$allocator@D@2@@0@D@Z 00481760 f i objloader.obj
 0002:0004f7a0       ??0?$basic_ifstream@DU?$char_traits@D@std@@@std@@QAE@XZ 004817a0 f i objloader.obj
 0002:0004f8b0       ??0?$basic_istringstream@DU?$char_traits@D@std@@V?$allocator@D@2@@std@@QAE@ABV?$basic_string@DU?$char_traits@D@std@@V?$allocator@D@2@@1@H@Z 004818b0 f i objloader.obj
 0002:0004f9c0       ??0objLoader@@QAE@V?$basic_string@DU?$char_traits@D@std@@V?$allocator@D@2@@std@@PAVobj@@@Z 004819c0 f   objloader.obj
 0002:00050a60       ??1?$basic_istringstream@DU?$char_traits@D@std@@V?$allocator@D@2@@std@@UAE@XZ 00482a60 f i objloader.obj
 0002:00050ad0       ??1objLoader@@QAE@XZ       00482ad0 f   objloader.obj
 0002:00050af0       ??A?$basic_string@DU?$char_traits@D@std@@V?$allocator@D@2@@std@@QAEAADI@Z 00482af0 f i objloader.obj
 0002:00050b20       ??_D?$basic_istringstream@DU?$char_traits@D@std@@V?$allocator@D@2@@std@@QAEXXZ 00482b20 f i objloader.obj
 0002:00050b54       ??_E?$basic_istringstream@DU?$char_traits@D@std@@V?$allocator@D@2@@std@@$4PPPPPPPM@A@AEPAXI@Z 00482b54 f i objloader.obj
 0002:00050b60       ??_E?$basic_istringstream@DU?$char_traits@D@std@@V?$allocator@D@2@@std@@UAEPAXI@Z 00482b60 f i objloader.obj
 0002:00050b60       ??_G?$basic_istringstream@DU?$char_traits@D@std@@V?$allocator@D@2@@std@@UAEPAXI@Z 00482b60 f i objloader.obj
 0002:00050bac       ?_Add_vtordisp1@?$basic_istream@DU?$char_traits@D@std@@@std@@$4PPPPPPPM@EI@AEXXZ 00482bac f i objloader.obj
 0002:00050bc0       ?empty@?$basic_string@DU?$char_traits@D@std@@V?$allocator@D@2@@std@@QBE_NXZ 00482bc0 f i objloader.obj
 0002:00050c00       ?find@?$basic_string@DU?$char_traits@D@std@@V?$allocator@D@2@@std@@QBEIPBDI@Z 00482c00 f i objloader.obj
 0002:00050c40       ?find@?$basic_string@DU?$char_traits@D@std@@V?$allocator@D@2@@std@@QBEIPBDII@Z 00482c40 f i objloader.obj
 0002:00050d50       ?find@?$char_traits@D@std@@SAPBDPBDIABD@Z 00482d50 f i objloader.obj
 0002:00050da0       ?getMesh@objLoader@@QAEPAVobj@@XZ 00482da0 f   objloader.obj
 0002:00050dc0       ?is_open@?$basic_filebuf@DU?$char_traits@D@std@@@std@@QBE_NXZ 00482dc0 f i objloader.obj
 0002:00050e00       ?is_open@?$basic_ifstream@DU?$char_traits@D@std@@@std@@QBE_NXZ 00482e00 f i objloader.obj
 0002:00050e30       ?open@?$basic_ifstream@DU?$char_traits@D@std@@@std@@QAEXPBDHH@Z 00482e30 f i objloader.obj
 0002:0005d1b0       _stbi_convert_iphone_png_to_rgb 0048f1b0 f   stb_image.obj
 0002:0005d490       _stbi_failure_reason       0048f490 f   stb_image.obj
 0002:0005e3a0       _stbi_hdr_to_ldr_gamma     004903a0 f   stb_image.obj
 0002:0005e3d0       _stbi_hdr_to_ldr_scale     004903d0 f   stb_image.obj
 0002:0005e400       _stbi_image_free           00490400 f   stb_image.obj
 0002:0005e430       _stbi_info                 00490430 f   stb_image.obj
 0002:0005e4b0       _stbi_info_from_callbacks  004904b0 f   stb_image.obj
 0002:0005e520       _stbi_info_from_file       00490520 f   stb_image.obj
 0002:0005e5d0       _stbi_info_from_memory     004905d0 f   stb_image.obj
 0002:0005e7e0       _stbi_is_hdr               004907e0 f   stb_image.obj
 0002:0005e850       _stbi_is_hdr_from_callbacks 00490850 f   stb_image.obj
 0002:0005e8b0       _stbi_is_hdr_from_file     004908b0 f   stb_image.obj
 0002:0005e910       _stbi_is_hdr_from_memory   00490910 f   stb_image.obj
 0002:0005eb50       _stbi_ldr_to_hdr_gamma     00490b50 f   stb_image.obj
 0002:0005eb80       _stbi_ldr_to_hdr_scale     00490b80 f   stb_image.obj
 0002:0005ebb0       _stbi_load                 00490bb0 f   stb_image.obj
 0002:0005ec50       _stbi_load_from_callbacks  00490c50 f   stb_image.obj
 0002:0005ecd0       _stbi_load_from_file       00490cd0 f   stb_image.obj
 0002:0005ed40       _stbi_load_from_memory     00490d40 f   stb_image.obj
 0002:0005f030       _stbi_loadf                00491030 f   stb_image.obj
 0002:0005f0d0       _stbi_loadf_from_callbacks 004910d0 f   stb_image.obj
 0002:0005f150       _stbi_loadf_from_file      00491150 f   stb_image.obj
 0002:0005f1c0       _stbi_loadf_from_memory    004911c0 f   stb_image.obj
 0002:0005f240       _stbi_loadf_main           00491240 f   stb_image.obj
 0002:0005ff90       _stbi_set_unpremultiply_on_load 00491f90 f   stb_image.obj
 0002:00060070       _stbi_zlib_decode_buffer   00492070 f   stb_image.obj
 0002:00060100       _stbi_zlib_decode_malloc   00492100 f   stb_image.obj
 0002:00060140       _stbi_zlib_decode_malloc_guesssize 00492140 f   stb_image.obj
 0002:00060230       _stbi_zlib_decode_malloc_guesssize_headerflag 00492230 f   stb_image.obj
 0002:00060320       _stbi_zlib_decode_noheader_buffer 00492320 f   stb_image.obj
 0002:000603b0       _stbi_zlib_decode_noheader_malloc 004923b0 f   stb_image.obj
 0002:000619d0       _stbi__crc32               004939d0 f   stb_image_write.obj
 0002:00062000       _stbi_write_bmp            00494000 f   stb_image_write.obj
 0002:000620a0       _stbi_write_png            004940a0 f   stb_image_write.obj
 0002:00062170       _stbi_write_png_to_mem     00494170 f   stb_image_write.obj
 0002:00062d20       _stbi_write_tga            00494d20 f   stb_image_write.obj
 0002:00062dd0       _stbi_zlib_compress        00494dd0 f   stb_image_write.obj
 0002:0006445a       _glBegin@4                 0049645a f   opengl32:OPENGL32.dll
 0002:00064460       _glClear@4                 00496460 f   opengl32:OPENGL32.dll
 0002:00064466       _glClearColor@16           00496466 f   opengl32:OPENGL32.dll
 0002:0006446c       _glClearDepth@8            0049646c f   opengl32:OPENGL32.dll
 0002:00064472       _glColor3f@12              00496472 f   opengl32:OPENGL32.dll
 0002:00064478       _glDisable@4               00496478 f   opengl32:OPENGL32.dll
 0002:0006447e       _glEnable@4                0049647e f   opengl32:OPENGL32.dll
 0002:00064484       _glEnd@0                   00496484 f   opengl32:OPENGL32.dll
 0002:0006448a       _glLightModelfv@8          0049648a f   opengl32:OPENGL32.dll
 0002:00064490       _glLightfv@12              00496490 f   opengl32:OPENGL32.dll
 0002:00064496       _glLineWidth@4             00496496 f   opengl32:OPENGL32.dll
 0002:0006449c       _glLoadIdentity@0          0049649c f   opengl32:OPENGL32.dll
 0002:000644a2       _glMaterialf@12            004964a2 f   opengl32:OPENGL32.dll
 0002:000644a8       _glMaterialfv@12           004964a8 f   opengl32:OPENGL32.dll
 0002:000644ae       _glMatrixMode@4            004964ae f   opengl32:OPENGL32.dll
 0002:000644b4       _glOrtho@48                004964b4 f   opengl32:OPENGL32.dll
 0002:000644ba       _glPixelStorei@8           004964ba f   opengl32:OPENGL32.dll
 0002:000644c0       _glPopAttrib@0             004964c0 f   opengl32:OPENGL32.dll
 0002:000644c6       _glPushAttrib@4            004964c6 f   opengl32:OPENGL32.dll
 0002:000644cc       _glRasterPos2i@8           004964cc f   opengl32:OPENGL32.dll
 0002:000644d2       _glReadBuffer@4            004964d2 f   opengl32:OPENGL32.dll
 0002:000644d8       _glReadPixels@28           004964d8 f   opengl32:OPENGL32.dll
 0002:000644de       _glRotatef@16              004964de f   opengl32:OPENGL32.dll
 0002:000644e4       _glTranslatef@12           004964e4 f   opengl32:OPENGL32.dll
 0002:000644ea       _glVertex2f@8              004964ea f   opengl32:OPENGL32.dll
 0002:000644f0       _glVertex2i@8              004964f0 f   opengl32:OPENGL32.dll
 0002:000644f6       _glVertex3f@12             004964f6 f   opengl32:OPENGL32.dll
 0002:000644fc       _glViewport@16             004964fc f   opengl32:OPENGL32.dll
 0002:00064502       _glBlendFunc@8             00496502 f   opengl32:OPENGL32.dll
 0002:00064508       _glColor4f@16              00496508 f   opengl32:OPENGL32.dll
 0002:0006450e       _glDepthFunc@4             0049650e f   opengl32:OPENGL32.dll
 0002:00064514       _glPolygonMode@8           00496514 f   opengl32:OPENGL32.dll
 0002:0006451a       _glPopMatrix@0             0049651a f   opengl32:OPENGL32.dll
 0002:00064520       _glPushMatrix@0            00496520 f   opengl32:OPENGL32.dll
 0002:00064526       _glShadeModel@4            00496526 f   opengl32:OPENGL32.dll
 0002:0006452c       _gluOrtho2D@32             0049652c f   glu32:GLU32.dll
 0002:00064532       _gluPerspective@32         00496532 f   glu32:GLU32.dll
 0002:00064538       _gluNewQuadric@0           00496538 f   glu32:GLU32.dll
 0002:0006453e       _gluQuadricDrawStyle@8     0049653e f   glu32:GLU32.dll
 0002:00064544       _gluSphere@20              00496544 f   glu32:GLU32.dll
 0002:0006454a       _glutInit@8                0049654a f   glut32:glut32.dll
 0002:00064550       _glutInitDisplayMode@4     00496550 f   glut32:glut32.dll
 0002:00064556       _glutInitWindowSize@8      00496556 f   glut32:glut32.dll
 0002:0006455c       _glutMainLoop@0            0049655c f   glut32:glut32.dll
 0002:00064562       _glutCreateWindow@4        00496562 f   glut32:glut32.dll
 0002:00064568       _glutPostRedisplay@0       00496568 f   glut32:glut32.dll
 0002:0006456e       _glutSwapBuffers@0         0049656e f   glut32:glut32.dll
 0002:00064574       _glutDisplayFunc@4         00496574 f   glut32:glut32.dll
 0002:0006457a       _glutReshapeFunc@4         0049657a f   glut32:glut32.dll
 0002:00064580       _glutMouseFunc@4           00496580 f   glut32:glut32.dll
 0002:00064586       _glutMotionFunc@4          00496586 f   glut32:glut32.dll
 0002:0006458c       _glutGetModifiers@0        0049658c f   glut32:glut32.dll
 0002:00064592       _glutBitmapCharacter@8     00496592 f   glut32:glut32.dll
 0002:00064598       _glutBitmapLength@8        00496598 f   glut32:glut32.dll
 0002:0006459e       _glutKeyboardFunc@4        0049659e f   glut32:glut32.dll
 0002:000645a4       _glutTimerFunc@12          004965a4 f   glut32:glut32.dll
 0002:000645aa       ??0_Lockit@std@@QAE@H@Z    004965aa f   msvcprt:MSVCP110.dll
 0002:000645b0       ??1_Lockit@std@@QAE@XZ     004965b0 f   msvcprt:MSVCP110.dll
 0002:000645b6       ?uncaught_exception@std@@YA_NXZ 004965b6 f   msvcprt:MSVCP110.dll
 0002:000645bc       ?_Orphan_all@_Container_base0@std@@QAEXXZ 004965bc f   msvcprt:MSVCP110.dll
 0002:000645c2       ?_Xbad_alloc@std@@YAXXZ    004965c2 f   msvcprt:MSVCP110.dll
 0002:000645c8       ?_Xlength_error@std@@YAXPBD@Z 004965c8 f   msvcprt:MSVCP110.dll
 0002:000645ce       ?_Xout_of_range@std@@YAXPBD@Z 004965ce f   msvcprt:MSVCP110.dll
 0002:000645d4       ??0_Fac_node@std@@QAE@PAU01@PAV_Facet_base@1@@Z 004965d4 f i msvcprt:locale0_implib.obj
 0002:000645ed       ??1_Fac_node@std@@QAE@XZ   004965ed f i msvcprt:locale0_implib.obj
 0002:00064607       ??1_Fac_tidy_reg_t@std@@QAE@XZ 00496607 f i msvcprt:locale0_implib.obj
 0002:00064634       ??_G_Fac_node@std@@QAEPAXI@Z 00496634 f i msvcprt:locale0_implib.obj
 0002:0006465a       ?_Facet_Register@std@@YAXPAV_Facet_base@1@@Z 0049665a f   msvcprt:locale0_implib.obj
 0002:0006468c       ??0id@locale@std@@QAE@I@Z  0049668c f   msvcprt:MSVCP110.dll
 0002:00064692       ??Bid@locale@std@@QAEIXZ   00496692 f   msvcprt:MSVCP110.dll
 0002:00064698       ?_Getgloballocale@locale@std@@CAPAV_Locimp@12@XZ 00496698 f   msvcprt:MSVCP110.dll
 0002:0006469e       ?always_noconv@codecvt_base@std@@QBE_NXZ 0049669e f   msvcprt:MSVCP110.dll
 0002:000646a4       ?in@?$codecvt@DDH@std@@QBEHAAHPBD1AAPBDPAD3AAPAD@Z 004966a4 f   msvcprt:MSVCP110.dll
 0002:000646aa       ?out@?$codecvt@DDH@std@@QBEHAAHPBD1AAPBDPAD3AAPAD@Z 004966aa f   msvcprt:MSVCP110.dll
 0002:000646b0       ?unshift@?$codecvt@DDH@std@@QBEHAAHPAD1AAPAD@Z 004966b0 f   msvcprt:MSVCP110.dll
 0002:000646b6       ?_Getcat@?$codecvt@DDH@std@@SAIPAPBVfacet@locale@2@PBV42@@Z 004966b6 f   msvcprt:MSVCP110.dll
 0002:000646bc       ?_Syserror_map@std@@YAPBDH@Z 004966bc f   msvcprt:MSVCP110.dll
 0002:000646c2       ?_Winerror_map@std@@YAPBDH@Z 004966c2 f   msvcprt:MSVCP110.dll
 0002:000646c8       ??7ios_base@std@@QBE_NXZ   004966c8 f   msvcprt:MSVCP110.dll
 0002:000646ce       ?good@ios_base@std@@QBE_NXZ 004966ce f   msvcprt:MSVCP110.dll
 0002:000646d4       ?eof@ios_base@std@@QBE_NXZ 004966d4 f   msvcprt:MSVCP110.dll
 0002:000646da       ?flags@ios_base@std@@QBEHXZ 004966da f   msvcprt:MSVCP110.dll
 0002:000646e0       ?width@ios_base@std@@QBE_JXZ 004966e0 f   msvcprt:MSVCP110.dll
 0002:000646e6       ?width@ios_base@std@@QAE_J_J@Z 004966e6 f   msvcprt:MSVCP110.dll
 0002:000646ec       ??0?$basic_streambuf@DU?$char_traits@D@std@@@std@@IAE@XZ 004966ec f   msvcprt:MSVCP110.dll
 0002:000646f2       ??1?$basic_streambuf@DU?$char_traits@D@std@@@std@@UAE@XZ 004966f2 f   msvcprt:MSVCP110.dll
 0002:000646f8       ?getloc@?$basic_streambuf@DU?$char_traits@D@std@@@std@@QBE?AVlocale@2@XZ 004966f8 f   msvcprt:MSVCP110.dll
 0002:000646fe       ?sbumpc@?$basic_streambuf@DU?$char_traits@D@std@@@std@@QAEHXZ 004966fe f   msvcprt:MSVCP110.dll
 0002:00064704       ?sgetc@?$basic_streambuf@DU?$char_traits@D@std@@@std@@QAEHXZ 00496704 f   msvcprt:MSVCP110.dll
 0002:0006470a       ?snextc@?$basic_streambuf@DU?$char_traits@D@std@@@std@@QAEHXZ 0049670a f   msvcprt:MSVCP110.dll
 0002:00064710       ?sputc@?$basic_streambuf@DU?$char_traits@D@std@@@std@@QAEHD@Z 00496710 f   msvcprt:MSVCP110.dll
 0002:00064716       ?sputn@?$basic_streambuf@DU?$char_traits@D@std@@@std@@QAE_JPBD_J@Z 00496716 f   msvcprt:MSVCP110.dll
 0002:0006471c       ?eback@?$basic_streambuf@DU?$char_traits@D@std@@@std@@IBEPADXZ 0049671c f   msvcprt:MSVCP110.dll
 0002:00064722       ?gptr@?$basic_streambuf@DU?$char_traits@D@std@@@std@@IBEPADXZ 00496722 f   msvcprt:MSVCP110.dll
 0002:00064728       ?pbase@?$basic_streambuf@DU?$char_traits@D@std@@@std@@IBEPADXZ 00496728 f   msvcprt:MSVCP110.dll
 0002:0006472e       ?pptr@?$basic_streambuf@DU?$char_traits@D@std@@@std@@IBEPADXZ 0049672e f   msvcprt:MSVCP110.dll
 0002:00064734       ?egptr@?$basic_streambuf@DU?$char_traits@D@std@@@std@@IBEPADXZ 00496734 f   msvcprt:MSVCP110.dll
 0002:0006473a       ?gbump@?$basic_streambuf@DU?$char_traits@D@std@@@std@@IAEXH@Z 0049673a f   msvcprt:MSVCP110.dll
 0002:00064740       ?setg@?$basic_streambuf@DU?$char_traits@D@std@@@std@@IAEXPAD00@Z 00496740 f   msvcprt:MSVCP110.dll
 0002:00064746       ?epptr@?$basic_streambuf@DU?$char_traits@D@std@@@std@@IBEPADXZ 00496746 f   msvcprt:MSVCP110.dll
 0002:0006474c       ?_Gndec@?$basic_streambuf@DU?$char_traits@D@std@@@std@@IAEPADXZ 0049674c f   msvcprt:MSVCP110.dll
 0002:00064752       ?_Gninc@?$basic_streambuf@DU?$char_traits@D@std@@@std@@IAEPADXZ 00496752 f   msvcprt:MSVCP110.dll
 0002:00064758       ?pbump@?$basic_streambuf@DU?$char_traits@D@std@@@std@@IAEXH@Z 00496758 f   msvcprt:MSVCP110.dll
 0002:0006475e       ?setp@?$basic_streambuf@DU?$char_traits@D@std@@@std@@IAEXPAD0@Z 0049675e f   msvcprt:MSVCP110.dll
 0002:00064764       ?setp@?$basic_streambuf@DU?$char_traits@D@std@@@std@@IAEXPAD00@Z 00496764 f   msvcprt:MSVCP110.dll
 0002:0006476a       ?_Pninc@?$basic_streambuf@DU?$char_traits@D@std@@@std@@IAEPADXZ 0049676a f   msvcprt:MSVCP110.dll
 0002:00064770       ?_Init@?$basic_streambuf@DU?$char_traits@D@std@@@std@@IAEXXZ 00496770 f   msvcprt:MSVCP110.dll
 0002:00064776       ?_Init@?$basic_streambuf@DU?$char_traits@D@std@@@std@@IAEXPAPAD0PAH001@Z 00496776 f   msvcprt:MSVCP110.dll
 0002:0006477c       ??1?$basic_ios@DU?$char_traits@D@std@@@std@@UAE@XZ 0049677c f   msvcprt:MSVCP110.dll
 0002:00064782       ?setstate@?$basic_ios@DU?$char_traits@D@std@@@std@@QAEXH_N@Z 00496782 f   msvcprt:MSVCP110.dll
 0002:00064788       ?tie@?$basic_ios@DU?$char_traits@D@std@@@std@@QBEPAV?$basic_ostream@DU?$char_traits@D@std@@@2@XZ 00496788 f   msvcprt:MSVCP110.dll
 0002:0006478e       ?rdbuf@?$basic_ios@DU?$char_traits@D@std@@@std@@QBEPAV?$basic_streambuf@DU?$char_traits@D@std@@@2@XZ 0049678e f   msvcprt:MSVCP110.dll
 0002:00064794       ?fill@?$basic_ios@DU?$char_traits@D@std@@@std@@QBEDXZ 00496794 f   msvcprt:MSVCP110.dll
 0002:0006479a       ?widen@?$basic_ios@DU?$char_traits@D@std@@@std@@QBEDD@Z 0049679a f   msvcprt:MSVCP110.dll
 0002:000647a0       ??0?$basic_ios@DU?$char_traits@D@std@@@std@@IAE@XZ 004967a0 f   msvcprt:MSVCP110.dll
 0002:000647a6       ??0?$basic_ostream@DU?$char_traits@D@std@@@std@@QAE@PAV?$basic_streambuf@DU?$char_traits@D@std@@@1@_N@Z 004967a6 f   msvcprt:MSVCP110.dll
 0002:000647ac       ??1?$basic_ostream@DU?$char_traits@D@std@@@std@@UAE@XZ 004967ac f   msvcprt:MSVCP110.dll
 0002:000647b2       ?_Add_vtordisp2@?$basic_ostream@DU?$char_traits@D@std@@@std@@UAEXXZ 004967b2 f   msvcprt:MSVCP110.dll
 0002:000647b8       ?_Osfx@?$basic_ostream@DU?$char_traits@D@std@@@std@@QAEXXZ 004967b8 f   msvcprt:MSVCP110.dll
 0002:000647be       ??6?$basic_ostream@DU?$char_traits@D@std@@@std@@QAEAAV01@P6AAAV01@AAV01@@Z@Z 004967be f   msvcprt:MSVCP110.dll
 0002:000647c4       ??6?$basic_ostream@DU?$char_traits@D@std@@@std@@QAEAAV01@H@Z 004967c4 f   msvcprt:MSVCP110.dll
 0002:000647ca       ??6?$basic_ostream@DU?$char_traits@D@std@@@std@@QAEAAV01@M@Z 004967ca f   msvcprt:MSVCP110.dll
 0002:000647d0       ?flush@?$basic_ostream@DU?$char_traits@D@std@@@std@@QAEAAV12@XZ 004967d0 f   msvcprt:MSVCP110.dll
 0002:000647d6       ?endl@std@@YAAAV?$basic_ostream@DU?$char_traits@D@std@@@1@AAV21@@Z 004967d6 f   msvcprt:MSVCP110.dll
 0002:000647dc       ??0?$basic_istream@DU?$char_traits@D@std@@@std@@QAE@PAV?$basic_streambuf@DU?$char_traits@D@std@@@1@_N@Z 004967dc f   msvcprt:MSVCP110.dll
 0002:000647e2       ??1?$basic_istream@DU?$char_traits@D@std@@@std@@UAE@XZ 004967e2 f   msvcprt:MSVCP110.dll
 0002:000647e8       ?_Add_vtordisp1@?$basic_istream@DU?$char_traits@D@std@@@std@@UAEXXZ 004967e8 f   msvcprt:MSVCP110.dll
 0002:000647ee       ?_Ipfx@?$basic_istream@DU?$char_traits@D@std@@@std@@QAE_N_N@Z 004967ee f   msvcprt:MSVCP110.dll
 0002:000647f4       ??5?$basic_istream@DU?$char_traits@D@std@@@std@@QAEAAV01@AAM@Z 004967f4 f   msvcprt:MSVCP110.dll
 0002:000647fa       ??0?$basic_iostream@DU?$char_traits@D@std@@@std@@QAE@PAV?$basic_streambuf@DU?$char_traits@D@std@@@1@@Z 004967fa f   msvcprt:MSVCP110.dll
 0002:00064800       ??1?$basic_iostream@DU?$char_traits@D@std@@@std@@UAE@XZ 00496800 f   msvcprt:MSVCP110.dll
 0002:00064806       ?_Fiopen@std@@YAPAU_iobuf@@PBDHH@Z 00496806 f   msvcprt:MSVCP110.dll
 0002:0006480c       ?_Add_vtordisp1@?$basic_ios@DU?$char_traits@D@std@@@std@@UAEXXZ 0049680c f   msvcprt:MSVCP110.dll
 0002:00064812       ?_Add_vtordisp2@?$basic_ios@DU?$char_traits@D@std@@@std@@UAEXXZ 00496812 f   msvcprt:MSVCP110.dll
 0002:00064818       ?_Lock@?$basic_streambuf@DU?$char_traits@D@std@@@std@@UAEXXZ 00496818 f   msvcprt:MSVCP110.dll
 0002:0006481e       ?_Unlock@?$basic_streambuf@DU?$char_traits@D@std@@@std@@UAEXXZ 0049681e f   msvcprt:MSVCP110.dll
 0002:00064824       ?imbue@?$basic_streambuf@DU?$char_traits@D@std@@@std@@MAEXABVlocale@2@@Z 00496824 f   msvcprt:MSVCP110.dll
 0002:0006482a       ?setbuf@?$basic_streambuf@DU?$char_traits@D@std@@@std@@MAEPAV12@PAD_J@Z 0049682a f   msvcprt:MSVCP110.dll
 0002:00064830       ?showmanyc@?$basic_streambuf@DU?$char_traits@D@std@@@std@@MAE_JXZ 00496830 f   msvcprt:MSVCP110.dll
 0002:00064836       ?sync@?$basic_streambuf@DU?$char_traits@D@std@@@std@@MAEHXZ 00496836 f   msvcprt:MSVCP110.dll
 0002:0006483c       ?uflow@?$basic_streambuf@DU?$char_traits@D@std@@@std@@MAEHXZ 0049683c f   msvcprt:MSVCP110.dll
 0002:00064842       ?xsgetn@?$basic_streambuf@DU?$char_traits@D@std@@@std@@MAE_JPAD_J@Z 00496842 f   msvcprt:MSVCP110.dll
 0002:00064848       ?xsputn@?$basic_streambuf@DU?$char_traits@D@std@@@std@@MAE_JPBD_J@Z 00496848 f   msvcprt:MSVCP110.dll
 0002:0006484e       ??_U@YAPAXI@Z              0049684e f   msvcprt:newaop_s.obj
 0002:0006485a       ??6?$basic_ostream@DU?$char_traits@D@std@@@std@@QAEAAV01@N@Z 0049685a f   msvcprt:MSVCP110.dll
 0002:00064860       ?put@?$basic_ostream@DU?$char_traits@D@std@@@std@@QAEAAV12@D@Z 00496860 f   msvcprt:MSVCP110.dll
 0002:00064866       ?write@?$basic_ostream@DU?$char_traits@D@std@@@std@@QAEAAV12@PBD_J@Z 00496866 f   msvcprt:MSVCP110.dll
 0002:0006486c       ?_Swap_all@_Container_base0@std@@QAEXAAU12@@Z 0049686c f   msvcprt:MSVCP110.dll
 0002:00064872       ??Bios_base@std@@QBEPAXXZ  00496872 f   msvcprt:MSVCP110.dll
 0002:00064878       ?clear@?$basic_ios@DU?$char_traits@D@std@@@std@@QAEXH_N@Z 00496878 f   msvcprt:MSVCP110.dll
 0002:0006487e       ??6?$basic_ostream@DU?$char_traits@D@std@@@std@@QAEAAV01@I@Z 0049687e f   msvcprt:MSVCP110.dll
 0002:00064884       __purecall                 00496884 f   MSVCRT:MSVCR110.dll
 0002:0006488a       ??2@YAPAXI@Z               0049688a f   MSVCRT:MSVCR110.dll
 0002:00064890       ??3@YAXPAX@Z               00496890 f   MSVCRT:MSVCR110.dll
 0002:00064896       ___atonexitinit            00496896 f   MSVCRT:atonexit.obj
 0002:000648e1       __onexit                   004968e1 f   MSVCRT:atonexit.obj
 0002:000649af       _atexit                    004969af f   MSVCRT:atonexit.obj
 0002:000649ca       _atof                      004969ca f   MSVCRT:MSVCR110.dll
 0002:000649d0       _atoi                      004969d0 f   MSVCRT:MSVCR110.dll
 0002:000649d6       _free                      004969d6 f   MSVCRT:MSVCR110.dll
 0002:000649dc       _malloc                    004969dc f   MSVCRT:MSVCR110.dll
 0002:000649e2       _realloc                   004969e2 f   MSVCRT:MSVCR110.dll
 0002:000649e8       _exp                       004969e8 f   MSVCRT:MSVCR110.dll
 0002:000649ee       _fabs                      004969ee f   MSVCRT:MSVCR110.dll
 0002:000649f4       _pow                       004969f4 f   MSVCRT:MSVCR110.dll
 0002:000649fa       _sqrt                      004969fa f   MSVCRT:MSVCR110.dll
 0002:00064a00       _floor                     00496a00 f   MSVCRT:MSVCR110.dll
 0002:00064a06       _memmove                   00496a06 f   MSVCRT:MSVCR110.dll
 0002:00064a0c       _memcpy                    00496a0c f   MSVCRT:MSVCR110.dll
 0002:00064a12       _memcpy_s                  00496a12 f   MSVCRT:MSVCR110.dll
 0002:00064a18       _memcmp                    00496a18 f   MSVCRT:MSVCR110.dll
 0002:00064a1e       _memset                    00496a1e f   MSVCRT:MSVCR110.dll
 0002:00064a24       _strlen                    00496a24 f   MSVCRT:MSVCR110.dll
 0002:00064a2a       _strtok                    00496a2a f   MSVCRT:MSVCR110.dll
 0002:00064a30       ??0exception@std@@QAE@ABQBDH@Z 00496a30 f   MSVCRT:MSVCR110.dll
 0002:00064a36       ??0exception@std@@QAE@ABV01@@Z 00496a36 f   MSVCRT:MSVCR110.dll
 0002:00064a3c       ??1exception@std@@UAE@XZ   00496a3c f   MSVCRT:MSVCR110.dll
 0002:00064a42       _fclose                    00496a42 f   MSVCRT:MSVCR110.dll
 0002:00064a48       _fflush                    00496a48 f   MSVCRT:MSVCR110.dll
 0002:00064a4e       _fgetc                     00496a4e f   MSVCRT:MSVCR110.dll
 0002:00064a54       _fgetpos                   00496a54 f   MSVCRT:MSVCR110.dll
 0002:00064a5a       _fputc                     00496a5a f   MSVCRT:MSVCR110.dll
 0002:00064a60       _fsetpos                   00496a60 f   MSVCRT:MSVCR110.dll
 0002:00064a66       __fseeki64                 00496a66 f   MSVCRT:MSVCR110.dll
 0002:00064a6c       _fwrite                    00496a6c f   MSVCRT:MSVCR110.dll
 0002:00064a72       _printf                    00496a72 f   MSVCRT:MSVCR110.dll
 0002:00064a78       _setvbuf                   00496a78 f   MSVCRT:MSVCR110.dll
 0002:00064a7e       _sprintf_s                 00496a7e f   MSVCRT:MSVCR110.dll
 0002:00064a84       _ungetc                    00496a84 f   MSVCRT:MSVCR110.dll
 0002:00064a8a       __lock_file                00496a8a f   MSVCRT:MSVCR110.dll
 0002:00064a90       __unlock_file              00496a90 f   MSVCRT:MSVCR110.dll
 0002:00064a96       __wassert                  00496a96 f   MSVCRT:MSVCR110.dll
 0002:00064a9c       ??0bad_cast@std@@QAE@PBD@Z 00496a9c f   MSVCRT:MSVCR110.dll
 0002:00064aa2       ??0bad_cast@std@@QAE@ABV01@@Z 00496aa2 f   MSVCRT:MSVCR110.dll
 0002:00064aa8       ??1bad_cast@std@@UAE@XZ    00496aa8 f   MSVCRT:MSVCR110.dll
 0002:00064aae       ?what@exception@std@@UBEPBDXZ 00496aae f   MSVCRT:MSVCR110.dll
 0002:00064ab4       @__security_check_cookie@4 00496ab4 f   MSVCRT:secchk.obj
 0002:00064ac6       __CxxThrowException@8      00496ac6 f   MSVCRT:MSVCR110.dll
 0002:00064acc       ___CxxFrameHandler3        00496acc f   MSVCRT:MSVCR110.dll
 0002:00064ae0       __ftol2_sse                00496ae0 f   MSVCRT:ftol2.obj
 0002:00064ae9       __ftol2_pentium4           00496ae9 f   MSVCRT:ftol2.obj
 0002:00064afc       __ftol2_sse_excpt          00496afc f   MSVCRT:ftol2.obj
 0002:00064b16       __ftol2                    00496b16 f   MSVCRT:ftol2.obj
 0002:00064bb5       ??0type_info@@AAE@ABV0@@Z  00496bb5 f   MSVCRT:ti_inst.obj
 0002:00064bc2       ??4type_info@@AAEAAV0@ABV0@@Z 00496bc2 f   MSVCRT:ti_inst.obj
 0002:00064bc7       ??_Etype_info@@UAEPAXI@Z   00496bc7 f i MSVCRT:ti_inst.obj
 0002:00064c30       _cos                       00496c30 f   MSVCRT:MSVCR110.dll
 0002:00064c36       _sin                       00496c36 f   MSVCRT:MSVCR110.dll
 0002:00064c3c       _tan                       00496c3c f   MSVCRT:MSVCR110.dll
 0002:00064c42       __vsnprintf                00496c42 f   MSVCRT:MSVCR110.dll
 0002:00064c48       ??_V@YAXPAX@Z              00496c48 f   MSVCRT:MSVCR110.dll
 0002:00064c4e       _calloc                    00496c4e f   MSVCRT:MSVCR110.dll
 0002:00064c54       _ceil                      00496c54 f   MSVCRT:MSVCR110.dll
 0002:00064c5a       _memchr                    00496c5a f   MSVCRT:MSVCR110.dll
 0002:00064c60       ___raise_securityfailure   00496c60 f   MSVCRT:gs_report.obj
 0002:00064cac       ___report_gsfailure        00496cac f   MSVCRT:gs_report.obj
 0002:00064de3       ___report_rangecheckfailure 00496de3 f   MSVCRT:gs_report.obj
 0002:00064df2       ___report_securityfailure  00496df2 f   MSVCRT:gs_report.obj
 0002:00064ef3       ___report_securityfailureEx 00496ef3 f   MSVCRT:gs_report.obj
 0002:0006504c       _feof                      0049704c f   MSVCRT:MSVCR110.dll
 0002:00065052       _fopen                     00497052 f   MSVCRT:MSVCR110.dll
 0002:00065058       _fread                     00497058 f   MSVCRT:MSVCR110.dll
 0002:0006505e       _fseek                     0049705e f   MSVCRT:MSVCR110.dll
 0002:00065064       _ftell                     00497064 f   MSVCRT:MSVCR110.dll
 0002:0006506a       _abs                       0049706a f   MSVCRT:MSVCR110.dll
 0002:00065070       _ldexp                     00497070 f   MSVCRT:MSVCR110.dll
 0002:00065076       _strcmp                    00497076 f   MSVCRT:MSVCR110.dll
 0002:0006507c       _strncmp                   0049707c f   MSVCRT:MSVCR110.dll
 0002:00065082       _strtol                    00497082 f   MSVCRT:MSVCR110.dll
 0002:00065088       __lrotl                    00497088 f   MSVCRT:MSVCR110.dll
 0002:00065090       __alloca_probe             00497090     MSVCRT:chkstk.obj
 0002:00065090       __chkstk                   00497090 f   MSVCRT:chkstk.obj
 0002:00065209       _NtCurrentTeb              00497209 f i MSVCRT:crtexe.obj
 0002:00065425       _mainCRTStartup            00497425 f   MSVCRT:crtexe.obj
 0002:00065432       __lock                     00497432 f   MSVCRT:MSVCR110.dll
 0002:00065438       __unlock                   00497438 f   MSVCRT:MSVCR110.dll
 0002:0006543e       __calloc_crt               0049743e f   MSVCRT:MSVCR110.dll
 0002:00065444       ___dllonexit               00497444 f   MSVCRT:MSVCR110.dll
 0002:00065450       __SEH_prolog4              00497450 f   MSVCRT:sehprolg4.obj
 0002:00065495       __SEH_epilog4              00497495 f   MSVCRT:sehprolg4.obj
 0002:000654bf       __except_handler4          004974bf f   MSVCRT:chandler4gs.obj
 0002:000654ea       ___isa_available_init      004974ea f   MSVCRT:cpu_disp.obj
 0002:00065671       ??_M@YGXPAXIHP6EX0@Z@Z     00497671 f   MSVCRT:ehvecdtr.obj
 0002:0006571a       ?__ArrayUnwind@@YGXPAXIHP6EX0@Z@Z 0049771a f   MSVCRT:ehvecdtr.obj
 0002:00065790       ??1type_info@@UAE@XZ       00497790 f   MSVCRT:MSVCR110.dll
 0002:00065796       __crt_debugger_hook        00497796 f   MSVCRT:MSVCR110.dll
 0002:0006579c       ___crtUnhandledException   0049779c f   MSVCRT:MSVCR110.dll
 0002:000657a2       ___crtTerminateProcess     004977a2 f   MSVCRT:MSVCR110.dll
 0002:000657a8       ?__CxxUnhandledExceptionFilter@@YGJPAU_EXCEPTION_POINTERS@@@Z 004977a8 f   MSVCRT:unhandld.obj
 0002:000657f9       ___CxxSetUnhandledExceptionFilter 004977f9 f   MSVCRT:unhandld.obj
 0002:0006580a       __XcptFilter               0049780a f   MSVCRT:MSVCR110.dll
 0002:00065810       __amsg_exit                00497810 f   MSVCRT:MSVCR110.dll
 0002:00065816       __setargv                  00497816 f   MSVCRT:dllargv.obj
 0002:0006581a       ___getmainargs             0049781a f   MSVCRT:MSVCR110.dll
 0002:00065820       ___set_app_type            00497820 f   MSVCRT:MSVCR110.dll
 0002:00065830       __FindPESection            00497830 f   MSVCRT:pesect.obj
 0002:00065890       __IsNonwritableInCurrentImage 00497890 f   MSVCRT:pesect.obj
 0002:00065980       __ValidateImageBase        00497980 f   MSVCRT:pesect.obj
 0002:000659be       _exit                      004979be f   MSVCRT:MSVCR110.dll
 0002:000659c4       __exit                     004979c4 f   MSVCRT:MSVCR110.dll
 0002:000659ca       __cexit                    004979ca f   MSVCRT:MSVCR110.dll
 0002:000659d0       ___security_init_cookie    004979d0 f   MSVCRT:gs_support.obj
 0002:00065a90       __matherr                  00497a90 f   MSVCRT:merr.obj
 0002:00065a93       __RTC_Initialize           00497a93 f   MSVCRT:initsect.obj
 0002:00065abb       __RTC_Terminate            00497abb f   MSVCRT:initsect.obj
 0002:00065ae4       __configthreadlocale       00497ae4 f   MSVCRT:MSVCR110.dll
 0002:00065aea       __invoke_watson_if_error   00497aea f i MSVCRT:fp8.obj
 0002:00065b12       __setdefaultprecision      00497b12 f   MSVCRT:fp8.obj
 0002:00065b42       ___setusermatherr          00497b42 f   MSVCRT:MSVCR110.dll
 0002:00065b48       __initterm_e               00497b48 f   MSVCRT:MSVCR110.dll
 0002:00065b4e       __initterm                 00497b4e f   MSVCRT:MSVCR110.dll
 0002:00065b54       __except_handler4_common   00497b54 f   MSVCRT:MSVCR110.dll
 0002:00065b5a       ?terminate@@YAXXZ          00497b5a f   MSVCRT:MSVCR110.dll
 0002:00065b60       ___crtSetUnhandledExceptionFilter 00497b60 f   MSVCRT:MSVCR110.dll
 0002:00065b66       __invoke_watson            00497b66 f   MSVCRT:MSVCR110.dll
 0002:00065b6c       __controlfp_s              00497b6c f   MSVCRT:MSVCR110.dll
 0002:00065b72       __vcomp_for_static_end     00497b72 f   VCOMP:VCOMP110.DLL
 0002:00065b78       __vcomp_for_static_simple_init 00497b78 f   VCOMP:VCOMP110.DLL
 0002:00065b7e       __vcomp_fork               00497b7e f   VCOMP:VCOMP110.DLL
 0002:00065b90       _EncodePointer@4           00497b90 f   kernel32:KERNEL32.dll
 0002:00065b96       _DecodePointer@4           00497b96 f   kernel32:KERNEL32.dll
 0002:00065b9c       _IsDebuggerPresent@0       00497b9c f   kernel32:KERNEL32.dll
 0002:00065ba2       _IsProcessorFeaturePresent@4 00497ba2 f   kernel32:KERNEL32.dll
 0002:00065ba8       _QueryPerformanceCounter@4 00497ba8 f   kernel32:KERNEL32.dll
 0002:00065bae       _GetCurrentProcessId@0     00497bae f   kernel32:KERNEL32.dll
 0002:00065bb4       _GetCurrentThreadId@0      00497bb4 f   kernel32:KERNEL32.dll
 0002:00065bba       _GetSystemTimeAsFileTime@4 00497bba f   kernel32:KERNEL32.dll
 0003:00000000       ___xc_a                    0049e000     MSVCRT:cinitexe.obj
 0003:000004a0       ___xc_z                    0049e4a0     MSVCRT:cinitexe.obj
 0003:000005a4       ___xi_a                    0049e5a4     MSVCRT:cinitexe.obj
 0003:000009bc       ___xi_z                    0049e9bc     MSVCRT:cinitexe.obj
 0003:00000af8       ?is_modulo@_Num_base@std@@2_NB 0049eaf8     fluidsim.obj
 0003:00000af9       ?is_signed@_Num_base@std@@2_NB 0049eaf9     fluidsim.obj
 0003:00000afa       ?is_specialized@_Num_base@std@@2_NB 0049eafa     fluidsim.obj
 0003:00000afb       ?tinyness_before@_Num_base@std@@2_NB 0049eafb     fluidsim.obj
 0003:00000afc       ?traps@_Num_base@std@@2_NB 0049eafc     fluidsim.obj
 0003:00000b00       ?round_style@_Num_base@std@@2W4float_round_style@2@B 0049eb00     fluidsim.obj
 0003:00000b04       ?digits@_Num_base@std@@2HB 0049eb04     fluidsim.obj
 0003:00000b08       ?digits10@_Num_base@std@@2HB 0049eb08     fluidsim.obj
 0003:00000b0c       ?max_digits10@_Num_base@std@@2HB 0049eb0c     fluidsim.obj
 0003:00000b10       ?max_exponent@_Num_base@std@@2HB 0049eb10     fluidsim.obj
 0003:00000b14       ?max_exponent10@_Num_base@std@@2HB 0049eb14     fluidsim.obj
 0003:00000b18       ?min_exponent@_Num_base@std@@2HB 0049eb18     fluidsim.obj
 0003:00000b1c       ?min_exponent10@_Num_base@std@@2HB 0049eb1c     fluidsim.obj
 0003:00000b20       ?radix@_Num_base@std@@2HB  0049eb20     fluidsim.obj
 0003:00000b24       ?is_bounded@_Num_int_base@std@@2_NB 0049eb24     fluidsim.obj
 0003:00000b25       ?is_exact@_Num_int_base@std@@2_NB 0049eb25     fluidsim.obj
 0003:00000b26       ?is_integer@_Num_int_base@std@@2_NB 0049eb26     fluidsim.obj
 0003:00000b27       ?is_modulo@_Num_int_base@std@@2_NB 0049eb27     fluidsim.obj
 0003:00000b28       ?is_specialized@_Num_int_base@std@@2_NB 0049eb28     fluidsim.obj
 0003:00000b2c       ?radix@_Num_int_base@std@@2HB 0049eb2c     fluidsim.obj
 0003:00000b30       ?has_denorm@_Num_float_base@std@@2W4float_denorm_style@2@B 0049eb30     fluidsim.obj
 0003:00000b34       ?has_denorm_loss@_Num_float_base@std@@2_NB 0049eb34     fluidsim.obj
 0003:00000b35       ?has_infinity@_Num_float_base@std@@2_NB 0049eb35     fluidsim.obj
 0003:00000b36       ?has_quiet_NaN@_Num_float_base@std@@2_NB 0049eb36     fluidsim.obj
 0003:00000b37       ?has_signaling_NaN@_Num_float_base@std@@2_NB 0049eb37     fluidsim.obj
 0003:00000b38       ?is_bounded@_Num_float_base@std@@2_NB 0049eb38     fluidsim.obj
 0003:00000b39       ?is_exact@_Num_float_base@std@@2_NB 0049eb39     fluidsim.obj
 0003:00000b3a       ?is_iec559@_Num_float_base@std@@2_NB 0049eb3a     fluidsim.obj
 0003:00000b3b       ?is_integer@_Num_float_base@std@@2_NB 0049eb3b     fluidsim.obj
 0003:00000b3c       ?is_modulo@_Num_float_base@std@@2_NB 0049eb3c     fluidsim.obj
 0003:00000b3d       ?is_signed@_Num_float_base@std@@2_NB 0049eb3d     fluidsim.obj
 0003:00000b3e       ?is_specialized@_Num_float_base@std@@2_NB 0049eb3e     fluidsim.obj
 0003:00000b3f       ?tinyness_before@_Num_float_base@std@@2_NB 0049eb3f     fluidsim.obj
 0003:00000b40       ?traps@_Num_float_base@std@@2_NB 0049eb40     fluidsim.obj
 0003:00000b44       ?round_style@_Num_float_base@std@@2W4float_round_style@2@B 0049eb44     fluidsim.obj
 0003:00000b48       ?radix@_Num_float_base@std@@2HB 0049eb48     fluidsim.obj
 0003:00000b4c       ?is_signed@?$numeric_limits@D@std@@2_NB 0049eb4c     fluidsim.obj
 0003:00000b50       ?digits@?$numeric_limits@D@std@@2HB 0049eb50     fluidsim.obj
 0003:00000b54       ?digits10@?$numeric_limits@D@std@@2HB 0049eb54     fluidsim.obj
 0003:00000b58       ?is_signed@?$numeric_limits@_W@std@@2_NB 0049eb58     fluidsim.obj
 0003:00000b5c       ?digits@?$numeric_limits@_W@std@@2HB 0049eb5c     fluidsim.obj
 0003:00000b60       ?digits10@?$numeric_limits@_W@std@@2HB 0049eb60     fluidsim.obj
 0003:00000b64       ?is_modulo@?$numeric_limits@_N@std@@2_NB 0049eb64     fluidsim.obj
 0003:00000b65       ?is_signed@?$numeric_limits@_N@std@@2_NB 0049eb65     fluidsim.obj
 0003:00000b68       ?digits@?$numeric_limits@_N@std@@2HB 0049eb68     fluidsim.obj
 0003:00000b6c       ?digits10@?$numeric_limits@_N@std@@2HB 0049eb6c     fluidsim.obj
 0003:00000b70       ?is_signed@?$numeric_limits@C@std@@2_NB 0049eb70     fluidsim.obj
 0003:00000b74       ?digits@?$numeric_limits@C@std@@2HB 0049eb74     fluidsim.obj
 0003:00000b78       ?digits10@?$numeric_limits@C@std@@2HB 0049eb78     fluidsim.obj
 0003:00000b7c       ?is_signed@?$numeric_limits@E@std@@2_NB 0049eb7c     fluidsim.obj
 0003:00000b80       ?digits@?$numeric_limits@E@std@@2HB 0049eb80     fluidsim.obj
 0003:00000b84       ?digits10@?$numeric_limits@E@std@@2HB 0049eb84     fluidsim.obj
 0003:00000b88       ?value@?$integral_constant@_N$0A@@std@@2_NB 0049eb88     fluidsim.obj
 0003:00000b89       ?value@?$integral_constant@_N$00@std@@2_NB 0049eb89     fluidsim.obj
 0003:00000b8a       ?is_signed@?$numeric_limits@F@std@@2_NB 0049eb8a     fluidsim.obj
 0003:00000b8c       ?digits@?$numeric_limits@F@std@@2HB 0049eb8c     fluidsim.obj
 0003:00000b90       ?digits10@?$numeric_limits@F@std@@2HB 0049eb90     fluidsim.obj
 0003:00000b94       ?value@?$_Sizeof@HU_Nil@std@@U12@U12@U12@U12@U12@U12@@std@@2IB 0049eb94     fluidsim.obj
 0003:00000b98       ?is_signed@?$numeric_limits@G@std@@2_NB 0049eb98     fluidsim.obj
 0003:00000b9c       ?digits@?$numeric_limits@G@std@@2HB 0049eb9c     fluidsim.obj
 0003:00000ba0       ?digits10@?$numeric_limits@G@std@@2HB 0049eba0     fluidsim.obj
 0003:00000ba4       ?skipws@?$_Iosb@H@std@@2W4_Fmtflags@12@B 0049eba4     fluidsim.obj
 0003:00000ba8       ?unitbuf@?$_Iosb@H@std@@2W4_Fmtflags@12@B 0049eba8     fluidsim.obj
 0003:00000bac       ?uppercase@?$_Iosb@H@std@@2W4_Fmtflags@12@B 0049ebac     fluidsim.obj
 0003:00000bb0       ?showbase@?$_Iosb@H@std@@2W4_Fmtflags@12@B 0049ebb0     fluidsim.obj
 0003:00000bb4       ?showpoint@?$_Iosb@H@std@@2W4_Fmtflags@12@B 0049ebb4     fluidsim.obj
 0003:00000bb8       ?showpos@?$_Iosb@H@std@@2W4_Fmtflags@12@B 0049ebb8     fluidsim.obj
 0003:00000bbc       ?left@?$_Iosb@H@std@@2W4_Fmtflags@12@B 0049ebbc     fluidsim.obj
 0003:00000bc0       ?is_signed@?$numeric_limits@H@std@@2_NB 0049ebc0     fluidsim.obj
 0003:00000bc4       ?right@?$_Iosb@H@std@@2W4_Fmtflags@12@B 0049ebc4     fluidsim.obj
 0003:00000bc8       ?internal@?$_Iosb@H@std@@2W4_Fmtflags@12@B 0049ebc8     fluidsim.obj
 0003:00000bcc       ?digits@?$numeric_limits@H@std@@2HB 0049ebcc     fluidsim.obj
 0003:00000bd0       ?dec@?$_Iosb@H@std@@2W4_Fmtflags@12@B 0049ebd0     fluidsim.obj
 0003:00000bd4       ?digits10@?$numeric_limits@H@std@@2HB 0049ebd4     fluidsim.obj
 0003:00000bd8       ?oct@?$_Iosb@H@std@@2W4_Fmtflags@12@B 0049ebd8     fluidsim.obj
 0003:00000bdc       ?hex@?$_Iosb@H@std@@2W4_Fmtflags@12@B 0049ebdc     fluidsim.obj
 0003:00000be0       ?scientific@?$_Iosb@H@std@@2W4_Fmtflags@12@B 0049ebe0     fluidsim.obj
 0003:00000be4       ?fixed@?$_Iosb@H@std@@2W4_Fmtflags@12@B 0049ebe4     fluidsim.obj
 0003:00000be8       ?hexfloat@?$_Iosb@H@std@@2W4_Fmtflags@12@B 0049ebe8     fluidsim.obj
 0003:00000bec       ?boolalpha@?$_Iosb@H@std@@2W4_Fmtflags@12@B 0049ebec     fluidsim.obj
 0003:00000bf0       ?_Stdio@?$_Iosb@H@std@@2W4_Fmtflags@12@B 0049ebf0     fluidsim.obj
 0003:00000bf4       ?adjustfield@?$_Iosb@H@std@@2W4_Fmtflags@12@B 0049ebf4     fluidsim.obj
 0003:00000bf8       ?basefield@?$_Iosb@H@std@@2W4_Fmtflags@12@B 0049ebf8     fluidsim.obj
 0003:00000bfc       ?floatfield@?$_Iosb@H@std@@2W4_Fmtflags@12@B 0049ebfc     fluidsim.obj
 0003:00000c00       ?is_signed@?$numeric_limits@I@std@@2_NB 0049ec00     fluidsim.obj
 0003:00000c04       ?digits@?$numeric_limits@I@std@@2HB 0049ec04     fluidsim.obj
 0003:00000c08       ?goodbit@?$_Iosb@H@std@@2W4_Iostate@12@B 0049ec08     fluidsim.obj
 0003:00000c0c       ?eofbit@?$_Iosb@H@std@@2W4_Iostate@12@B 0049ec0c     fluidsim.obj
 0003:00000c10       ?digits10@?$numeric_limits@I@std@@2HB 0049ec10     fluidsim.obj
 0003:00000c14       ?failbit@?$_Iosb@H@std@@2W4_Iostate@12@B 0049ec14     fluidsim.obj
 0003:00000c18       ?badbit@?$_Iosb@H@std@@2W4_Iostate@12@B 0049ec18     fluidsim.obj
 0003:00000c1c       ?_Hardfail@?$_Iosb@H@std@@2W4_Iostate@12@B 0049ec1c     fluidsim.obj
 0003:00000c20       ?in@?$_Iosb@H@std@@2W4_Openmode@12@B 0049ec20     fluidsim.obj
 0003:00000c24       ?out@?$_Iosb@H@std@@2W4_Openmode@12@B 0049ec24     fluidsim.obj
 0003:00000c28       ?ate@?$_Iosb@H@std@@2W4_Openmode@12@B 0049ec28     fluidsim.obj
 0003:00000c2c       ?app@?$_Iosb@H@std@@2W4_Openmode@12@B 0049ec2c     fluidsim.obj
 0003:00000c30       ?trunc@?$_Iosb@H@std@@2W4_Openmode@12@B 0049ec30     fluidsim.obj
 0003:00000c34       ?_Nocreate@?$_Iosb@H@std@@2W4_Openmode@12@B 0049ec34     fluidsim.obj
 0003:00000c38       ?is_signed@?$numeric_limits@J@std@@2_NB 0049ec38     fluidsim.obj
 0003:00000c3c       ?_Noreplace@?$_Iosb@H@std@@2W4_Openmode@12@B 0049ec3c     fluidsim.obj
 0003:00000c40       ?digits@?$numeric_limits@J@std@@2HB 0049ec40     fluidsim.obj
 0003:00000c44       ?binary@?$_Iosb@H@std@@2W4_Openmode@12@B 0049ec44     fluidsim.obj
 0003:00000c48       ?digits10@?$numeric_limits@J@std@@2HB 0049ec48     fluidsim.obj
 0003:00000c4c       ?beg@?$_Iosb@H@std@@2W4_Seekdir@12@B 0049ec4c     fluidsim.obj
 0003:00000c50       ?cur@?$_Iosb@H@std@@2W4_Seekdir@12@B 0049ec50     fluidsim.obj
 0003:00000c54       ?end@?$_Iosb@H@std@@2W4_Seekdir@12@B 0049ec54     fluidsim.obj
 0003:00000c58       ?is_signed@?$numeric_limits@K@std@@2_NB 0049ec58     fluidsim.obj
 0003:00000c5c       ?digits@?$numeric_limits@K@std@@2HB 0049ec5c     fluidsim.obj
 0003:00000c60       ?_Stream_err@failure@ios_base@std@@0W4io_errc@43@B 0049ec60     fluidsim.obj
 0003:00000c64       ?digits10@?$numeric_limits@K@std@@2HB 0049ec64     fluidsim.obj
 0003:00000c68       ?is_signed@?$numeric_limits@_J@std@@2_NB 0049ec68     fluidsim.obj
 0003:00000c6c       ?digits@?$numeric_limits@_J@std@@2HB 0049ec6c     fluidsim.obj
 0003:00000c70       ?digits10@?$numeric_limits@_J@std@@2HB 0049ec70     fluidsim.obj
 0003:00000c74       ?is_signed@?$numeric_limits@_K@std@@2_NB 0049ec74     fluidsim.obj
 0003:00000c78       ?digits@?$numeric_limits@_K@std@@2HB 0049ec78     fluidsim.obj
 0003:00000c7c       ?digits10@?$numeric_limits@_K@std@@2HB 0049ec7c     fluidsim.obj
 0003:00000c80       ?digits@?$numeric_limits@M@std@@2HB 0049ec80     fluidsim.obj
 0003:00000c84       ?digits10@?$numeric_limits@M@std@@2HB 0049ec84     fluidsim.obj
 0003:00000c88       ?value@?$integral_constant@I$0A@@std@@2IB 0049ec88     fluidsim.obj
 0003:00000c8c       ?max_digits10@?$numeric_limits@M@std@@2HB 0049ec8c     fluidsim.obj
 0003:00000c90       ?max_exponent@?$numeric_limits@M@std@@2HB 0049ec90     fluidsim.obj
 0003:00000c94       ?value@?$integral_constant@H$0A@@std@@2HB 0049ec94     fluidsim.obj
 0003:00000c98       ?max_exponent10@?$numeric_limits@M@std@@2HB 0049ec98     fluidsim.obj
 0003:00000c9c       ?min_exponent@?$numeric_limits@M@std@@2HB 0049ec9c     fluidsim.obj
 0003:00000ca0       ?min_exponent10@?$numeric_limits@M@std@@2HB 0049eca0     fluidsim.obj
 0003:00000ca4       ?digits@?$numeric_limits@N@std@@2HB 0049eca4     fluidsim.obj
 0003:00000ca8       ?digits10@?$numeric_limits@N@std@@2HB 0049eca8     fluidsim.obj
 0003:00000cac       ?max_digits10@?$numeric_limits@N@std@@2HB 0049ecac     fluidsim.obj
 0003:00000cb0       ?max_exponent@?$numeric_limits@N@std@@2HB 0049ecb0     fluidsim.obj
 0003:00000cb4       ?max_exponent10@?$numeric_limits@N@std@@2HB 0049ecb4     fluidsim.obj
 0003:00000cb8       ?min_exponent@?$numeric_limits@N@std@@2HB 0049ecb8     fluidsim.obj
 0003:00000cbc       ?min_exponent10@?$numeric_limits@N@std@@2HB 0049ecbc     fluidsim.obj
 0003:00000cc0       ?collate@?$_Locbase@H@std@@2HB 0049ecc0     fluidsim.obj
 0003:00000cc4       ?ctype@?$_Locbase@H@std@@2HB 0049ecc4     fluidsim.obj
 0003:00000cc8       ?monetary@?$_Locbase@H@std@@2HB 0049ecc8     fluidsim.obj
 0003:00000ccc       ?numeric@?$_Locbase@H@std@@2HB 0049eccc     fluidsim.obj
 0003:00000cd0       ?time@?$_Locbase@H@std@@2HB 0049ecd0     fluidsim.obj
 0003:00000cd4       ?messages@?$_Locbase@H@std@@2HB 0049ecd4     fluidsim.obj
 0003:00000cd8       ?all@?$_Locbase@H@std@@2HB 0049ecd8     fluidsim.obj
 0003:00000cdc       ?none@?$_Locbase@H@std@@2HB 0049ecdc     fluidsim.obj
 0003:00000ce0       ?digits@?$numeric_limits@O@std@@2HB 0049ece0     fluidsim.obj
 0003:00000ce4       ?digits10@?$numeric_limits@O@std@@2HB 0049ece4     fluidsim.obj
 0003:00000ce8       ?max_digits10@?$numeric_limits@O@std@@2HB 0049ece8     fluidsim.obj
 0003:00000cec       ?max_exponent@?$numeric_limits@O@std@@2HB 0049ecec     fluidsim.obj
 0003:00000cf0       ?max_exponent10@?$numeric_limits@O@std@@2HB 0049ecf0     fluidsim.obj
 0003:00000cf4       ?min_exponent@?$numeric_limits@O@std@@2HB 0049ecf4     fluidsim.obj
 0003:00000cf8       ?min_exponent10@?$numeric_limits@O@std@@2HB 0049ecf8     fluidsim.obj
 0003:00000cfc       ?value@?$_Sizeof@U_Nil@std@@U12@U12@U12@U12@U12@U12@U12@@std@@2IB 0049ecfc     fluidsim.obj
 0003:00000d00       ?has_denorm@_Num_base@std@@2W4float_denorm_style@2@B 0049ed00     fluidsim.obj
 0003:00000d04       ?has_denorm_loss@_Num_base@std@@2_NB 0049ed04     fluidsim.obj
 0003:00000d05       ?has_infinity@_Num_base@std@@2_NB 0049ed05     fluidsim.obj
 0003:00000d06       ?has_quiet_NaN@_Num_base@std@@2_NB 0049ed06     fluidsim.obj
 0003:00000d07       ?has_signaling_NaN@_Num_base@std@@2_NB 0049ed07     fluidsim.obj
 0003:00000d08       ?is_bounded@_Num_base@std@@2_NB 0049ed08     fluidsim.obj
 0003:00000d09       ?is_exact@_Num_base@std@@2_NB 0049ed09     fluidsim.obj
 0003:00000d0a       ?is_iec559@_Num_base@std@@2_NB 0049ed0a     fluidsim.obj
 0003:00000d0b       ?is_integer@_Num_base@std@@2_NB 0049ed0b     fluidsim.obj
 0003:00000d10       ??_7bad_alloc@std@@6B@     0049ed10     fluidsim.obj
 0003:00000d1c       ??_C@_0P@GHFPNOJB@bad?5allocation?$AA@ 0049ed1c     fluidsim.obj
 0003:00000d30       ?npos@?$basic_string@DU?$char_traits@D@std@@V?$allocator@D@2@@std@@2IB 0049ed30     fluidsim.obj
 0003:00000d38       ??_7error_category@std@@6B@ 0049ed38     fluidsim.obj
 0003:00000d5c       ??_7_Generic_error_category@std@@6B@ 0049ed5c     fluidsim.obj
 0003:00000d7c       ??_C@_07DCLBNMLN@generic?$AA@ 0049ed7c     fluidsim.obj
 0003:00000d88       ??_C@_0O@BFJCFAAK@unknown?5error?$AA@ 0049ed88     fluidsim.obj
 0003:00000d9c       ??_7_Iostream_error_category@std@@6B@ 0049ed9c     fluidsim.obj
 0003:00000dbc       ??_C@_08LLGCOLLL@iostream?$AA@ 0049edbc     fluidsim.obj
 0003:00000dc8       ??_C@_0BG@PADBLCHM@iostream?5stream?5error?$AA@ 0049edc8     fluidsim.obj
 0003:00000de8       ??_7_System_error_category@std@@6B@ 0049ede8     fluidsim.obj
 0003:00000e08       ??_C@_06FHFOAHML@system?$AA@ 0049ee08     fluidsim.obj
 0003:00000e10       ??_C@_02DPKJAMEF@?$CFd?$AA@ 0049ee10     fluidsim.obj
 0003:00000e14       ??_C@_04PACIOCLB@?4obj?$AA@ 0049ee14     fluidsim.obj
 0003:00000e20       ??_C@_0EA@LCDCKDBF@Error?3?5Expected?5OBJ?5file?5with?5fi@ 0049ee20     fluidsim.obj
 0003:00000e6c       ??_C@_04ECNPDJCI@?4sdf?$AA@ 0049ee6c     fluidsim.obj
 0003:00000e74       ??_C@_01IDAFKMJL@_?$AA@    0049ee74     fluidsim.obj
 0003:00000e7c       ??_7?$basic_filebuf@DU?$char_traits@D@std@@@std@@6B@ 0049ee7c     fluidsim.obj
 0003:00000ec8       ??_7?$basic_ifstream@DU?$char_traits@D@std@@@std@@6B@ 0049eec8     fluidsim.obj
 0003:00000ed8       ??_8?$basic_ifstream@DU?$char_traits@D@std@@@std@@7B@ 0049eed8     fluidsim.obj
 0003:00000ee4       ??_C@_0BJ@GFMIIBPI@obj?5file?5doesn?8t?5exist?4?6?$AA@ 0049eee4     fluidsim.obj
 0003:00000f04       ??_C@_01MHEDDDHA@v?$AA@    0049ef04     fluidsim.obj
 0003:00000f08       ??_C@_01PFHFFBPC@t?$AA@    0049ef08     fluidsim.obj
 0003:00000f0c       ??_C@_01EFFIKLCJ@n?$AA@    0049ef0c     fluidsim.obj
 0003:00000f14       ??_7?$basic_stringbuf@DU?$char_traits@D@std@@V?$allocator@D@2@@std@@6B@ 0049ef14     fluidsim.obj
 0003:00000f60       ??_7?$basic_stringstream@DU?$char_traits@D@std@@V?$allocator@D@2@@std@@6B@ 0049ef60     fluidsim.obj
 0003:00000f70       ??_8?$basic_stringstream@DU?$char_traits@D@std@@V?$allocator@D@2@@std@@7B?$basic_istream@DU?$char_traits@D@std@@@1@@ 0049ef70     fluidsim.obj
 0003:00000f7c       ??_8?$basic_stringstream@DU?$char_traits@D@std@@V?$allocator@D@2@@std@@7B?$basic_ostream@DU?$char_traits@D@std@@@1@@ 0049ef7c     fluidsim.obj
 0003:00000f88       ??_C@_01INIBCBCB@f?$AA@    0049ef88     fluidsim.obj
 0003:00000f8c       ??_C@_02KNHHEEKP@?5?5?$AA@ 0049ef8c     fluidsim.obj
 0003:00000f90       ??_C@_01LFCBOECM@?4?$AA@   0049ef90     fluidsim.obj
 0003:00000f94       ??_C@_0BD@KGCCDBGG@?$CJ?5with?5dimensions?5?$AA@ 0049ef94     fluidsim.obj
 0003:00000fac       ??_C@_06DFBNBAOI@?$CJ?5to?5?$CI?$AA@ 0049efac     fluidsim.obj
 0003:00000fb4       ??_C@_0BC@ODJBFJCC@Bound?5box?5size?3?5?$CI?$AA@ 0049efb4     fluidsim.obj
 0003:00000fcc       ??_C@_0CC@MKLLFEIH@Computing?5signed?5distance?5field?4@ 0049efcc     fluidsim.obj
 0003:00000ff4       ??_C@_01EEMJAFIK@?6?$AA@   0049eff4     fluidsim.obj
 0003:00000ff8       ??_C@_0BF@IDCGHPOJ@Writing?5results?5to?3?5?$AA@ 0049eff8     fluidsim.obj
 0003:00001018       ??_7?$basic_ofstream@DU?$char_traits@D@std@@@std@@6B@ 0049f018     fluidsim.obj
 0003:00001028       ??_8?$basic_ofstream@DU?$char_traits@D@std@@@std@@7B@ 0049f028     fluidsim.obj
 0003:00001034       ??_C@_01CLKCMJKC@?5?$AA@   0049f034     fluidsim.obj
 0003:00001038       ??_C@_0BG@INDCFGHJ@Processing?5complete?4?6?$AA@ 0049f038     fluidsim.obj
 0003:00001054       ??_C@_0BN@IIKHIDDJ@Loading?5level?5set?5data?5from?5?$AA@ 0049f054     fluidsim.obj
 0003:00001078       ??_C@_0BB@IMPLEDDO@Finished?5loading?$AA@ 0049f078     fluidsim.obj
 0003:0000108c       ??_C@_0M@JECHHIMD@particle?50?3?$AA@ 0049f08c     fluidsim.obj
 0003:0000109c       ??_C@_06NACOCKGF@pos?5?$DN?5?$AA@ 0049f09c     fluidsim.obj
 0003:000010a4       ??_C@_09BDMGALIO@radius?5?$DN?5?$AA@ 0049f0a4     fluidsim.obj
 0003:000010b0       ??_C@_01JLIPDDHJ@?3?$AA@   0049f0b0     fluidsim.obj
 0003:000010b4       ??_C@_09MHHNDPO@particle?5?$AA@ 0049f0b4     fluidsim.obj
 0003:000010c0       ??_C@_0BM@KPMCAFII@Finished?5sorting?5particles?6?$AA@ 0049f0c0     fluidsim.obj
 0003:000010e4       ??_C@_0DA@LJDMCLN@Finished?5rasterizing?5particle?5da@ 0049f0e4     fluidsim.obj
 0003:00001120       ??_C@_0DA@MJIKPCLK@Finished?5computing?5particle?5dens@ 0049f120     fluidsim.obj
 0003:0000115c       ??_C@_0BG@OKLFHNDI@Particle?5radius?5?$DN?5?$CFf?6?$AA@ 0049f15c     fluidsim.obj
 0003:00001178       ??_C@_0CJ@BJJOFPHB@?5Finished?5computing?5forces?5for?5l@ 0049f178     fluidsim.obj
 0003:000011ac       ??_C@_0CA@HBJAHKCL@Finished?5computing?5grid?5forces?6?$AA@ 0049f1ac     fluidsim.obj
 0003:000011d4       ??_C@_0CC@DNOENHK@Finished?5applying?5external?5force@ 0049f1d4     fluidsim.obj
 0003:000011fc       ??_C@_0CI@NJPPL@Finished?5updating?5temporary?5velo@ 0049f1fc     fluidsim.obj
 0003:0000122c       ??_C@_0CF@LJNFDJBB@Finished?5applying?5collision?5to?5g@ 0049f22c     fluidsim.obj
 0003:00001258       ??_C@_0CD@IOOOEIAP@Finished?5updating?5grid?5velocitie@ 0049f258     fluidsim.obj
 0003:00001284       ??_C@_0CI@JKFLANFO@Finished?5updating?5deformation?5gr@ 0049f284     fluidsim.obj
 0003:000012b4       ??_C@_0CH@CNJDKGJL@Finished?5updating?5particle?5veloc@ 0049f2b4     fluidsim.obj
 0003:000012e4       ??_C@_0CK@LPMAGFGF@Finished?5applying?5collision?5to?5p@ 0049f2e4     fluidsim.obj
 0003:00001318       ??_C@_06PANFDMGK@vel?5?$DN?5?$AA@ 0049f318     fluidsim.obj
 0003:00001320       ??_C@_0CG@PFNFAAFL@Finished?5updating?5particle?5posit@ 0049f320     fluidsim.obj
 0003:00001350       ??_C@_1JK@ECIGLIJO@?$AAc?$AA?3?$AA?2?$AAu?$AAs?$AAe?$AAr?$AAs?$AA?2?$AAl?$AAu?$AAc?$AAy?$AA?2?$AAd?$AAo?$AAc?$AAu?$AAm?$AAe?$AAn?$AAt?$AAs?$AA?2?$AAs?$AAc?$AAh?$AAo?$AAo?$AAl?$AA?2?$AA2@ 0049f350     fluidsim.obj
 0003:00001408       ??_C@_1EE@DLOGJCN@?$AA0?$AA?$DM?$AA?$DN?$AAi?$AAn?$AAd?$AAe?$AAx?$AA?5?$AA?$CG?$AA?$CG?$AA?5?$AA?$CI?$AAu?$AAn?$AAs?$AAi?$AAg?$AAn?$AAe?$AAd?$AA?5?$AAi?$AAn?$AAt?$AA?$CJ?$AAi?$AAn?$AAd?$AAe?$AAx?$AA?$DM@ 0049f408     fluidsim.obj
 0003:00001460       ??_C@_1NA@GIEHIGHN@?$AAc?$AA?3?$AA?2?$AAu?$AAs?$AAe?$AAr?$AAs?$AA?2?$AAl?$AAu?$AAc?$AAy?$AA?2?$AAd?$AAo?$AAc?$AAu?$AAm?$AAe?$AAn?$AAt?$AAs?$AA?2?$AAs?$AAc?$AAh?$AAo?$AAo?$AAl?$AA?2?$AA2@ 0049f460     fluidsim.obj
 0003:00001560       ??_C@_1GK@FICMDKNL@?$AAr?$AAo?$AAw?$AA?5?$AA?$DO?$AA?$DN?$AA?5?$AA0?$AA?5?$AA?$CG?$AA?$CG?$AA?5?$AAr?$AAo?$AAw?$AA?5?$AA?$DM?$AA?5?$AAr?$AAo?$AAw?$AAs?$AA?$CI?$AA?$CJ?$AA?5?$AA?$CG?$AA?$CG?$AA?5?$AAc?$AAo?$AAl?$AA?5@ 0049f560     fluidsim.obj
 0003:000015e0       ??_C@_1KA@NBPEOEEB@?$AAc?$AA?3?$AA?2?$AAu?$AAs?$AAe?$AAr?$AAs?$AA?2?$AAl?$AAu?$AAc?$AAy?$AA?2?$AAd?$AAo?$AAc?$AAu?$AAm?$AAe?$AAn?$AAt?$AAs?$AA?2?$AAs?$AAc?$AAh?$AAo?$AAo?$AAl?$AA?2?$AA2@ 0049f5e0     fluidsim.obj
 0003:000016a0       ??_C@_1FK@PGIJLBAI@?$AAi?$AA?$DO?$AA?$DN?$AA0?$AA?5?$AA?$CG?$AA?$CG?$AA?5?$AAi?$AA?$DM?$AAn?$AAi?$AA?5?$AA?$CG?$AA?$CG?$AA?5?$AAj?$AA?$DO?$AA?$DN?$AA0?$AA?5?$AA?$CG?$AA?$CG?$AA?5?$AAj?$AA?$DM?$AAn?$AAj?$AA?5?$AA?$CG?$AA?$CG?$AA?5@ 0049f6a0     fluidsim.obj
 0003:0000170c       ??_C@_1DG@HHNMHAGH@?$AAn?$AAi?$AA_?$AA?$DO?$AA?$DN?$AA0?$AA?5?$AA?$CG?$AA?$CG?$AA?5?$AAn?$AAj?$AA_?$AA?$DO?$AA?$DN?$AA0?$AA?5?$AA?$CG?$AA?$CG?$AA?5?$AAn?$AAk?$AA_?$AA?$DO?$AA?$DN?$AA0?$AA?$AA@ 0049f70c     fluidsim.obj
 0003:0000174c       ??_C@_1DK@KFNEMHOJ@?$AAi?$AAn?$AAd?$AAe?$AAx?$AA?5?$AA?$DO?$AA?$DN?$AA?5?$AA0?$AA?5?$AA?$CG?$AA?$CG?$AA?5?$AAi?$AAn?$AAd?$AAe?$AAx?$AA?5?$AA?$DM?$AA?5?$AAs?$AAi?$AAz?$AAe?$AA?$CI?$AA?$CJ?$AA?$AA@ 0049f74c     fluidsim.obj
 0003:00001794       ??_C@_0BO@HLLLBMNL@JacobiSVD?5is?5not?5initialized?4?$AA@ 0049f794     fluidsim.obj
 0003:000017b8       ??_C@_1MC@ODHFFEED@?$AAc?$AA?3?$AA?2?$AAu?$AAs?$AAe?$AAr?$AAs?$AA?2?$AAl?$AAu?$AAc?$AAy?$AA?2?$AAd?$AAo?$AAc?$AAu?$AAm?$AAe?$AAn?$AAt?$AAs?$AA?2?$AAs?$AAc?$AAh?$AAo?$AAo?$AAl?$AA?2?$AA2@ 0049f7b8     fluidsim.obj
 0003:000018a0       ??_C@_1GG@OLOLHNOJ@?$AAm?$AA_?$AAi?$AAs?$AAI?$AAn?$AAi?$AAt?$AAi?$AAa?$AAl?$AAi?$AAz?$AAe?$AAd?$AA?5?$AA?$CG?$AA?$CG?$AA?5?$AA?$CC?$AAJ?$AAa?$AAc?$AAo?$AAb?$AAi?$AAS?$AAV?$AAD?$AA?5?$AAi?$AAs@ 0049f8a0     fluidsim.obj
 0003:00001920       ??_C@_0ED@EIHJDJP@This?5JacobiSVD?5decomposition?5did@ 0049f920     fluidsim.obj
 0003:00001970       ??_C@_1KG@GKOHPHLJ@?$AAc?$AAo?$AAm?$AAp?$AAu?$AAt?$AAe?$AAU?$AA?$CI?$AA?$CJ?$AA?5?$AA?$CG?$AA?$CG?$AA?5?$AA?$CC?$AAT?$AAh?$AAi?$AAs?$AA?5?$AAJ?$AAa?$AAc?$AAo?$AAb?$AAi?$AAS?$AAV?$AAD?$AA?5?$AAd?$AAe@ 0049f970     fluidsim.obj
 0003:00001a38       ??_C@_0ED@HCGCKKKC@This?5JacobiSVD?5decomposition?5did@ 0049fa38     fluidsim.obj
 0003:00001a88       ??_C@_1KG@EHCPLKEP@?$AAc?$AAo?$AAm?$AAp?$AAu?$AAt?$AAe?$AAV?$AA?$CI?$AA?$CJ?$AA?5?$AA?$CG?$AA?$CG?$AA?5?$AA?$CC?$AAT?$AAh?$AAi?$AAs?$AA?5?$AAJ?$AAa?$AAc?$AAo?$AAb?$AAi?$AAS?$AAV?$AAD?$AA?5?$AAd?$AAe@ 0049fa88     fluidsim.obj
 0003:00001b50       ??_C@_0BA@JFNIOLAK@string?5too?5long?$AA@ 0049fb50     fluidsim.obj
 0003:00001b64       ??_C@_0BI@CFPLBAOH@invalid?5string?5position?$AA@ 0049fb64     fluidsim.obj
 0003:00001b80       ??_C@_0BD@OLBABOEK@vector?$DMT?$DO?5too?5long?$AA@ 0049fb80     fluidsim.obj
 0003:00001b98       ??_C@_08EPJLHIJG@bad?5cast?$AA@ 0049fb98     fluidsim.obj
 0003:00001ba8       ??_C@_1LM@OMNINNNE@?$AAc?$AA?3?$AA?2?$AAu?$AAs?$AAe?$AAr?$AAs?$AA?2?$AAl?$AAu?$AAc?$AAy?$AA?2?$AAd?$AAo?$AAc?$AAu?$AAm?$AAe?$AAn?$AAt?$AAs?$AA?2?$AAs?$AAc?$AAh?$AAo?$AAo?$AAl?$AA?2?$AA2@ 0049fba8     fluidsim.obj
 0003:00001c8c       ??_C@_1CC@DEHEFNPO@?$AAr?$AAo?$AAw?$AAs?$AA?$CI?$AA?$CJ?$AA?5?$AA?$DN?$AA?$DN?$AA?5?$AAc?$AAo?$AAl?$AAs?$AA?$CI?$AA?$CJ?$AA?$AA@ 0049fc8c     fluidsim.obj
 0003:00001cb8       ??_C@_1ME@EHDOADAP@?$AAc?$AA?3?$AA?2?$AAu?$AAs?$AAe?$AAr?$AAs?$AA?2?$AAl?$AAu?$AAc?$AAy?$AA?2?$AAd?$AAo?$AAc?$AAu?$AAm?$AAe?$AAn?$AAt?$AAs?$AA?2?$AAs?$AAc?$AAh?$AAo?$AAo?$AAl?$AA?2?$AA2@ 0049fcb8     fluidsim.obj
 0003:00001da8       ??_C@_1MM@KANBGJIL@?$AAc?$AA?3?$AA?2?$AAu?$AAs?$AAe?$AAr?$AAs?$AA?2?$AAl?$AAu?$AAc?$AAy?$AA?2?$AAd?$AAo?$AAc?$AAu?$AAm?$AAe?$AAn?$AAt?$AAs?$AA?2?$AAs?$AAc?$AAh?$AAo?$AAo?$AAl?$AA?2?$AA2@ 0049fda8     fluidsim.obj
 0003:00001ea0       ??_C@_1HC@DONMBPHG@?$AAa?$AAL?$AAh?$AAs?$AA?4?$AAr?$AAo?$AAw?$AAs?$AA?$CI?$AA?$CJ?$AA?5?$AA?$DN?$AA?$DN?$AA?5?$AAa?$AAR?$AAh?$AAs?$AA?4?$AAr?$AAo?$AAw?$AAs?$AA?$CI?$AA?$CJ?$AA?5?$AA?$CG?$AA?$CG?$AA?5?$AAa?$AAL@ 0049fea0     fluidsim.obj
 0003:00001f28       ??_C@_1LM@MPJGKKFA@?$AAc?$AA?3?$AA?2?$AAu?$AAs?$AAe?$AAr?$AAs?$AA?2?$AAl?$AAu?$AAc?$AAy?$AA?2?$AAd?$AAo?$AAc?$AAu?$AAm?$AAe?$AAn?$AAt?$AAs?$AA?2?$AAs?$AAc?$AAh?$AAo?$AAo?$AAl?$AA?2?$AA2@ 0049ff28     fluidsim.obj
 0003:00002010       ??_C@_1BCO@NFJGBHKC@?$AAa?$AA_?$AAs?$AAt?$AAa?$AAr?$AAt?$AAR?$AAo?$AAw?$AA?5?$AA?$DO?$AA?$DN?$AA?5?$AA0?$AA?5?$AA?$CG?$AA?$CG?$AA?5?$AAb?$AAl?$AAo?$AAc?$AAk?$AAR?$AAo?$AAw?$AAs?$AA?5?$AA?$DO?$AA?$DN?$AA?5@ 004a0010     fluidsim.obj
 0003:00002180       ??_C@_1BEO@BFPLGJIO@?$AA?$CI?$AAi?$AA?$DO?$AA?$DN?$AA0?$AA?$CJ?$AA?5?$AA?$CG?$AA?$CG?$AA?5?$AA?$CI?$AA?5?$AA?$CI?$AA?$CI?$AAB?$AAl?$AAo?$AAc?$AAk?$AAR?$AAo?$AAw?$AAs?$AA?$DN?$AA?$DN?$AA1?$AA?$CJ?$AA?5?$AA?$CG?$AA?$CG?$AA?5?$AA?$CI@ 004a0180     fluidsim.obj
 0003:00002310       ??_C@_1PK@MKJJNMFB@?$AA?$CI?$AAR?$AAo?$AAw?$AAs?$AAA?$AAt?$AAC?$AAo?$AAm?$AAp?$AAi?$AAl?$AAe?$AAT?$AAi?$AAm?$AAe?$AA?$DN?$AA?$DN?$AAD?$AAy?$AAn?$AAa?$AAm?$AAi?$AAc?$AA?5?$AA?$HM?$AA?$HM?$AA?5?$AAR@ 004a0310     fluidsim.obj
 0003:00002440       ??_C@_1MA@LHDIGJFD@?$AAc?$AA?3?$AA?2?$AAu?$AAs?$AAe?$AAr?$AAs?$AA?2?$AAl?$AAu?$AAc?$AAy?$AA?2?$AAd?$AAo?$AAc?$AAu?$AAm?$AAe?$AAn?$AAt?$AAs?$AA?2?$AAs?$AAc?$AAh?$AAo?$AAo?$AAl?$AA?2?$AA2@ 004a0440     fluidsim.obj
 0003:00002528       ??_C@_1BGE@MDFDAGNB@?$AA?$CI?$AAd?$AAa?$AAt?$AAa?$AAP?$AAt?$AAr?$AA?5?$AA?$DN?$AA?$DN?$AA?5?$AA0?$AA?$CJ?$AA?5?$AA?$HM?$AA?$HM?$AA?5?$AA?$CI?$AA?5?$AAn?$AAb?$AAR?$AAo?$AAw?$AAs?$AA?5?$AA?$DO?$AA?$DN?$AA?5?$AA0?$AA?5@ 004a0528     fluidsim.obj
 0003:000026d4       ??_C@_0BE@KCPLGAEB@data?5is?5not?5aligned?$AA@ 004a06d4     fluidsim.obj
 0003:000026f0       ??_C@_1NE@ONOBIOIF@?$AA?$CI?$AA?$CB?$AA?$CI?$AAi?$AAn?$AAt?$AAe?$AAr?$AAn?$AAa?$AAl?$AA?3?$AA?3?$AAt?$AAr?$AAa?$AAi?$AAt?$AAs?$AA?$DM?$AAD?$AAe?$AAr?$AAi?$AAv?$AAe?$AAd?$AA?$DO?$AA?3?$AA?3?$AAF?$AAl@ 004a06f0     fluidsim.obj
 0003:000027f0       ??_C@_1MO@IFBLBAHN@?$AAc?$AA?3?$AA?2?$AAu?$AAs?$AAe?$AAr?$AAs?$AA?2?$AAl?$AAu?$AAc?$AAy?$AA?2?$AAd?$AAo?$AAc?$AAu?$AAm?$AAe?$AAn?$AAt?$AAs?$AA?2?$AAs?$AAc?$AAh?$AAo?$AAo?$AAl?$AA?2?$AA2@ 004a07f0     fluidsim.obj
 0003:000028e8       ??_C@_1BM@PKEIKGEG@?$AAv?$AA?5?$AA?$DN?$AA?$DN?$AA?5?$AAT?$AA?$CI?$AAV?$AAa?$AAl?$AAu?$AAe?$AA?$CJ?$AA?$AA@ 004a08e8     fluidsim.obj
 0003:0000290c       ??_C@_0BH@MBKJFFGJ@invalid?5matrix?5product?$AA@ 004a090c     fluidsim.obj
 0003:00002928       ??_C@_0FC@LDDJKCDG@if?5you?5wanted?5a?5coeff?9wise?5or?5a?5@ 004a0928     fluidsim.obj
 0003:00002990       ??_C@_1OG@BEMAIAAO@?$AAc?$AA?3?$AA?2?$AAu?$AAs?$AAe?$AAr?$AAs?$AA?2?$AAl?$AAu?$AAc?$AAy?$AA?2?$AAd?$AAo?$AAc?$AAu?$AAm?$AAe?$AAn?$AAt?$AAs?$AA?2?$AAs?$AAc?$AAh?$AAo?$AAo?$AAl?$AA?2?$AA2@ 004a0990     fluidsim.obj
 0003:00002aa8       ??_C@_1BBI@CNLEDIFK@?$AAl?$AAh?$AAs?$AA?4?$AAc?$AAo?$AAl?$AAs?$AA?$CI?$AA?$CJ?$AA?5?$AA?$DN?$AA?$DN?$AA?5?$AAr?$AAh?$AAs?$AA?4?$AAr?$AAo?$AAw?$AAs?$AA?$CI?$AA?$CJ?$AA?5?$AA?$CG?$AA?$CG?$AA?5?$AA?$CC?$AAi?$AAn?$AAv@ 004a0aa8     fluidsim.obj
 0003:00002bf8       ??_C@_1CO@NCKMMJIE@?$AAr?$AAo?$AAw?$AAs?$AA?5?$AA?$DO?$AA?$DN?$AA?5?$AA0?$AA?5?$AA?$CG?$AA?$CG?$AA?5?$AAc?$AAo?$AAl?$AAs?$AA?5?$AA?$DO?$AA?$DN?$AA?5?$AA0?$AA?$AA@ 004a0bf8     fluidsim.obj
 0003:00002c30       ??_C@_0DC@LOMIADAP@JacobiSVD?3?5you?5can?8t?5ask?5for?5bot@ 004a0c30     fluidsim.obj
 0003:00002c70       ??_C@_1LG@HAIHOPH@?$AA?$CB?$AA?$CI?$AAm?$AA_?$AAc?$AAo?$AAm?$AAp?$AAu?$AAt?$AAe?$AAF?$AAu?$AAl?$AAl?$AAU?$AA?5?$AA?$CG?$AA?$CG?$AA?5?$AAm?$AA_?$AAc?$AAo?$AAm?$AAp?$AAu?$AAt?$AAe?$AAT?$AAh?$AAi@ 004a0c70     fluidsim.obj
 0003:00002d4c       ??_C@_0DC@JFOFFAMM@JacobiSVD?3?5you?5can?8t?5ask?5for?5bot@ 004a0d4c     fluidsim.obj
 0003:00002d88       ??_C@_1LG@OICONPPD@?$AA?$CB?$AA?$CI?$AAm?$AA_?$AAc?$AAo?$AAm?$AAp?$AAu?$AAt?$AAe?$AAF?$AAu?$AAl?$AAl?$AAV?$AA?5?$AA?$CG?$AA?$CG?$AA?5?$AAm?$AA_?$AAc?$AAo?$AAm?$AAp?$AAu?$AAt?$AAe?$AAT?$AAh?$AAi@ 004a0d88     fluidsim.obj
 0003:00002e68       ??_C@_0FN@BAECALOE@JacobiSVD?3?5thin?5U?5and?5V?5are?5only@ 004a0e68     fluidsim.obj
 0003:00002ed8       ??_C@_1BGI@BKCDDOON@?$AA?$CI?$AA?$CB?$AA?$CI?$AAm?$AA_?$AAc?$AAo?$AAm?$AAp?$AAu?$AAt?$AAe?$AAT?$AAh?$AAi?$AAn?$AAU?$AA?5?$AA?$HM?$AA?$HM?$AA?5?$AAm?$AA_?$AAc?$AAo?$AAm?$AAp?$AAu?$AAt?$AAe?$AAT?$AAh@ 004a0ed8     fluidsim.obj
 0003:00003088       ??_C@_0IM@GNBMJONG@JacobiSVD?3?5can?8t?5compute?5thin?5U?5@ 004a1088     fluidsim.obj
 0003:00003130       ??_C@_1BHA@BMDJCBDI@?$AA?$CB?$AA?$CI?$AAm?$AA_?$AAc?$AAo?$AAm?$AAp?$AAu?$AAt?$AAe?$AAT?$AAh?$AAi?$AAn?$AAU?$AA?5?$AA?$HM?$AA?$HM?$AA?5?$AAm?$AA_?$AAc?$AAo?$AAm?$AAp?$AAu?$AAt?$AAe?$AAT?$AAh?$AAi@ 004a1130     fluidsim.obj
 0003:000032ec       ??_C@_0CP@LINCKCAG@Invalid?5sizes?5when?5resizing?5a?5ma@ 004a12ec     fluidsim.obj
 0003:00003328       ??_C@_1NA@CBLPPPNA@?$AAc?$AA?3?$AA?2?$AAu?$AAs?$AAe?$AAr?$AAs?$AA?2?$AAl?$AAu?$AAc?$AAy?$AA?2?$AAd?$AAo?$AAc?$AAu?$AAm?$AAe?$AAn?$AAt?$AAs?$AA?2?$AAs?$AAc?$AAh?$AAo?$AAo?$AAl?$AA?2?$AA2@ 004a1328     fluidsim.obj
 0003:00003428       ??_C@_1DDG@BMAHIJFL@?$AA?$CI?$AA?$CB?$AA?$CI?$AAR?$AAo?$AAw?$AAs?$AAA?$AAt?$AAC?$AAo?$AAm?$AAp?$AAi?$AAl?$AAe?$AAT?$AAi?$AAm?$AAe?$AA?$CB?$AA?$DN?$AAD?$AAy?$AAn?$AAa?$AAm?$AAi?$AAc?$AA?$CJ?$AA?5?$AA?$HM@ 004a1428     fluidsim.obj
 0003:00003808       ??_C@_1MO@PAAKCIPL@?$AAc?$AA?3?$AA?2?$AAu?$AAs?$AAe?$AAr?$AAs?$AA?2?$AAl?$AAu?$AAc?$AAy?$AA?2?$AAd?$AAo?$AAc?$AAu?$AAm?$AAe?$AAn?$AAt?$AAs?$AA?2?$AAs?$AAc?$AAh?$AAo?$AAo?$AAl?$AA?2?$AA2@ 004a1808     fluidsim.obj
 0003:00003900       ??_C@_1BDK@EFDGPJJE@?$AAn?$AAb?$AAR?$AAo?$AAw?$AAs?$AA?5?$AA?$DO?$AA?$DN?$AA?5?$AA0?$AA?5?$AA?$CG?$AA?$CG?$AA?5?$AA?$CI?$AAR?$AAo?$AAw?$AAs?$AAA?$AAt?$AAC?$AAo?$AAm?$AAp?$AAi?$AAl?$AAe?$AAT?$AAi?$AAm@ 004a1900     fluidsim.obj
 0003:00003a78       ??_C@_1BBE@FLFGDPIJ@?$AA?$CI?$AA?$CI?$AAS?$AAi?$AAz?$AAe?$AAA?$AAt?$AAC?$AAo?$AAm?$AAp?$AAi?$AAl?$AAe?$AAT?$AAi?$AAm?$AAe?$AA?5?$AA?$DN?$AA?$DN?$AA?5?$AAD?$AAy?$AAn?$AAa?$AAm?$AAi?$AAc?$AA?5?$AA?$CG@ 004a1a78     fluidsim.obj
 0003:00003bc4       ??_C@_0DH@DBPBIBJB@Too?5many?5rows?5passed?5to?5comma?5in@ 004a1bc4     fluidsim.obj
 0003:00003c08       ??_C@_1NC@LNAEILP@?$AAc?$AA?3?$AA?2?$AAu?$AAs?$AAe?$AAr?$AAs?$AA?2?$AAl?$AAu?$AAc?$AAy?$AA?2?$AAd?$AAo?$AAc?$AAu?$AAm?$AAe?$AAn?$AAt?$AAs?$AA?2?$AAs?$AAc?$AAh?$AAo?$AAo?$AAl?$AA?2?$AA2@ 004a1c08     fluidsim.obj
 0003:00003d08       ??_C@_1JO@COLKMBP@?$AAm?$AA_?$AAr?$AAo?$AAw?$AA?$DM?$AAm?$AA_?$AAx?$AAp?$AAr?$AA?4?$AAr?$AAo?$AAw?$AAs?$AA?$CI?$AA?$CJ?$AA?5?$AA?$CG?$AA?$CG?$AA?5?$AA?$CC?$AAT?$AAo?$AAo?$AA?5?$AAm?$AAa?$AAn?$AAy?$AA?5@ 004a1d08     fluidsim.obj
 0003:00003dc8       ??_C@_0DP@NAFKKEON@Too?5many?5coefficients?5passed?5to?5@ 004a1dc8     fluidsim.obj
 0003:00003e18       ??_C@_1KO@ELNGHBNO@?$AAm?$AA_?$AAc?$AAo?$AAl?$AA?$DM?$AAm?$AA_?$AAx?$AAp?$AAr?$AA?4?$AAc?$AAo?$AAl?$AAs?$AA?$CI?$AA?$CJ?$AA?5?$AA?$CG?$AA?$CG?$AA?5?$AA?$CC?$AAT?$AAo?$AAo?$AA?5?$AAm?$AAa?$AAn?$AAy?$AA?5@ 004a1e18     fluidsim.obj
 0003:00003ee8       ??_C@_1CM@ODPPMHME@?$AAm?$AA_?$AAc?$AAu?$AAr?$AAr?$AAe?$AAn?$AAt?$AAB?$AAl?$AAo?$AAc?$AAk?$AAR?$AAo?$AAw?$AAs?$AA?$DN?$AA?$DN?$AA1?$AA?$AA@ 004a1ee8     fluidsim.obj
 0003:00003f1c       ??_C@_0DO@KLMGOMCP@Too?5few?5coefficients?5passed?5to?5c@ 004a1f1c     fluidsim.obj
 0003:00003f68       ??_C@_1BAO@COLILOMO@?$AA?$CI?$AAm?$AA_?$AAr?$AAo?$AAw?$AA?$CL?$AAm?$AA_?$AAc?$AAu?$AAr?$AAr?$AAe?$AAn?$AAt?$AAB?$AAl?$AAo?$AAc?$AAk?$AAR?$AAo?$AAw?$AAs?$AA?$CJ?$AA?5?$AA?$DN?$AA?$DN?$AA?5?$AAm?$AA_@ 004a1f68     fluidsim.obj
 0003:000040b0       ??_C@_0IO@MMJGGOKG@this?5assertion?5is?5explained?5here@ 004a20b0     fluidsim.obj
 0003:00004160       ??_C@_1MK@FPADFJDO@?$AAc?$AA?3?$AA?2?$AAu?$AAs?$AAe?$AAr?$AAs?$AA?2?$AAl?$AAu?$AAc?$AAy?$AA?2?$AAd?$AAo?$AAc?$AAu?$AAm?$AAe?$AAn?$AAt?$AAs?$AA?2?$AAs?$AAc?$AAh?$AAo?$AAo?$AAl?$AA?2?$AA2@ 004a2160     fluidsim.obj
 0003:00004258       ??_C@_1BIM@JPMPBING@?$AA?$CI?$AAr?$AAe?$AAi?$AAn?$AAt?$AAe?$AAr?$AAp?$AAr?$AAe?$AAt?$AA_?$AAc?$AAa?$AAs?$AAt?$AA?$DM?$AAs?$AAi?$AAz?$AAe?$AA_?$AAt?$AA?$DO?$AA?$CI?$AAa?$AAr?$AAr?$AAa?$AAy?$AA?$CJ@ 004a2258     fluidsim.obj
 0003:00004438       ??_C@_1MC@LEEJGBAN@?$AAc?$AA?3?$AA?2?$AAu?$AAs?$AAe?$AAr?$AAs?$AA?2?$AAl?$AAu?$AAc?$AAy?$AA?2?$AAd?$AAo?$AAc?$AAu?$AAm?$AAe?$AAn?$AAt?$AAs?$AA?2?$AAs?$AAc?$AAh?$AAo?$AAo?$AAl?$AA?2?$AA2@ 004a2438     fluidsim.obj
 0003:00004520       ??_C@_1CO@KCHFDBGK@?$AA_?$AAx?$AA?4?$AAs?$AAi?$AAz?$AAe?$AA?$CI?$AA?$CJ?$AA?5?$AA?$DN?$AA?$DN?$AA?5?$AA_?$AAy?$AA?4?$AAs?$AAi?$AAz?$AAe?$AA?$CI?$AA?$CJ?$AA?$AA@ 004a2520     fluidsim.obj
 0003:00004558       ??_C@_1LO@LMLBANCM@?$AAc?$AA?3?$AA?2?$AAu?$AAs?$AAe?$AAr?$AAs?$AA?2?$AAl?$AAu?$AAc?$AAy?$AA?2?$AAd?$AAo?$AAc?$AAu?$AAm?$AAe?$AAn?$AAt?$AAs?$AA?2?$AAs?$AAc?$AAh?$AAo?$AAo?$AAl?$AA?2?$AA2@ 004a2558     fluidsim.obj
 0003:00004640       ??_C@_1GC@PBCDNLIH@?$AAr?$AAo?$AAw?$AAs?$AA?$CI?$AA?$CJ?$AA?5?$AA?$DN?$AA?$DN?$AA?5?$AAo?$AAt?$AAh?$AAe?$AAr?$AA?4?$AAr?$AAo?$AAw?$AAs?$AA?$CI?$AA?$CJ?$AA?5?$AA?$CG?$AA?$CG?$AA?5?$AAc?$AAo?$AAl?$AAs?$AA?$CI?$AA?$CJ@ 004a2640     fluidsim.obj
 0003:000046b8       ??_C@_1NE@JCEBKHFG@?$AAc?$AA?3?$AA?2?$AAu?$AAs?$AAe?$AAr?$AAs?$AA?2?$AAl?$AAu?$AAc?$AAy?$AA?2?$AAd?$AAo?$AAc?$AAu?$AAm?$AAe?$AAn?$AAt?$AAs?$AA?2?$AAs?$AAc?$AAh?$AAo?$AAo?$AAl?$AA?2?$AA2@ 004a26b8     fluidsim.obj
 0003:000047b8       ??_C@_1FK@JAKLMIFJ@?$AAr?$AAo?$AAw?$AAs?$AA?$CI?$AA?$CJ?$AA?5?$AA?$DN?$AA?$DN?$AA?5?$AAr?$AAh?$AAs?$AA?4?$AAr?$AAo?$AAw?$AAs?$AA?$CI?$AA?$CJ?$AA?5?$AA?$CG?$AA?$CG?$AA?5?$AAc?$AAo?$AAl?$AAs?$AA?$CI?$AA?$CJ?$AA?5?$AA?$DN@ 004a27b8     fluidsim.obj
 0003:00004828       ??_C@_1EO@NAOGFKEJ@?$AAo?$AAt?$AAh?$AAe?$AAr?$AA?4?$AAr?$AAo?$AAw?$AAs?$AA?$CI?$AA?$CJ?$AA?5?$AA?$DN?$AA?$DN?$AA?5?$AA1?$AA?5?$AA?$HM?$AA?$HM?$AA?5?$AAo?$AAt?$AAh?$AAe?$AAr?$AA?4?$AAc?$AAo?$AAl?$AAs?$AA?$CI@ 004a2828     fluidsim.obj
 0003:00004888       ??_C@_0EO@KIMLJJ@Aliasing?5problem?5detected?5in?5inv@ 004a2888     fluidsim.obj
 0003:000048e8       ??_C@_1BDG@PALLELAC@?$AA?$CI?$AA?5?$AA?$CI?$AAS?$AAi?$AAz?$AAe?$AA?$DM?$AA?$DN?$AA1?$AA?$CJ?$AA?5?$AA?$HM?$AA?$HM?$AA?5?$AA?$CI?$AAS?$AAi?$AAz?$AAe?$AA?$DO?$AA4?$AA?$CJ?$AA?5?$AA?$HM?$AA?$HM?$AA?5?$AA?$CI?$AAe?$AAx?$AAt?$AAr@ 004a28e8     fluidsim.obj
 0003:00004a60       ??_C@_0HC@FBBJGPCH@aliasing?5detected?5during?5transpo@ 004a2a60     fluidsim.obj
 0003:00004ae8       ??_C@_1ME@BKLKJHDP@?$AAc?$AA?3?$AA?2?$AAu?$AAs?$AAe?$AAr?$AAs?$AA?2?$AAl?$AAu?$AAc?$AAy?$AA?2?$AAd?$AAo?$AAc?$AAu?$AAm?$AAe?$AAn?$AAt?$AAs?$AA?2?$AAs?$AAc?$AAh?$AAo?$AAo?$AAl?$AA?2?$AA2@ 004a2ae8     fluidsim.obj
 0003:00004bd8       ??_C@_1CCG@OOFKGNBC@?$AA?$CI?$AA?$CB?$AAc?$AAh?$AAe?$AAc?$AAk?$AA_?$AAt?$AAr?$AAa?$AAn?$AAs?$AAp?$AAo?$AAs?$AAe?$AA_?$AAa?$AAl?$AAi?$AAa?$AAs?$AAi?$AAn?$AAg?$AA_?$AAr?$AAu?$AAn?$AA_?$AAt@ 004a2bd8     fluidsim.obj
 0003:00004e6c       __real@00000000            004a2e6c     fluidsim.obj
 0003:00004e70       __real@34000000            004a2e70     fluidsim.obj
 0003:00004e74       __real@358637bd            004a2e74     fluidsim.obj
 0003:00004e78       __real@3eaaaaab            004a2e78     fluidsim.obj
 0003:00004e7c       __real@3f000000            004a2e7c     fluidsim.obj
 0003:00004e80       __real@3f800000            004a2e80     fluidsim.obj
 0003:00004e88       __real@3fe0000000000000    004a2e88     fluidsim.obj
 0003:00004e98       __real@3fe5555555555555    004a2e98     fluidsim.obj
 0003:00004ea8       __real@3ff5555555555555    004a2ea8     fluidsim.obj
 0003:00004eb4       __real@40000000            004a2eb4     fluidsim.obj
 0003:00004eb8       __real@400921fb54442eea    004a2eb8     fluidsim.obj
 0003:00004ec8       __real@40239eb851eb851f    004a2ec8     fluidsim.obj
 0003:00004ed4       __real@40400000            004a2ed4     fluidsim.obj
 0003:00004ed8       __real@40800000            004a2ed8     fluidsim.obj
 0003:00004edc       __real@40c00000            004a2edc     fluidsim.obj
 0003:00004ee0       __real@4f800000            004a2ee0     fluidsim.obj
 0003:00004ee4       __real@bf800000            004a2ee4     fluidsim.obj
 0003:00004ef0       __xmm@41f00000000000000000000000000000 004a2ef0     fluidsim.obj
 0003:00004f10       __xmm@80000000800000008000000080000000 004a2f10     fluidsim.obj
 0003:00004f28       ??_7Camera@Gluvi@@6B@      004a2f28     gluvi.obj
 0003:00004f50       ??_7Target3D@Gluvi@@6B@    004a2f50     gluvi.obj
 0003:00004f78       ??_7TargetOrtho3D@Gluvi@@6B@ 004a2f78     gluvi.obj
 0003:00004fa0       ??_7PanZoom2D@Gluvi@@6B@   004a2fa0     gluvi.obj
 0003:00004fc8       ??_7Widget@Gluvi@@6B@      004a2fc8     gluvi.obj
 0003:00004fe0       ??_7StaticText@Gluvi@@6B@  004a2fe0     gluvi.obj
 0003:00004ff8       ??_7Button@Gluvi@@6B@      004a2ff8     gluvi.obj
 0003:00005014       ??_7Slider@Gluvi@@6B@      004a3014     gluvi.obj
 0003:00005030       ??_7WidgetList@Gluvi@@6B@  004a3030     gluvi.obj
 0003:00005044       ??_C@_09GMIGFDOL@Clipping?5?$AA@ 004a3044     gluvi.obj
 0003:00005050       ??_C@_0CA@KCJKHBLK@Projection?5?$CCperspective?$CC?5?$CCfov?$CC?5?$AA@ 004a3050     gluvi.obj
 0003:00005078       ??_C@_0BD@JEHAHFOO@ReverseOrientation?$AA@ 004a3078     gluvi.obj
 0003:00005090       ??_C@_0N@GNAHBAFI@Scale?51?51?5?91?$AA@ 004a3090     gluvi.obj
 0003:000050a0       ??_C@_0P@JEAJNMBD@Translate?50?50?5?$AA@ 004a30a0     gluvi.obj
 0003:000050b4       ??_C@_06LEOJGKKD@?51?50?50?$AA@ 004a30b4     gluvi.obj
 0003:000050bc       ??_C@_07PLAEODKJ@Rotate?5?$AA@ 004a30bc     gluvi.obj
 0003:000050c8       ??_C@_06MHAJNOGD@?50?51?50?$AA@ 004a30c8     gluvi.obj
 0003:000050d0       ??_C@_0L@BJPLNDLG@Translate?5?$AA@ 004a30d0     gluvi.obj
 0003:000050e0       ??_C@_0BK@CPNOIOK@Projection?5?$CCorthographic?$CC?$AA@ 004a30e0     gluvi.obj
 0003:00005100       ??_C@_0BA@FDJAOOAN@Clipping?51?52000?$AA@ 004a3100     gluvi.obj
 0003:00005114       ??_C@_02POKOGHLP@?51?$AA@  004a3114     gluvi.obj
 0003:00005118       ??_C@_06PAPEJFHA@Scale?5?$AA@ 004a3118     gluvi.obj
 0003:00005120       ??_C@_05NONGOBJO@?51000?$AA@ 004a3120     gluvi.obj
 0003:00005128       ??_C@_05INMKHHOO@?5255?6?$AA@ 004a3128     gluvi.obj
 0003:00005130       ??_C@_03MPLPFOOJ@P6?6?$AA@ 004a3130     gluvi.obj
 0003:00005138       __real@0000000000000000    004a3138     gluvi.obj
 0003:00005144       __real@3e4ccccd            004a3144     gluvi.obj
 0003:00005148       __real@3e99999a            004a3148     gluvi.obj
 0003:0000514c       __real@3ecccccd            004a314c     gluvi.obj
 0003:00005150       __real@3f333333            004a3150     gluvi.obj
 0003:00005154       __real@3f3504f3            004a3154     gluvi.obj
 0003:00005158       __real@3f4ccccd            004a3158     gluvi.obj
 0003:00005160       __real@3f60624dd2f1a9fc    004a3160     gluvi.obj
 0003:00005170       __real@3f7cac083126e979    004a3170     gluvi.obj
 0003:00005180       __real@3f9eb851eb851eb8    004a3180     gluvi.obj
 0003:0000518c       __real@3fb504f3            004a318c     gluvi.obj
 0003:00005190       __real@3fb999999999999a    004a3190     gluvi.obj
 0003:0000519c       __real@3fc90fdb            004a319c     gluvi.obj
 0003:000051a0       __real@3fe6666666666666    004a31a0     gluvi.obj
 0003:000051b0       __real@3feccccccccccccd    004a31b0     gluvi.obj
 0003:000051c0       __real@3ff0000000000000    004a31c0     gluvi.obj
 0003:000051d0       __real@3ff028f5c28f5c29    004a31d0     gluvi.obj
 0003:000051e0       __real@3ff921fb60000000    004a31e0     gluvi.obj
 0003:000051f0       __real@4000000000000000    004a31f0     gluvi.obj
 0003:000051fc       __real@40490fdb            004a31fc     gluvi.obj
 0003:00005200       __real@40c90fdb            004a3200     gluvi.obj
 0003:00005204       __real@42000000            004a3204     gluvi.obj
 0003:00005208       __real@bfc90fdb            004a3208     gluvi.obj
 0003:00005210       __real@bff921fb60000000    004a3210     gluvi.obj
 0003:0000521c       __real@c0490fdb            004a321c     gluvi.obj
 0003:00005220       __real@c2652ee0            004a3220     gluvi.obj
 0003:00005230       __xmm@80000000000000008000000000000000 004a3230     gluvi.obj
 0003:00005244       __real@3e800000            004a3244     levelset_util.obj
 0003:00005248       ??_C@_07LOFHFAIJ@frame?50?$AA@ 004a3248     main.obj
 0003:00005254       ??_C@_0BD@LHLCIPIK@Liquid?5Data?5Viewer?$AA@ 004a3254     main.obj
 0003:0000526c       ??_C@_0BF@NGLLGBDB@Not?5enough?5arguments?$AA@ 004a326c     main.obj
 0003:00005288       ??_C@_0BD@IFKPDKDM@Initializing?5data?6?$AA@ 004a3288     main.obj
 0003:000052a0       ??_C@_0BH@COCHMIOB@Initializing?5boundary?6?$AA@ 004a32a0     main.obj
 0003:000052bc       ??_C@_0BF@MPKADFK@Initializing?5liquid?6?$AA@ 004a32bc     main.obj
 0003:000052d8       ??_C@_0BP@KEBFBCKB@?9?9?9?9?9?9?9?9?9?9?9?9?9?9?9?9?9?9?9?9?6Frame?5?$CFd?6?$AA@ 004a32d8     main.obj
 0003:00005300       ??_C@_0BD@PCLJPBBE@Simulating?5liquid?6?$AA@ 004a3300     main.obj
 0003:00005318       ??_C@_0BG@HAMJGJHN@output?1fluid_?$CF03d?4png?$AA@ 004a3318     main.obj
 0003:00005334       ??_C@_04LCMACLFG@?4txt?$AA@ 004a3334     main.obj
 0003:0000533c       ??_C@_0L@JNAHJLK@particles_?$AA@ 004a333c     main.obj
 0003:00005350       __real@39b4484bfeebc2a0    004a3350     main.obj
 0003:0000535c       __real@3c23d70a            004a335c     main.obj
 0003:00005360       __real@3d719799812dea11    004a3360     main.obj
 0003:0000536c       __real@3dcccccd            004a336c     main.obj
 0003:00005370       __real@3e6b851f            004a3370     main.obj
 0003:00005374       __real@3f0ccccd            004a3374     main.obj
 0003:00005378       __real@3fd0000000000000    004a3378     main.obj
 0003:00005388       __real@3fef0a3d70a3d70a    004a3388     main.obj
 0003:00005394       __real@42340000            004a3394     main.obj
 0003:00005398       __real@42c80000            004a3398     main.obj
 0003:000053a0       ??_C@_1LC@GIGDBEPA@?$AAc?$AA?3?$AA?2?$AAu?$AAs?$AAe?$AAr?$AAs?$AA?2?$AAl?$AAu?$AAc?$AAy?$AA?2?$AAd?$AAo?$AAc?$AAu?$AAm?$AAe?$AAn?$AAt?$AAs?$AA?2?$AAs?$AAc?$AAh?$AAo?$AAo?$AAl?$AA?2?$AA2@ 004a33a0     makelevelset3.obj
 0003:00005478       ??_C@_1O@FNKJOHJI@?$AAs?$AAu?$AAm?$AA?$CB?$AA?$DN?$AA0?$AA?$AA@ 004a3478     makelevelset3.obj
 0003:00005488       __real@0da24260            004a3488     makelevelset3.obj
 0003:00005490       ??_C@_1LM@JIEIMLN@?$AAc?$AA?3?$AA?2?$AAu?$AAs?$AAe?$AAr?$AAs?$AA?2?$AAl?$AAu?$AAc?$AAy?$AA?2?$AAd?$AAo?$AAc?$AAu?$AAm?$AAe?$AAn?$AAt?$AAs?$AA?2?$AAs?$AAc?$AAh?$AAo?$AAo?$AAl?$AA?2?$AA2@ 004a3490     obj.obj
 0003:00005574       ??_C@_1CG@KOFHLCJL@?$AAi?$AA?5?$AA?$DM?$AA?5?$AAt?$AAh?$AAi?$AAs?$AA?9?$AA?$DO?$AAl?$AAe?$AAn?$AAg?$AAt?$AAh?$AA?$CI?$AA?$CJ?$AA?$AA@ 004a3574     obj.obj
 0003:000055a8       ??_C@_1LM@HNBMGFDC@?$AAc?$AA?3?$AA?2?$AAu?$AAs?$AAe?$AAr?$AAs?$AA?2?$AAl?$AAu?$AAc?$AAy?$AA?2?$AAd?$AAo?$AAc?$AAu?$AAm?$AAe?$AAn?$AAt?$AAs?$AA?2?$AAs?$AAc?$AAh?$AAo?$AAo?$AAl?$AA?2?$AA2@ 004a35a8     obj.obj
 0003:00005690       __real@3cb0000000000000    004a3690     obj.obj
 0003:000056a0       __real@3fd999999999999a    004a36a0     obj.obj
 0003:000056ac       ??_C@_0BD@BBFNGCEC@Loading?5OBJ?5File?3?5?$AA@ 004a36ac     objloader.obj
 0003:000056c4       ??_C@_02MOKMDPNA@42?$AA@   004a36c4     objloader.obj
 0003:000056cc       ??_7?$basic_istringstream@DU?$char_traits@D@std@@V?$allocator@D@2@@std@@6B@ 004a36cc     objloader.obj
 0003:000056dc       ??_8?$basic_istringstream@DU?$char_traits@D@std@@V?$allocator@D@2@@std@@7B@ 004a36dc     objloader.obj
 0003:000056e8       ??_C@_02CBLDBPFN@?1?1?$AA@ 004a36e8     objloader.obj
 0003:000056ec       ??_C@_01KMDKNFGN@?1?$AA@   004a36ec     objloader.obj
 0003:000056f0       ??_C@_0BA@NEOJOLCP@?5vertices?5from?5?$AA@ 004a36f0     objloader.obj
 0003:00005704       ??_C@_08KCKJJGAC@?5faces?0?5?$AA@ 004a3704     objloader.obj
 0003:00005710       ??_C@_07OAKJIGCF@Loaded?5?$AA@ 004a3710     objloader.obj
 0003:0000571c       ??_C@_0BE@GIEHENJH@?5could?5not?5be?5found?$AA@ 004a371c     objloader.obj
 0003:00005734       ??_C@_07JHDPBCI@ERROR?3?5?$AA@ 004a3734     objloader.obj
 0003:00005740       ??_C@_0BD@CBEDEJPH@unknown?5image?5type?$AA@ 004a3740     stb_image.obj
 0003:00005758       ??_C@_02JDPG@rb?$AA@       004a3758     stb_image.obj
 0003:0000575c       ??_C@_0M@JPDHFAGK@can?8t?5fopen?$AA@ 004a375c     stb_image.obj
 0003:00005770       ??_C@_1KG@PHMFJDOM@?$AAc?$AA?3?$AA?2?$AAu?$AAs?$AAe?$AAr?$AAs?$AA?2?$AAl?$AAu?$AAc?$AAy?$AA?2?$AAd?$AAo?$AAc?$AAu?$AAm?$AAe?$AAn?$AAt?$AAs?$AA?2?$AAs?$AAc?$AAh?$AAo?$AAo?$AAl?$AA?2?$AA2@ 004a3770     stb_image.obj
 0003:00005838       ??_C@_1DO@MABJBNAJ@?$AAr?$AAe?$AAq?$AA_?$AAc?$AAo?$AAm?$AAp?$AA?5?$AA?$DO?$AA?$DN?$AA?5?$AA1?$AA?5?$AA?$CG?$AA?$CG?$AA?5?$AAr?$AAe?$AAq?$AA_?$AAc?$AAo?$AAm?$AAp?$AA?5?$AA?$DM?$AA?$DN?$AA?5?$AA4?$AA?$AA@ 004a3838     stb_image.obj
 0003:00005884       ??_C@_08NOGIMCHF@outofmem?$AA@ 004a3884     stb_image.obj
 0003:00005890       ??_C@_13COJANIEC@?$AA0?$AA?$AA@ 004a3890     stb_image.obj
 0003:00005894       ??_C@_0BB@FOKGPEKG@bad?5code?5lengths?$AA@ 004a3894     stb_image.obj
 0003:000058a8       ??_C@_1JI@MDNABHL@?$AA?$CI?$AA?$CI?$AA?$CI?$AAj?$AA?9?$AA?$DO?$AAc?$AAo?$AAd?$AAe?$AA_?$AAb?$AAu?$AAf?$AAf?$AAe?$AAr?$AA?$CJ?$AA?5?$AA?$DO?$AA?$DO?$AA?5?$AA?$CI?$AA3?$AA2?$AA?5?$AA?9?$AA?5?$AAh?$AA?9?$AA?$DO?$AAs@ 004a38a8     stb_image.obj
 0003:00005960       ??_C@_0BB@IIMLINA@bad?5huffman?5code?$AA@ 004a3960     stb_image.obj
 0003:00005974       ??_C@_0BA@KLNDOKJD@expected?5marker?$AA@ 004a3974     stb_image.obj
 0003:00005988       ??_C@_0BB@HNODNPCF@progressive?5jpeg?$AA@ 004a3988     stb_image.obj
 0003:0000599c       ??_C@_0M@LPHNODCG@bad?5DRI?5len?$AA@ 004a399c     stb_image.obj
 0003:000059ac       ??_C@_0N@BOFJCHAP@bad?5DQT?5type?$AA@ 004a39ac     stb_image.obj
 0003:000059bc       ??_C@_0O@CNHKKDIM@bad?5DQT?5table?$AA@ 004a39bc     stb_image.obj
 0003:000059cc       ??_C@_0P@JLGKOCGN@bad?5DHT?5header?$AA@ 004a39cc     stb_image.obj
 0003:000059e0       ??_C@_0BI@DHFJCMBA@bad?5SOS?5component?5count?$AA@ 004a39e0     stb_image.obj
 0003:000059fc       ??_C@_0M@GNEHAHOH@bad?5SOS?5len?$AA@ 004a39fc     stb_image.obj
 0003:00005a0c       ??_C@_0M@NOCCBFAC@bad?5DC?5huff?$AA@ 004a3a0c     stb_image.obj
 0003:00005a1c       ??_C@_0M@JGMCBLGG@bad?5AC?5huff?$AA@ 004a3a1c     stb_image.obj
 0003:00005a2c       ??_C@_07EEJOMGGP@bad?5SOS?$AA@ 004a3a2c     stb_image.obj
 0003:00005a38       ??_C@_0M@DOFMJEMP@bad?5SOF?5len?$AA@ 004a3a38     stb_image.obj
 0003:00005a48       ??_C@_0L@BCINMEBJ@only?58?9bit?$AA@ 004a3a48     stb_image.obj
 0003:00005a58       ??_C@_0BB@LNEGOMA@no?5header?5height?$AA@ 004a3a58     stb_image.obj
 0003:00005a6c       ??_C@_07BIDACDEF@0?5width?$AA@ 004a3a6c     stb_image.obj
 0003:00005a78       ??_C@_0BE@DAPHADHL@bad?5component?5count?$AA@ 004a3a78     stb_image.obj
 0003:00005a90       ??_C@_0BB@GNMFLCGA@bad?5component?5ID?$AA@ 004a3a90     stb_image.obj
 0003:00005aa4       ??_C@_05BLPKENEJ@bad?5H?$AA@ 004a3aa4     stb_image.obj
 0003:00005aac       ??_C@_05MPLLHCJG@bad?5V?$AA@ 004a3aac     stb_image.obj
 0003:00005ab4       ??_C@_06LJIHDFHI@bad?5TQ?$AA@ 004a3ab4     stb_image.obj
 0003:00005abc       ??_C@_09OJDLMMBJ@too?5large?$AA@ 004a3abc     stb_image.obj
 0003:00005ac8       ??_C@_06CLMBLEP@no?5SOI?$AA@ 004a3ac8     stb_image.obj
 0003:00005ad0       ??_C@_06IFCEAHIA@no?5SOF?$AA@ 004a3ad0     stb_image.obj
 0003:00005ad8       ??_C@_0N@KBPNPPBJ@bad?5req_comp?$AA@ 004a3ad8     stb_image.obj
 0003:00005ae8       ??_C@_1BG@HKNLHECB@?$AAb?$AAi?$AAt?$AAs?$AA?5?$AA?$DM?$AA?$DN?$AA?5?$AA1?$AA6?$AA?$AA@ 004a3ae8     stb_image.obj
 0003:00005b04       ??_C@_1CK@MCBKMNC@?$AAs?$AAi?$AAz?$AAe?$AAs?$AA?$FL?$AAi?$AA?$FN?$AA?5?$AA?$DM?$AA?$DN?$AA?5?$AA?$CI?$AA1?$AA?5?$AA?$DM?$AA?$DM?$AA?5?$AAi?$AA?$CJ?$AA?$AA@ 004a3b04     stb_image.obj
 0003:00005b38       ??_C@_0BA@MDNKOBMC@bad?5codelengths?$AA@ 004a3b38     stb_image.obj
 0003:00005b50       ??_C@_1EK@GAHNONBJ@?$AAz?$AA?9?$AA?$DO?$AAc?$AAo?$AAd?$AAe?$AA_?$AAb?$AAu?$AAf?$AAf?$AAe?$AAr?$AA?5?$AA?$DM?$AA?5?$AA?$CI?$AA1?$AAU?$AA?5?$AA?$DM?$AA?$DM?$AA?5?$AAz?$AA?9?$AA?$DO?$AAn?$AAu?$AAm?$AA_?$AAb@ 004a3b50     stb_image.obj
 0003:00005ba8       ??_C@_1CA@BMLMNMFI@?$AAz?$AA?9?$AA?$DO?$AAs?$AAi?$AAz?$AAe?$AA?$FL?$AAb?$AA?$FN?$AA?5?$AA?$DN?$AA?$DN?$AA?5?$AAs?$AA?$AA@ 004a3ba8     stb_image.obj
 0003:00005bd0       ??_C@_0BE@IBFIPFO@output?5buffer?5limit?$AA@ 004a3bd0     stb_image.obj
 0003:00005be8       ??_C@_08DIAPIMGJ@bad?5dist?$AA@ 004a3be8     stb_image.obj
 0003:00005bf4       ??_C@_1CC@EODPGILL@?$AAc?$AA?5?$AA?$DO?$AA?$DN?$AA?5?$AA0?$AA?5?$AA?$CG?$AA?$CG?$AA?5?$AAc?$AA?5?$AA?$DM?$AA?5?$AA1?$AA9?$AA?$AA@ 004a3bf4     stb_image.obj
 0003:00005c1c       ??_C@_1BA@NKONKNHF@?$AAc?$AA?5?$AA?$DN?$AA?$DN?$AA?5?$AA1?$AA8?$AA?$AA@ 004a3c1c     stb_image.obj
 0003:00005c30       ??_C@_1CC@BHGGCLFF@?$AAa?$AA?9?$AA?$DO?$AAn?$AAu?$AAm?$AA_?$AAb?$AAi?$AAt?$AAs?$AA?5?$AA?$DN?$AA?$DN?$AA?5?$AA0?$AA?$AA@ 004a3c30     stb_image.obj
 0003:00005c58       ??_C@_0N@IECDHMDI@zlib?5corrupt?$AA@ 004a3c58     stb_image.obj
 0003:00005c68       ??_C@_0BB@PIPBCKIA@read?5past?5buffer?$AA@ 004a3c68     stb_image.obj
 0003:00005c7c       ??_C@_0BA@OBKOPAFL@bad?5zlib?5header?$AA@ 004a3c7c     stb_image.obj
 0003:00005c90       ??_C@_0P@DOGMHEBI@no?5preset?5dict?$AA@ 004a3c90     stb_image.obj
 0003:00005ca4       ??_C@_0BA@MCNBDLPD@bad?5compression?$AA@ 004a3ca4     stb_image.obj
 0003:00005cb8       ??_C@_0M@DMDNBACF@bad?5png?5sig?$AA@ 004a3cb8     stb_image.obj
 0003:00005cc8       ??_C@_1FC@ICDHLHK@?$AAo?$AAu?$AAt?$AA_?$AAn?$AA?5?$AA?$DN?$AA?$DN?$AA?5?$AAs?$AA?9?$AA?$DO?$AAi?$AAm?$AAg?$AA_?$AAn?$AA?5?$AA?$HM?$AA?$HM?$AA?5?$AAo?$AAu?$AAt?$AA_?$AAn?$AA?5?$AA?$DN?$AA?$DN?$AA?5?$AAs?$AA?9@ 004a3cc8     stb_image.obj
 0003:00005d2c       ??_C@_0BC@BHMPBBMG@not?5enough?5pixels?$AA@ 004a3d2c     stb_image.obj
 0003:00005d44       ??_C@_0P@FBBCPGMN@invalid?5filter?$AA@ 004a3d44     stb_image.obj
 0003:00005d58       ??_C@_1CC@CPJBBDGC@?$AAi?$AAm?$AAg?$AA_?$AAn?$AA?$CL?$AA1?$AA?5?$AA?$DN?$AA?$DN?$AA?5?$AAo?$AAu?$AAt?$AA_?$AAn?$AA?$AA@ 004a3d58     stb_image.obj
 0003:00005d80       ??_C@_1DC@BMIDKOPK@?$AAo?$AAu?$AAt?$AA_?$AAn?$AA?5?$AA?$DN?$AA?$DN?$AA?5?$AA2?$AA?5?$AA?$HM?$AA?$HM?$AA?5?$AAo?$AAu?$AAt?$AA_?$AAn?$AA?5?$AA?$DN?$AA?$DN?$AA?5?$AA4?$AA?$AA@ 004a3d80     stb_image.obj
 0003:00005dbc       ??_C@_1CE@GKIDJEJM@?$AAs?$AA?9?$AA?$DO?$AAi?$AAm?$AAg?$AA_?$AAo?$AAu?$AAt?$AA_?$AAn?$AA?5?$AA?$DN?$AA?$DN?$AA?5?$AA4?$AA?$AA@ 004a3dbc     stb_image.obj
 0003:00005de8       ??_C@_0O@KBHBNJOK@multiple?5IHDR?$AA@ 004a3de8     stb_image.obj
 0003:00005df8       ??_C@_0N@POJLKMKK@bad?5IHDR?5len?$AA@ 004a3df8     stb_image.obj
 0003:00005e08       ??_C@_09LKEACGKO@8bit?5only?$AA@ 004a3e08     stb_image.obj
 0003:00005e14       ??_C@_09MBBNGCKB@bad?5ctype?$AA@ 004a3e14     stb_image.obj
 0003:00005e20       ??_C@_0BA@MDMBDDFG@bad?5comp?5method?$AA@ 004a3e20     stb_image.obj
 0003:00005e34       ??_C@_0BC@GHLIKKMD@bad?5filter?5method?$AA@ 004a3e34     stb_image.obj
 0003:00005e4c       ??_C@_0BF@JCGDPBAA@bad?5interlace?5method?$AA@ 004a3e4c     stb_image.obj
 0003:00005e68       ??_C@_0O@FNFBHCOO@0?9pixel?5image?$AA@ 004a3e68     stb_image.obj
 0003:00005e78       ??_C@_0P@JEAFOMAF@first?5not?5IHDR?$AA@ 004a3e78     stb_image.obj
 0003:00005e8c       ??_C@_0N@JCPAJAKB@invalid?5PLTE?$AA@ 004a3e8c     stb_image.obj
 0003:00005e9c       ??_C@_0BA@PCPJHDKJ@tRNS?5after?5IDAT?$AA@ 004a3e9c     stb_image.obj
 0003:00005eb0       ??_C@_0BB@CEDNNLBG@tRNS?5before?5PLTE?$AA@ 004a3eb0     stb_image.obj
 0003:00005ec4       ??_C@_0N@KDLCCKCH@bad?5tRNS?5len?$AA@ 004a3ec4     stb_image.obj
 0003:00005ed4       ??_C@_0BA@ENDPGCHB@tRNS?5with?5alpha?$AA@ 004a3ed4     stb_image.obj
 0003:00005ee8       ??_C@_07CKIELOEH@no?5PLTE?$AA@ 004a3ee8     stb_image.obj
 0003:00005ef4       ??_C@_09MNNCNKEO@outofdata?$AA@ 004a3ef4     stb_image.obj
 0003:00005f00       ??_C@_07MLPECBNA@no?5IDAT?$AA@ 004a3f00     stb_image.obj
 0003:00005f0c       ??_C@_07IANEBNLB@not?5BMP?$AA@ 004a3f0c     stb_image.obj
 0003:00005f18       ??_C@_0M@KHBIBJBG@unknown?5BMP?$AA@ 004a3f18     stb_image.obj
 0003:00005f28       ??_C@_07IEJCHBDI@bad?5BMP?$AA@ 004a3f28     stb_image.obj
 0003:00005f34       ??_C@_0L@FEJFGKNE@monochrome?$AA@ 004a3f34     stb_image.obj
 0003:00005f44       ??_C@_07IMHMNOIB@BMP?5RLE?$AA@ 004a3f44     stb_image.obj
 0003:00005f50       ??_C@_1BG@KBIIGBIG@?$AAh?$AAs?$AAz?$AA?5?$AA?$DN?$AA?$DN?$AA?5?$AA1?$AA0?$AA8?$AA?$AA@ 004a3f50     stb_image.obj
 0003:00005f6c       ??_C@_07MALOAKCI@invalid?$AA@ 004a3f6c     stb_image.obj
 0003:00005f78       ??_C@_07JNJHIMGH@bad?5bpp?$AA@ 004a3f78     stb_image.obj
 0003:00005f84       ??_C@_09DAEBACAB@bad?5masks?$AA@ 004a3f84     stb_image.obj
 0003:00005f90       ??_C@_0M@ILLOCNCO@bad?5palette?$AA@ 004a3f90     stb_image.obj
 0003:00005fa0       ??_C@_07ECNCNLIK@not?5PSD?$AA@ 004a3fa0     stb_image.obj
 0003:00005fac       ??_C@_0O@CHBCDKKC@wrong?5version?$AA@ 004a3fac     stb_image.obj
 0003:00005fbc       ??_C@_0BE@PJBNGDBE@wrong?5channel?5count?$AA@ 004a3fbc     stb_image.obj
 0003:00005fd4       ??_C@_0BG@NOLDLPP@unsupported?5bit?5depth?$AA@ 004a3fd4     stb_image.obj
 0003:00005ff0       ??_C@_0BD@IOGGBMNK@wrong?5color?5format?$AA@ 004a3ff0     stb_image.obj
 0003:00006008       ??_C@_04KBFEPHFH@S?$IA?v4?$AA@ 004a4008     stb_image.obj
 0003:00006010       ??_C@_04ELNJHLFH@PICT?$AA@ 004a4010     stb_image.obj
 0003:00006018       ??_C@_08GGMBIFE@bad?5file?$AA@ 004a4018     stb_image.obj
 0003:00006024       ??_C@_0L@DMAPJJO@bad?5format?$AA@ 004a4024     stb_image.obj
 0003:00006034       ??_C@_07KMJLPAII@not?5GIF?$AA@ 004a4034     stb_image.obj
 0003:0000603d       ??_C@_00CNPNBAHC@?$AA@     004a403d     stb_image.obj
 0003:00006040       ??_C@_0O@MGDACKOJ@no?5clear?5code?$AA@ 004a4040     stb_image.obj
 0003:00006050       ??_C@_0P@GJNJCPDJ@too?5many?5codes?$AA@ 004a4050     stb_image.obj
 0003:00006064       ??_C@_0BH@LOKBIIOJ@illegal?5code?5in?5raster?$AA@ 004a4064     stb_image.obj
 0003:00006080       ??_C@_0BF@GIAALCNJ@bad?5Image?5Descriptor?$AA@ 004a4080     stb_image.obj
 0003:0000609c       ??_C@_0BE@NAMJKDNF@missing?5color?5table?$AA@ 004a409c     stb_image.obj
 0003:000060b4       ??_C@_0N@DJABBOOH@unknown?5code?$AA@ 004a40b4     stb_image.obj
 0003:000060c4       ??_C@_0M@HOIDFNFN@?$CD?$DPRADIANCE?6?$AA@ 004a40c4     stb_image.obj
 0003:000060d4       ??_C@_0L@NCPEAJBD@?$CD?$DPRADIANCE?$AA@ 004a40d4     stb_image.obj
 0003:000060e4       ??_C@_07NCIOKENI@not?5HDR?$AA@ 004a40e4     stb_image.obj
 0003:000060f0       ??_C@_0BH@JFGBLLKC@FORMAT?$DN32?9bit_rle_rgbe?$AA@ 004a40f0     stb_image.obj
 0003:0000610c       ??_C@_0BD@NKJFFLKL@unsupported?5format?$AA@ 004a410c     stb_image.obj
 0003:00006124       ??_C@_03HKAKGGJN@?9Y?5?$AA@ 004a4124     stb_image.obj
 0003:00006128       ??_C@_0BI@DCNDPIOH@unsupported?5data?5layout?$AA@ 004a4128     stb_image.obj
 0003:00006144       ??_C@_03FOKDFDHG@?$CLX?5?$AA@ 004a4144     stb_image.obj
 0003:00006148       ??_C@_0CA@JBEOCDFN@invalid?5decoded?5scanline?5length?$AA@ 004a4148     stb_image.obj
 0003:00006170       __real@437f0000            004a4170     stb_image.obj
 0003:00006178       ??_C@_1LC@GPCAPDNM@?$AAc?$AA?3?$AA?2?$AAu?$AAs?$AAe?$AAr?$AAs?$AA?2?$AAl?$AAu?$AAc?$AAy?$AA?2?$AAd?$AAo?$AAc?$AAu?$AAm?$AAe?$AAn?$AAt?$AAs?$AA?2?$AAs?$AAc?$AAh?$AAo?$AAo?$AAl?$AA?2?$AA2@ 004a4178     stb_image_write.obj
 0003:00006250       ??_C@_02GMLFBBN@wb?$AA@    004a4250     stb_image_write.obj
 0003:00006254       ??_C@_0BI@JMCBNFKL@11?54?522?544?544?522?5444444?$AA@ 004a4254     stb_image_write.obj
 0003:00006270       ??_C@_0BA@BIJKEPCF@111?5221?52222?511?$AA@ 004a4270     stb_image_write.obj
 0003:00006284       ??_C@_13LFIEIAHP@?$AAp?$AA?$AA@ 004a4284     stb_image_write.obj
 0003:00006288       ??_C@_1DE@OKDJHMNB@?$AAd?$AA?5?$AA?$DM?$AA?$DN?$AA?5?$AA3?$AA2?$AA7?$AA6?$AA7?$AA?5?$AA?$CG?$AA?$CG?$AA?5?$AAb?$AAe?$AAs?$AAt?$AA?5?$AA?$DM?$AA?$DN?$AA?5?$AA2?$AA5?$AA8?$AA?$AA@ 004a4288     stb_image_write.obj
 0003:000062c8       ??_C@_04MNIAFIMC@IHDR?$AA@ 004a42c8     stb_image_write.obj
 0003:000062d0       ??_C@_04NHMHICBH@IDAT?$AA@ 004a42d0     stb_image_write.obj
 0003:000062d8       ??_C@_04COOFLABO@IEND?$AA@ 004a42d8     stb_image_write.obj
 0003:000062e0       ??_C@_1CI@KALOIMLJ@?$AAo?$AA?5?$AA?$DN?$AA?$DN?$AA?5?$AAo?$AAu?$AAt?$AA?5?$AA?$CL?$AA?5?$AA?$CK?$AAo?$AAu?$AAt?$AA_?$AAl?$AAe?$AAn?$AA?$AA@ 004a42e0     stb_image_write.obj
 0003:00006314       ??_7type_info@@6B@         004a4314     MSVCRT:ti_inst.obj
 0003:00006328       ?ProcessDetach@NativeDll@<CrtImplementationDetails>@@0IB 004a4328     MSVCRT:unhandld.obj
 0003:0000632c       ?ProcessAttach@NativeDll@<CrtImplementationDetails>@@0IB 004a432c     MSVCRT:unhandld.obj
 0003:00006330       ?ThreadAttach@NativeDll@<CrtImplementationDetails>@@0IB 004a4330     MSVCRT:unhandld.obj
 0003:00006334       ?ThreadDetach@NativeDll@<CrtImplementationDetails>@@0IB 004a4334     MSVCRT:unhandld.obj
 0003:00006338       ?ProcessVerifier@NativeDll@<CrtImplementationDetails>@@0IB 004a4338     MSVCRT:unhandld.obj
 0003:00006340       __load_config_used         004a4340     MSVCRT:loadcfg.obj
 0003:000067e8       ??_R1A@?0A@EA@exception@std@@8 004a47e8     fluidsim.obj
 0003:0000680c       ??_R3exception@std@@8      004a480c     fluidsim.obj
 0003:00006820       ??_R2exception@std@@8      004a4820     fluidsim.obj
 0003:00006828       ??_R4bad_alloc@std@@6B@    004a4828     fluidsim.obj
 0003:00006840       ??_R3bad_alloc@std@@8      004a4840     fluidsim.obj
 0003:00006854       ??_R2bad_alloc@std@@8      004a4854     fluidsim.obj
 0003:00006860       ??_R1A@?0A@EA@bad_alloc@std@@8 004a4860     fluidsim.obj
 0003:00006884       ??_R4?$basic_stringbuf@DU?$char_traits@D@std@@V?$allocator@D@2@@std@@6B@ 004a4884     fluidsim.obj
 0003:0000689c       ??_R3?$basic_stringbuf@DU?$char_traits@D@std@@V?$allocator@D@2@@std@@8 004a489c     fluidsim.obj
 0003:000068b0       ??_R2?$basic_stringbuf@DU?$char_traits@D@std@@V?$allocator@D@2@@std@@8 004a48b0     fluidsim.obj
 0003:000068bc       ??_R1A@?0A@EA@?$basic_stringbuf@DU?$char_traits@D@std@@V?$allocator@D@2@@std@@8 004a48bc     fluidsim.obj
 0003:000068e0       ??_R1A@?0A@EA@?$basic_streambuf@DU?$char_traits@D@std@@@std@@8 004a48e0     fluidsim.obj
 0003:00006904       ??_R3?$basic_streambuf@DU?$char_traits@D@std@@@std@@8 004a4904     fluidsim.obj
 0003:00006918       ??_R2?$basic_streambuf@DU?$char_traits@D@std@@@std@@8 004a4918     fluidsim.obj
 0003:00006920       ??_R4?$basic_stringstream@DU?$char_traits@D@std@@V?$allocator@D@2@@std@@6B@ 004a4920     fluidsim.obj
 0003:00006938       ??_R3?$basic_stringstream@DU?$char_traits@D@std@@V?$allocator@D@2@@std@@8 004a4938     fluidsim.obj
 0003:0000694c       ??_R2?$basic_stringstream@DU?$char_traits@D@std@@V?$allocator@D@2@@std@@8 004a494c     fluidsim.obj
 0003:00006980       ??_R1A@?0A@EA@?$basic_stringstream@DU?$char_traits@D@std@@V?$allocator@D@2@@std@@8 004a4980     fluidsim.obj
 0003:000069a4       ??_R1A@?0A@EA@?$basic_iostream@DU?$char_traits@D@std@@@std@@8 004a49a4     fluidsim.obj
 0003:000069c8       ??_R3?$basic_iostream@DU?$char_traits@D@std@@@std@@8 004a49c8     fluidsim.obj
 0003:000069dc       ??_R2?$basic_iostream@DU?$char_traits@D@std@@@std@@8 004a49dc     fluidsim.obj
 0003:00006a08       ??_R1A@?0A@EA@?$basic_istream@DU?$char_traits@D@std@@@std@@8 004a4a08     fluidsim.obj
 0003:00006a2c       ??_R3?$basic_istream@DU?$char_traits@D@std@@@std@@8 004a4a2c     fluidsim.obj
 0003:00006a40       ??_R2?$basic_istream@DU?$char_traits@D@std@@@std@@8 004a4a40     fluidsim.obj
 0003:00006a54       ??_R1A@A@3FA@?$basic_ios@DU?$char_traits@D@std@@@std@@8 004a4a54     fluidsim.obj
 0003:00006a78       ??_R3?$basic_ios@DU?$char_traits@D@std@@@std@@8 004a4a78     fluidsim.obj
 0003:00006a8c       ??_R2?$basic_ios@DU?$char_traits@D@std@@@std@@8 004a4a8c     fluidsim.obj
 0003:00006a9c       ??_R1A@?0A@EA@?$basic_ios@DU?$char_traits@D@std@@@std@@8 004a4a9c     fluidsim.obj
 0003:00006ac0       ??_R1A@?0A@EA@ios_base@std@@8 004a4ac0     fluidsim.obj
 0003:00006ae4       ??_R3ios_base@std@@8       004a4ae4     fluidsim.obj
 0003:00006af8       ??_R2ios_base@std@@8       004a4af8     fluidsim.obj
 0003:00006b04       ??_R17?0A@EA@?$_Iosb@H@std@@8 004a4b04     fluidsim.obj
 0003:00006b28       ??_R3?$_Iosb@H@std@@8      004a4b28     fluidsim.obj
 0003:00006b3c       ??_R2?$_Iosb@H@std@@8      004a4b3c     fluidsim.obj
 0003:00006b44       ??_R1A@?0A@EA@?$_Iosb@H@std@@8 004a4b44     fluidsim.obj
 0003:00006b68       ??_R1A@A@3EA@ios_base@std@@8 004a4b68     fluidsim.obj
 0003:00006b8c       ??_R17A@3EA@?$_Iosb@H@std@@8 004a4b8c     fluidsim.obj
 0003:00006bb0       ??_R1BA@?0A@EA@?$basic_ostream@DU?$char_traits@D@std@@@std@@8 004a4bb0     fluidsim.obj
 0003:00006bd4       ??_R3?$basic_ostream@DU?$char_traits@D@std@@@std@@8 004a4bd4     fluidsim.obj
 0003:00006be8       ??_R2?$basic_ostream@DU?$char_traits@D@std@@@std@@8 004a4be8     fluidsim.obj
 0003:00006bfc       ??_R1A@?0A@EA@?$basic_ostream@DU?$char_traits@D@std@@@std@@8 004a4bfc     fluidsim.obj
 0003:00006c20       ??_R4?$basic_filebuf@DU?$char_traits@D@std@@@std@@6B@ 004a4c20     fluidsim.obj
 0003:00006c38       ??_R3?$basic_filebuf@DU?$char_traits@D@std@@@std@@8 004a4c38     fluidsim.obj
 0003:00006c4c       ??_R2?$basic_filebuf@DU?$char_traits@D@std@@@std@@8 004a4c4c     fluidsim.obj
 0003:00006c58       ??_R1A@?0A@EA@?$basic_filebuf@DU?$char_traits@D@std@@@std@@8 004a4c58     fluidsim.obj
 0003:00006c7c       ??_R4?$basic_ifstream@DU?$char_traits@D@std@@@std@@6B@ 004a4c7c     fluidsim.obj
 0003:00006c94       ??_R3?$basic_ifstream@DU?$char_traits@D@std@@@std@@8 004a4c94     fluidsim.obj
 0003:00006ca8       ??_R2?$basic_ifstream@DU?$char_traits@D@std@@@std@@8 004a4ca8     fluidsim.obj
 0003:00006cc4       ??_R1A@?0A@EA@?$basic_ifstream@DU?$char_traits@D@std@@@std@@8 004a4cc4     fluidsim.obj
 0003:00006ce8       ??_R4?$basic_ofstream@DU?$char_traits@D@std@@@std@@6B@ 004a4ce8     fluidsim.obj
 0003:00006d00       ??_R3?$basic_ofstream@DU?$char_traits@D@std@@@std@@8 004a4d00     fluidsim.obj
 0003:00006d14       ??_R2?$basic_ofstream@DU?$char_traits@D@std@@@std@@8 004a4d14     fluidsim.obj
 0003:00006d30       ??_R1A@?0A@EA@?$basic_ofstream@DU?$char_traits@D@std@@@std@@8 004a4d30     fluidsim.obj
 0003:00006d54       ??_R4error_category@std@@6B@ 004a4d54     fluidsim.obj
 0003:00006d6c       ??_R3error_category@std@@8 004a4d6c     fluidsim.obj
 0003:00006d80       ??_R2error_category@std@@8 004a4d80     fluidsim.obj
 0003:00006d88       ??_R1A@?0A@EA@error_category@std@@8 004a4d88     fluidsim.obj
 0003:00006dac       ??_R4_Generic_error_category@std@@6B@ 004a4dac     fluidsim.obj
 0003:00006dc4       ??_R3_Generic_error_category@std@@8 004a4dc4     fluidsim.obj
 0003:00006dd8       ??_R2_Generic_error_category@std@@8 004a4dd8     fluidsim.obj
 0003:00006de4       ??_R1A@?0A@EA@_Generic_error_category@std@@8 004a4de4     fluidsim.obj
 0003:00006e08       ??_R4_Iostream_error_category@std@@6B@ 004a4e08     fluidsim.obj
 0003:00006e20       ??_R3_Iostream_error_category@std@@8 004a4e20     fluidsim.obj
 0003:00006e34       ??_R2_Iostream_error_category@std@@8 004a4e34     fluidsim.obj
 0003:00006e44       ??_R1A@?0A@EA@_Iostream_error_category@std@@8 004a4e44     fluidsim.obj
 0003:00006e68       ??_R4_System_error_category@std@@6B@ 004a4e68     fluidsim.obj
 0003:00006e80       ??_R3_System_error_category@std@@8 004a4e80     fluidsim.obj
 0003:00006e94       ??_R2_System_error_category@std@@8 004a4e94     fluidsim.obj
 0003:00006ea4       ??_R1A@?0A@EA@_System_error_category@std@@8 004a4ea4     fluidsim.obj
 0003:00006ec8       ??_R4Camera@Gluvi@@6B@     004a4ec8     gluvi.obj
 0003:00006ee0       ??_R3Camera@Gluvi@@8       004a4ee0     gluvi.obj
 0003:00006ef4       ??_R2Camera@Gluvi@@8       004a4ef4     gluvi.obj
 0003:00006efc       ??_R1A@?0A@EA@Camera@Gluvi@@8 004a4efc     gluvi.obj
 0003:00006f20       ??_R4Target3D@Gluvi@@6B@   004a4f20     gluvi.obj
 0003:00006f38       ??_R3Target3D@Gluvi@@8     004a4f38     gluvi.obj
 0003:00006f4c       ??_R2Target3D@Gluvi@@8     004a4f4c     gluvi.obj
 0003:00006f58       ??_R1A@?0A@EA@Target3D@Gluvi@@8 004a4f58     gluvi.obj
 0003:00006f7c       ??_R4TargetOrtho3D@Gluvi@@6B@ 004a4f7c     gluvi.obj
 0003:00006f94       ??_R3TargetOrtho3D@Gluvi@@8 004a4f94     gluvi.obj
 0003:00006fa8       ??_R2TargetOrtho3D@Gluvi@@8 004a4fa8     gluvi.obj
 0003:00006fb4       ??_R1A@?0A@EA@TargetOrtho3D@Gluvi@@8 004a4fb4     gluvi.obj
 0003:00006fd8       ??_R4PanZoom2D@Gluvi@@6B@  004a4fd8     gluvi.obj
 0003:00006ff0       ??_R3PanZoom2D@Gluvi@@8    004a4ff0     gluvi.obj
 0003:00007004       ??_R2PanZoom2D@Gluvi@@8    004a5004     gluvi.obj
 0003:00007010       ??_R1A@?0A@EA@PanZoom2D@Gluvi@@8 004a5010     gluvi.obj
 0003:00007034       ??_R4Widget@Gluvi@@6B@     004a5034     gluvi.obj
 0003:0000704c       ??_R3Widget@Gluvi@@8       004a504c     gluvi.obj
 0003:00007060       ??_R2Widget@Gluvi@@8       004a5060     gluvi.obj
 0003:00007068       ??_R1A@?0A@EA@Widget@Gluvi@@8 004a5068     gluvi.obj
 0003:0000708c       ??_R4StaticText@Gluvi@@6B@ 004a508c     gluvi.obj
 0003:000070a4       ??_R3StaticText@Gluvi@@8   004a50a4     gluvi.obj
 0003:000070b8       ??_R2StaticText@Gluvi@@8   004a50b8     gluvi.obj
 0003:000070c4       ??_R1A@?0A@EA@StaticText@Gluvi@@8 004a50c4     gluvi.obj
 0003:000070e8       ??_R4Button@Gluvi@@6B@     004a50e8     gluvi.obj
 0003:00007100       ??_R3Button@Gluvi@@8       004a5100     gluvi.obj
 0003:00007114       ??_R2Button@Gluvi@@8       004a5114     gluvi.obj
 0003:00007120       ??_R1A@?0A@EA@Button@Gluvi@@8 004a5120     gluvi.obj
 0003:00007144       ??_R4Slider@Gluvi@@6B@     004a5144     gluvi.obj
 0003:0000715c       ??_R3Slider@Gluvi@@8       004a515c     gluvi.obj
 0003:00007170       ??_R2Slider@Gluvi@@8       004a5170     gluvi.obj
 0003:0000717c       ??_R1A@?0A@EA@Slider@Gluvi@@8 004a517c     gluvi.obj
 0003:000071a0       ??_R4WidgetList@Gluvi@@6B@ 004a51a0     gluvi.obj
 0003:000071b8       ??_R3WidgetList@Gluvi@@8   004a51b8     gluvi.obj
 0003:000071cc       ??_R2WidgetList@Gluvi@@8   004a51cc     gluvi.obj
 0003:000071d8       ??_R1A@?0A@EA@WidgetList@Gluvi@@8 004a51d8     gluvi.obj
 0003:000071fc       ??_R4?$basic_istringstream@DU?$char_traits@D@std@@V?$allocator@D@2@@std@@6B@ 004a51fc     objloader.obj
 0003:00007214       ??_R3?$basic_istringstream@DU?$char_traits@D@std@@V?$allocator@D@2@@std@@8 004a5214     objloader.obj
 0003:00007228       ??_R2?$basic_istringstream@DU?$char_traits@D@std@@V?$allocator@D@2@@std@@8 004a5228     objloader.obj
 0003:00007244       ??_R1A@?0A@EA@?$basic_istringstream@DU?$char_traits@D@std@@V?$allocator@D@2@@std@@8 004a5244     objloader.obj
 0003:00007268       ??_R4type_info@@6B@        004a5268     MSVCRT:ti_inst.obj
 0003:00007280       ??_R3type_info@@8          004a5280     MSVCRT:ti_inst.obj
 0003:00007294       ??_R2type_info@@8          004a5294     MSVCRT:ti_inst.obj
 0003:0000729c       ??_R1A@?0A@EA@type_info@@8 004a529c     MSVCRT:ti_inst.obj
 0003:00007408       ___rtc_iaa                 004a5408     MSVCRT:initsect.obj
 0003:0000750c       ___rtc_izz                 004a550c     MSVCRT:initsect.obj
 0003:00007610       ___rtc_taa                 004a5610     MSVCRT:initsect.obj
 0003:00007714       ___rtc_tzz                 004a5714     MSVCRT:initsect.obj
 0003:000082d8       __CT??_R0?AVexception@std@@@8??0exception@std@@QAE@ABV01@@Z12 004a62d8     fluidsim.obj
 0003:000082f8       __TI2?AVbad_alloc@std@@    004a62f8     fluidsim.obj
 0003:0000830c       __CTA2?AVbad_alloc@std@@   004a630c     fluidsim.obj
 0003:0000831c       __CT??_R0?AVbad_alloc@std@@@8??0bad_alloc@std@@QAE@ABV01@@Z12 004a631c     fluidsim.obj
 0003:0000833c       __TI2?AVbad_cast@std@@     004a633c     fluidsim.obj
 0003:00008350       __CTA2?AVbad_cast@std@@    004a6350     fluidsim.obj
 0003:00008360       __CT??_R0?AVbad_cast@std@@@8??0bad_cast@std@@QAE@ABV01@@Z12 004a6360     fluidsim.obj
 0004:00000000       ?compression@@3MA          004a8000     fluidsim.obj
 0004:00000004       ?stretch@@3MA              004a8004     fluidsim.obj
 0004:00000008       ?harden@@3MA               004a8008     fluidsim.obj
 0004:0000000c       ?young@@3MA                004a800c     fluidsim.obj
 0004:00000010       ?poisson@@3MA              004a8010     fluidsim.obj
 0004:00000014       ?alpha@@3MA                004a8014     fluidsim.obj
 0004:0000001c       ??_R0?AVexception@std@@@8  004a801c     fluidsim.obj
 0004:00000040       ??_R0?AVbad_alloc@std@@@8  004a8040     fluidsim.obj
 0004:00000064       ??_R0?AVbad_cast@std@@@8   004a8064     fluidsim.obj
 0004:00000088       ??_R0?AV?$basic_stringbuf@DU?$char_traits@D@std@@V?$allocator@D@2@@std@@@8 004a8088     fluidsim.obj
 0004:000000e4       ??_R0?AV?$basic_streambuf@DU?$char_traits@D@std@@@std@@@8 004a80e4     fluidsim.obj
 0004:00000130       ??_R0?AV?$basic_stringstream@DU?$char_traits@D@std@@V?$allocator@D@2@@std@@@8 004a8130     fluidsim.obj
 0004:00000190       ??_R0?AV?$basic_iostream@DU?$char_traits@D@std@@@std@@@8 004a8190     fluidsim.obj
 0004:000001d8       ??_R0?AV?$basic_istream@DU?$char_traits@D@std@@@std@@@8 004a81d8     fluidsim.obj
 0004:00000220       ??_R0?AV?$basic_ios@DU?$char_traits@D@std@@@std@@@8 004a8220     fluidsim.obj
 0004:00000260       ??_R0?AVios_base@std@@@8   004a8260     fluidsim.obj
 0004:00000280       ??_R0?AV?$_Iosb@H@std@@@8  004a8280     fluidsim.obj
 0004:000002a4       ??_R0?AV?$basic_ostream@DU?$char_traits@D@std@@@std@@@8 004a82a4     fluidsim.obj
 0004:000002ec       ??_R0?AV?$basic_filebuf@DU?$char_traits@D@std@@@std@@@8 004a82ec     fluidsim.obj
 0004:00000334       ??_R0?AV?$basic_ifstream@DU?$char_traits@D@std@@@std@@@8 004a8334     fluidsim.obj
 0004:0000037c       ??_R0?AV?$basic_ofstream@DU?$char_traits@D@std@@@std@@@8 004a837c     fluidsim.obj
 0004:000003c4       ??_R0?AVerror_category@std@@@8 004a83c4     fluidsim.obj
 0004:000003ec       ??_R0?AV_Generic_error_category@std@@@8 004a83ec     fluidsim.obj
 0004:00000420       ??_R0?AV_Iostream_error_category@std@@@8 004a8420     fluidsim.obj
 0004:00000454       ??_R0?AV_System_error_category@std@@@8 004a8454     fluidsim.obj
 0004:00000488       ?winwidth@Gluvi@@3HA       004a8488     gluvi.obj
 0004:0000048c       ?winheight@Gluvi@@3HA      004a848c     gluvi.obj
 0004:00000494       ??_R0?AUCamera@Gluvi@@@8   004a8494     gluvi.obj
 0004:000004b4       ??_R0?AUTarget3D@Gluvi@@@8 004a84b4     gluvi.obj
 0004:000004d8       ??_R0?AUTargetOrtho3D@Gluvi@@@8 004a84d8     gluvi.obj
 0004:00000500       ??_R0?AUPanZoom2D@Gluvi@@@8 004a8500     gluvi.obj
 0004:00000524       ??_R0?AUWidget@Gluvi@@@8   004a8524     gluvi.obj
 0004:00000544       ??_R0?AUStaticText@Gluvi@@@8 004a8544     gluvi.obj
 0004:0000056c       ??_R0?AUButton@Gluvi@@@8   004a856c     gluvi.obj
 0004:0000058c       ??_R0?AUSlider@Gluvi@@@8   004a858c     gluvi.obj
 0004:000005ac       ??_R0?AUWidgetList@Gluvi@@@8 004a85ac     gluvi.obj
 0004:000005d4       ?running@@3_NA             004a85d4     main.obj
 0004:000005d8       ?rad0@@3MA                 004a85d8     main.obj
 0004:000005dc       ?timestep@@3MA             004a85dc     main.obj
 0004:000005e0       ?grid_width@@3MA           004a85e0     main.obj
 0004:000005e8       ?__LINE__Var@?1??point_in_triangle_2d@@YA_NNNNNNNNNAAN00@Z@4JA@512e695a 004a85e8     makelevelset3.obj
 0004:000005f0       ??_R0?AV?$basic_istringstream@DU?$char_traits@D@std@@V?$allocator@D@2@@std@@@8 004a85f0     objloader.obj
 0004:000009d4       ?__LINE__Var@?1??convert_format@@9@9@af5d991e 004a89d4     stb_image.obj
 0004:000009d8       ?__LINE__Var@?1??decode@@9@9@af5d991e 004a89d8     stb_image.obj
 0004:000009dc       ?__LINE__Var@?1??bit_reverse@@9@9@af5d991e 004a89dc     stb_image.obj
 0004:000009e0       ?__LINE__Var@?1??zbuild_huffman@@9@9@af5d991e 004a89e0     stb_image.obj
 0004:000009e4       ?__LINE__Var@?1??fill_bits@@9@9@af5d991e 004a89e4     stb_image.obj
 0004:000009e8       ?__LINE__Var@?1??zhuffman_decode@@9@9@af5d991e 004a89e8     stb_image.obj
 0004:000009ec       ?__LINE__Var@?1??compute_huffman_codes@@9@9@af5d991e 004a89ec     stb_image.obj
 0004:000009f0       ?__LINE__Var@?1??parse_uncompressed_block@@9@9@af5d991e 004a89f0     stb_image.obj
 0004:000009f4       ?__LINE__Var@?1??create_png_image_raw@@9@9@af5d991e 004a89f4     stb_image.obj
 0004:000009f8       ?__LINE__Var@?1??compute_transparency@@9@9@af5d991e 004a89f8     stb_image.obj
 0004:000009fc       ?__LINE__Var@?1??stbi_de_iphone@@9@9@af5d991e 004a89fc     stb_image.obj
 0004:00000a00       ?__LINE__Var@?1??bmp_load@@9@9@af5d991e 004a8a00     stb_image.obj
 0004:00000b18       ?__LINE__Var@?1??writefv@@9@9@5ad77c43 004a8b18     stb_image_write.obj
 0004:00000b1c       ?__LINE__Var@?1??stbi__sbgrowf@@9@9@5ad77c43 004a8b1c     stb_image_write.obj
 0004:00000b20       ?__LINE__Var@?1??stbi_zlib_compress@@9@9 004a8b20     stb_image_write.obj
 0004:00000b24       ?__LINE__Var@?1??stbi_write_png_to_mem@@9@9 004a8b24     stb_image_write.obj
 0004:00000b30       ??_R0?AVtype_info@@@8      004a8b30     MSVCRT:ti_inst.obj
 0004:00000b4c       ___security_cookie         004a8b4c     MSVCRT:gs_cookie.obj
 0004:00000b50       ___security_cookie_complement 004a8b50     MSVCRT:gs_cookie.obj
 0004:00000b60       ___isa_enabled             004a8b60     MSVCRT:cpu_disp.obj
 0004:00000b64       ___defaultmatherr          004a8b64     MSVCRT:merr.obj
 0004:00000b68       ___globallocalestatus      004a8b68     MSVCRT:xthdloc.obj
 0004:00000b6c       ___native_dllmain_reason   004a8b6c     MSVCRT:natstart.obj
 0004:00000b70       __You_must_link_with_exactly_one_OpenMP_library 004a8b70     VCOMP:unique.obj
 0004:00000b74       __You_must_link_with_Microsoft_OpenMP_library 004a8b74     VCOMP:unique.obj
 0004:00000cb0       ?friction@@3MA             004a8cb0     fluidsim.obj
 0004:00000cbc       ?_Generic_object@?$_Error_objects@H@std@@2V_Generic_error_category@2@A 004a8cbc     fluidsim.obj
 0004:00000cc0       ?_Iostream_object@?$_Error_objects@H@std@@2V_Iostream_error_category@2@A 004a8cc0     fluidsim.obj
 0004:00000cc4       ?_System_object@?$_Error_objects@H@std@@2V_System_error_category@2@A 004a8cc4     fluidsim.obj
 0004:00000cc8       ?id@?$num_put@DV?$back_insert_iterator@V?$basic_string@DU?$char_traits@D@std@@V?$allocator@D@2@@std@@@std@@@std@@2V0locale@2@A 004a8cc8     fluidsim.obj
 0004:00000ccc       ?id@?$num_put@_WV?$back_insert_iterator@V?$basic_string@_WU?$char_traits@_W@std@@V?$allocator@_W@2@@std@@@std@@@std@@2V0locale@2@A 004a8ccc     fluidsim.obj
 0004:00000cd0       ?_Stinit@?1??_Init@?$basic_filebuf@DU?$char_traits@D@std@@@std@@IAEXPAU_iobuf@@W4_Initfl@23@@Z@4HA 004a8cd0     fluidsim.obj
 0004:00000cd4       ?_Psave@?$_Facetptr@V?$codecvt@DDH@std@@@std@@2PBVfacet@locale@2@B 004a8cd4     fluidsim.obj
 0004:00000cd8       ?userDisplayFunc@Gluvi@@3P6AXXZA 004a8cd8     gluvi.obj
 0004:00000cdc       ?userMouseFunc@Gluvi@@3P6AXHHHH@ZA 004a8cdc     gluvi.obj
 0004:00000ce0       ?userDragFunc@Gluvi@@3P6AXHH@ZA 004a8ce0     gluvi.obj
 0004:00000ce4       ?camera@Gluvi@@3PAUCamera@1@A 004a8ce4     gluvi.obj
 0004:00000cf0       ?root@Gluvi@@3UWidgetList@1@A 004a8cf0     gluvi.obj
 0004:00000d30       ?filming@@3_NA             004a8d30     main.obj
 0004:00000d34       ?particle_radius@@3MA      004a8d34     main.obj
 0004:00000d38       ?grid_resolution@@3HA      004a8d38     main.obj
 0004:00000d3c       ?frame@@3HA                004a8d3c     main.obj
 0004:00000d40       ?sim@@3VFluidSim@@A        004a8d40     main.obj
 0004:00000f8c       ?frame_number@@3V?$basic_string@DU?$char_traits@D@std@@V?$allocator@D@2@@std@@A 004a8f8c     main.obj
 0004:00000fa4       ?solidBoundary@@3PAVobj@@A 004a8fa4     main.obj
 0004:00000fa8       ?c0@@3U?$Vec@$02M@@A       004a8fa8     main.obj
 0004:00000fb4       ?particle_positions@@3V?$vector@U?$Vec@$02M@@V?$allocator@U?$Vec@$02M@@@std@@@std@@A 004a8fb4     main.obj
 0004:00000fc0       ?outpath@@3V?$basic_string@DU?$char_traits@D@std@@V?$allocator@D@2@@std@@A 004a8fc0     main.obj
 0004:00001ac0       ___isa_available           004a9ac0     MSVCRT:cpu_disp.obj
 0004:00001ac4       ___favor                   004a9ac4     MSVCRT:cpu_disp.obj
 0004:00001acc       __commode                  004a9acc     MSVCRT:xncommod.obj
 0004:00001ad0       __dowildcard               004a9ad0     MSVCRT:wildcard.obj
 0004:00001ad4       __newmode                  004a9ad4     MSVCRT:_newmode.obj
 0004:00001ad8       __fmode                    004a9ad8     MSVCRT:xtxtmode.obj
 0004:00001adc       _stbi_png_partial          004a9adc     <common>
 0004:00001ae8       ___native_startup_lock     004a9ae8     <common>
 0004:00001af8       ___native_startup_state    004a9af8     <common>
 0004:00001afc       ___dyn_tls_init_callback   004a9afc     <common>
 0004:00001b0c       ___onexitend               004a9b0c     <common>
 0004:00001b1c       ___onexitbegin             004a9b1c     <common>
 0005:00000000       __IMPORT_DESCRIPTOR_OPENGL32 004aa000     opengl32:OPENGL32.dll
 0005:00000014       __IMPORT_DESCRIPTOR_GLU32  004aa014     glu32:GLU32.dll
 0005:00000028       __IMPORT_DESCRIPTOR_glut32 004aa028     glut32:glut32.dll
 0005:0000003c       __IMPORT_DESCRIPTOR_MSVCP110 004aa03c     msvcprt:MSVCP110.dll
 0005:00000050       __IMPORT_DESCRIPTOR_MSVCR110 004aa050     MSVCRT:MSVCR110.dll
 0005:00000064       __IMPORT_DESCRIPTOR_VCOMP110 004aa064     VCOMP:VCOMP110.DLL
 0005:00000078       __IMPORT_DESCRIPTOR_KERNEL32 004aa078     kernel32:KERNEL32.dll
 0005:0000008c       __NULL_IMPORT_DESCRIPTOR   004aa08c     opengl32:OPENGL32.dll
 0005:00000684       __imp__gluPerspective@32   004aa684     glu32:GLU32.dll
 0005:00000688       __imp__gluNewQuadric@0     004aa688     glu32:GLU32.dll
 0005:0000068c       __imp__gluQuadricDrawStyle@8 004aa68c     glu32:GLU32.dll
 0005:00000690       __imp__gluSphere@20        004aa690     glu32:GLU32.dll
 0005:00000694       __imp__gluOrtho2D@32       004aa694     glu32:GLU32.dll
 0005:00000698       \177GLU32_NULL_THUNK_DATA  004aa698     glu32:GLU32.dll
 0005:000006c8       __imp__IsProcessorFeaturePresent@4 004aa6c8     kernel32:KERNEL32.dll
 0005:000006cc       __imp__EncodePointer@4     004aa6cc     kernel32:KERNEL32.dll
 0005:000006d0       __imp__QueryPerformanceCounter@4 004aa6d0     kernel32:KERNEL32.dll
 0005:000006d4       __imp__GetCurrentProcessId@0 004aa6d4     kernel32:KERNEL32.dll
 0005:000006d8       __imp__GetCurrentThreadId@0 004aa6d8     kernel32:KERNEL32.dll
 0005:000006dc       __imp__GetSystemTimeAsFileTime@4 004aa6dc     kernel32:KERNEL32.dll
 0005:000006e0       __imp__DecodePointer@4     004aa6e0     kernel32:KERNEL32.dll
 0005:000006e4       __imp__IsDebuggerPresent@0 004aa6e4     kernel32:KERNEL32.dll
 0005:000006e8       \177KERNEL32_NULL_THUNK_DATA 004aa6e8     kernel32:KERNEL32.dll
 0005:00000718       __imp_?put@?$basic_ostream@DU?$char_traits@D@std@@@std@@QAEAAV12@D@Z 004aa718     msvcprt:MSVCP110.dll
 0005:0000071c       __imp_??6?$basic_ostream@DU?$char_traits@D@std@@@std@@QAEAAV01@N@Z 004aa71c     msvcprt:MSVCP110.dll
 0005:00000720       __imp_?cerr@std@@3V?$basic_ostream@DU?$char_traits@D@std@@@1@A 004aa720     msvcprt:MSVCP110.dll
 0005:00000724       __imp_?cout@std@@3V?$basic_ostream@DU?$char_traits@D@std@@@1@A 004aa724     msvcprt:MSVCP110.dll
 0005:00000728       __imp_?id@?$codecvt@DDH@std@@2V0locale@2@A 004aa728     msvcprt:MSVCP110.dll
 0005:0000072c       __imp_?_BADOFF@std@@3_JB   004aa72c     msvcprt:MSVCP110.dll
 0005:00000730       __imp_?write@?$basic_ostream@DU?$char_traits@D@std@@@std@@QAEAAV12@PBD_J@Z 004aa730     msvcprt:MSVCP110.dll
 0005:00000734       __imp_?xsputn@?$basic_streambuf@DU?$char_traits@D@std@@@std@@MAE_JPBD_J@Z 004aa734     msvcprt:MSVCP110.dll
 0005:00000738       __imp_?xsgetn@?$basic_streambuf@DU?$char_traits@D@std@@@std@@MAE_JPAD_J@Z 004aa738     msvcprt:MSVCP110.dll
 0005:0000073c       __imp_?uflow@?$basic_streambuf@DU?$char_traits@D@std@@@std@@MAEHXZ 004aa73c     msvcprt:MSVCP110.dll
 0005:00000740       __imp_?sync@?$basic_streambuf@DU?$char_traits@D@std@@@std@@MAEHXZ 004aa740     msvcprt:MSVCP110.dll
 0005:00000744       __imp_?showmanyc@?$basic_streambuf@DU?$char_traits@D@std@@@std@@MAE_JXZ 004aa744     msvcprt:MSVCP110.dll
 0005:00000748       __imp_?setbuf@?$basic_streambuf@DU?$char_traits@D@std@@@std@@MAEPAV12@PAD_J@Z 004aa748     msvcprt:MSVCP110.dll
 0005:0000074c       __imp_?imbue@?$basic_streambuf@DU?$char_traits@D@std@@@std@@MAEXABVlocale@2@@Z 004aa74c     msvcprt:MSVCP110.dll
 0005:00000750       __imp_?_Unlock@?$basic_streambuf@DU?$char_traits@D@std@@@std@@UAEXXZ 004aa750     msvcprt:MSVCP110.dll
 0005:00000754       __imp_?_Lock@?$basic_streambuf@DU?$char_traits@D@std@@@std@@UAEXXZ 004aa754     msvcprt:MSVCP110.dll
 0005:00000758       __imp_?_Add_vtordisp2@?$basic_ios@DU?$char_traits@D@std@@@std@@UAEXXZ 004aa758     msvcprt:MSVCP110.dll
 0005:0000075c       __imp_?_Add_vtordisp1@?$basic_ios@DU?$char_traits@D@std@@@std@@UAEXXZ 004aa75c     msvcprt:MSVCP110.dll
 0005:00000760       __imp_?_Fiopen@std@@YAPAU_iobuf@@PBDHH@Z 004aa760     msvcprt:MSVCP110.dll
 0005:00000764       __imp_??1?$basic_iostream@DU?$char_traits@D@std@@@std@@UAE@XZ 004aa764     msvcprt:MSVCP110.dll
 0005:00000768       __imp_??0?$basic_iostream@DU?$char_traits@D@std@@@std@@QAE@PAV?$basic_streambuf@DU?$char_traits@D@std@@@1@@Z 004aa768     msvcprt:MSVCP110.dll
 0005:0000076c       __imp_?_Swap_all@_Container_base0@std@@QAEXAAU12@@Z 004aa76c     msvcprt:MSVCP110.dll
 0005:00000770       __imp_??Bios_base@std@@QBEPAXXZ 004aa770     msvcprt:MSVCP110.dll
 0005:00000774       __imp_?clear@?$basic_ios@DU?$char_traits@D@std@@@std@@QAEXH_N@Z 004aa774     msvcprt:MSVCP110.dll
 0005:00000778       __imp_??6?$basic_ostream@DU?$char_traits@D@std@@@std@@QAEAAV01@I@Z 004aa778     msvcprt:MSVCP110.dll
 0005:0000077c       __imp___FDenorm            004aa77c     msvcprt:MSVCP110.dll
 0005:00000780       __imp_??5?$basic_istream@DU?$char_traits@D@std@@@std@@QAEAAV01@AAM@Z 004aa780     msvcprt:MSVCP110.dll
 0005:00000784       __imp_?_Ipfx@?$basic_istream@DU?$char_traits@D@std@@@std@@QAE_N_N@Z 004aa784     msvcprt:MSVCP110.dll
 0005:00000788       __imp_?_Add_vtordisp1@?$basic_istream@DU?$char_traits@D@std@@@std@@UAEXXZ 004aa788     msvcprt:MSVCP110.dll
 0005:0000078c       __imp_??1?$basic_istream@DU?$char_traits@D@std@@@std@@UAE@XZ 004aa78c     msvcprt:MSVCP110.dll
 0005:00000790       __imp_??0?$basic_istream@DU?$char_traits@D@std@@@std@@QAE@PAV?$basic_streambuf@DU?$char_traits@D@std@@@1@_N@Z 004aa790     msvcprt:MSVCP110.dll
 0005:00000794       __imp_?endl@std@@YAAAV?$basic_ostream@DU?$char_traits@D@std@@@1@AAV21@@Z 004aa794     msvcprt:MSVCP110.dll
 0005:00000798       __imp_?flush@?$basic_ostream@DU?$char_traits@D@std@@@std@@QAEAAV12@XZ 004aa798     msvcprt:MSVCP110.dll
 0005:0000079c       __imp_??6?$basic_ostream@DU?$char_traits@D@std@@@std@@QAEAAV01@M@Z 004aa79c     msvcprt:MSVCP110.dll
 0005:000007a0       __imp_??6?$basic_ostream@DU?$char_traits@D@std@@@std@@QAEAAV01@H@Z 004aa7a0     msvcprt:MSVCP110.dll
 0005:000007a4       __imp_??6?$basic_ostream@DU?$char_traits@D@std@@@std@@QAEAAV01@P6AAAV01@AAV01@@Z@Z 004aa7a4     msvcprt:MSVCP110.dll
 0005:000007a8       __imp_?_Osfx@?$basic_ostream@DU?$char_traits@D@std@@@std@@QAEXXZ 004aa7a8     msvcprt:MSVCP110.dll
 0005:000007ac       __imp_?_Add_vtordisp2@?$basic_ostream@DU?$char_traits@D@std@@@std@@UAEXXZ 004aa7ac     msvcprt:MSVCP110.dll
 0005:000007b0       __imp_??1?$basic_ostream@DU?$char_traits@D@std@@@std@@UAE@XZ 004aa7b0     msvcprt:MSVCP110.dll
 0005:000007b4       __imp_??0?$basic_ostream@DU?$char_traits@D@std@@@std@@QAE@PAV?$basic_streambuf@DU?$char_traits@D@std@@@1@_N@Z 004aa7b4     msvcprt:MSVCP110.dll
 0005:000007b8       __imp_??0?$basic_ios@DU?$char_traits@D@std@@@std@@IAE@XZ 004aa7b8     msvcprt:MSVCP110.dll
 0005:000007bc       __imp_?widen@?$basic_ios@DU?$char_traits@D@std@@@std@@QBEDD@Z 004aa7bc     msvcprt:MSVCP110.dll
 0005:000007c0       __imp_?fill@?$basic_ios@DU?$char_traits@D@std@@@std@@QBEDXZ 004aa7c0     msvcprt:MSVCP110.dll
 0005:000007c4       __imp_??0_Lockit@std@@QAE@H@Z 004aa7c4     msvcprt:MSVCP110.dll
 0005:000007c8       __imp_??1_Lockit@std@@QAE@XZ 004aa7c8     msvcprt:MSVCP110.dll
 0005:000007cc       __imp_?uncaught_exception@std@@YA_NXZ 004aa7cc     msvcprt:MSVCP110.dll
 0005:000007d0       __imp_?_Orphan_all@_Container_base0@std@@QAEXXZ 004aa7d0     msvcprt:MSVCP110.dll
 0005:000007d4       __imp_?_Xbad_alloc@std@@YAXXZ 004aa7d4     msvcprt:MSVCP110.dll
 0005:000007d8       __imp_?_Xlength_error@std@@YAXPBD@Z 004aa7d8     msvcprt:MSVCP110.dll
 0005:000007dc       __imp_?_Xout_of_range@std@@YAXPBD@Z 004aa7dc     msvcprt:MSVCP110.dll
 0005:000007e0       __imp_??0id@locale@std@@QAE@I@Z 004aa7e0     msvcprt:MSVCP110.dll
 0005:000007e4       __imp_??Bid@locale@std@@QAEIXZ 004aa7e4     msvcprt:MSVCP110.dll
 0005:000007e8       __imp_?_Getgloballocale@locale@std@@CAPAV_Locimp@12@XZ 004aa7e8     msvcprt:MSVCP110.dll
 0005:000007ec       __imp_?always_noconv@codecvt_base@std@@QBE_NXZ 004aa7ec     msvcprt:MSVCP110.dll
 0005:000007f0       __imp_?in@?$codecvt@DDH@std@@QBEHAAHPBD1AAPBDPAD3AAPAD@Z 004aa7f0     msvcprt:MSVCP110.dll
 0005:000007f4       __imp_?out@?$codecvt@DDH@std@@QBEHAAHPBD1AAPBDPAD3AAPAD@Z 004aa7f4     msvcprt:MSVCP110.dll
 0005:000007f8       __imp_?unshift@?$codecvt@DDH@std@@QBEHAAHPAD1AAPAD@Z 004aa7f8     msvcprt:MSVCP110.dll
 0005:000007fc       __imp_?_Getcat@?$codecvt@DDH@std@@SAIPAPBVfacet@locale@2@PBV42@@Z 004aa7fc     msvcprt:MSVCP110.dll
 0005:00000800       __imp_?_Syserror_map@std@@YAPBDH@Z 004aa800     msvcprt:MSVCP110.dll
 0005:00000804       __imp_?_Winerror_map@std@@YAPBDH@Z 004aa804     msvcprt:MSVCP110.dll
 0005:00000808       __imp_??7ios_base@std@@QBE_NXZ 004aa808     msvcprt:MSVCP110.dll
 0005:0000080c       __imp_?good@ios_base@std@@QBE_NXZ 004aa80c     msvcprt:MSVCP110.dll
 0005:00000810       __imp_?eof@ios_base@std@@QBE_NXZ 004aa810     msvcprt:MSVCP110.dll
 0005:00000814       __imp_?flags@ios_base@std@@QBEHXZ 004aa814     msvcprt:MSVCP110.dll
 0005:00000818       __imp_?width@ios_base@std@@QBE_JXZ 004aa818     msvcprt:MSVCP110.dll
 0005:0000081c       __imp_?width@ios_base@std@@QAE_J_J@Z 004aa81c     msvcprt:MSVCP110.dll
 0005:00000820       __imp_??0?$basic_streambuf@DU?$char_traits@D@std@@@std@@IAE@XZ 004aa820     msvcprt:MSVCP110.dll
 0005:00000824       __imp_??1?$basic_streambuf@DU?$char_traits@D@std@@@std@@UAE@XZ 004aa824     msvcprt:MSVCP110.dll
 0005:00000828       __imp_?getloc@?$basic_streambuf@DU?$char_traits@D@std@@@std@@QBE?AVlocale@2@XZ 004aa828     msvcprt:MSVCP110.dll
 0005:0000082c       __imp_?sbumpc@?$basic_streambuf@DU?$char_traits@D@std@@@std@@QAEHXZ 004aa82c     msvcprt:MSVCP110.dll
 0005:00000830       __imp_?sgetc@?$basic_streambuf@DU?$char_traits@D@std@@@std@@QAEHXZ 004aa830     msvcprt:MSVCP110.dll
 0005:00000834       __imp_?snextc@?$basic_streambuf@DU?$char_traits@D@std@@@std@@QAEHXZ 004aa834     msvcprt:MSVCP110.dll
 0005:00000838       __imp_?sputc@?$basic_streambuf@DU?$char_traits@D@std@@@std@@QAEHD@Z 004aa838     msvcprt:MSVCP110.dll
 0005:0000083c       __imp_?sputn@?$basic_streambuf@DU?$char_traits@D@std@@@std@@QAE_JPBD_J@Z 004aa83c     msvcprt:MSVCP110.dll
 0005:00000840       __imp_?eback@?$basic_streambuf@DU?$char_traits@D@std@@@std@@IBEPADXZ 004aa840     msvcprt:MSVCP110.dll
 0005:00000844       __imp_?gptr@?$basic_streambuf@DU?$char_traits@D@std@@@std@@IBEPADXZ 004aa844     msvcprt:MSVCP110.dll
 0005:00000848       __imp_?pbase@?$basic_streambuf@DU?$char_traits@D@std@@@std@@IBEPADXZ 004aa848     msvcprt:MSVCP110.dll
 0005:0000084c       __imp_?pptr@?$basic_streambuf@DU?$char_traits@D@std@@@std@@IBEPADXZ 004aa84c     msvcprt:MSVCP110.dll
 0005:00000850       __imp_?egptr@?$basic_streambuf@DU?$char_traits@D@std@@@std@@IBEPADXZ 004aa850     msvcprt:MSVCP110.dll
 0005:00000854       __imp_?gbump@?$basic_streambuf@DU?$char_traits@D@std@@@std@@IAEXH@Z 004aa854     msvcprt:MSVCP110.dll
 0005:00000858       __imp_?setg@?$basic_streambuf@DU?$char_traits@D@std@@@std@@IAEXPAD00@Z 004aa858     msvcprt:MSVCP110.dll
 0005:0000085c       __imp_?epptr@?$basic_streambuf@DU?$char_traits@D@std@@@std@@IBEPADXZ 004aa85c     msvcprt:MSVCP110.dll
 0005:00000860       __imp_?_Gndec@?$basic_streambuf@DU?$char_traits@D@std@@@std@@IAEPADXZ 004aa860     msvcprt:MSVCP110.dll
 0005:00000864       __imp_?_Gninc@?$basic_streambuf@DU?$char_traits@D@std@@@std@@IAEPADXZ 004aa864     msvcprt:MSVCP110.dll
 0005:00000868       __imp_?pbump@?$basic_streambuf@DU?$char_traits@D@std@@@std@@IAEXH@Z 004aa868     msvcprt:MSVCP110.dll
 0005:0000086c       __imp_?setp@?$basic_streambuf@DU?$char_traits@D@std@@@std@@IAEXPAD0@Z 004aa86c     msvcprt:MSVCP110.dll
 0005:00000870       __imp_?setp@?$basic_streambuf@DU?$char_traits@D@std@@@std@@IAEXPAD00@Z 004aa870     msvcprt:MSVCP110.dll
 0005:00000874       __imp_?_Pninc@?$basic_streambuf@DU?$char_traits@D@std@@@std@@IAEPADXZ 004aa874     msvcprt:MSVCP110.dll
 0005:00000878       __imp_?_Init@?$basic_streambuf@DU?$char_traits@D@std@@@std@@IAEXXZ 004aa878     msvcprt:MSVCP110.dll
 0005:0000087c       __imp_?_Init@?$basic_streambuf@DU?$char_traits@D@std@@@std@@IAEXPAPAD0PAH001@Z 004aa87c     msvcprt:MSVCP110.dll
 0005:00000880       __imp_??1?$basic_ios@DU?$char_traits@D@std@@@std@@UAE@XZ 004aa880     msvcprt:MSVCP110.dll
 0005:00000884       __imp_?setstate@?$basic_ios@DU?$char_traits@D@std@@@std@@QAEXH_N@Z 004aa884     msvcprt:MSVCP110.dll
 0005:00000888       __imp_?tie@?$basic_ios@DU?$char_traits@D@std@@@std@@QBEPAV?$basic_ostream@DU?$char_traits@D@std@@@2@XZ 004aa888     msvcprt:MSVCP110.dll
 0005:0000088c       __imp_?rdbuf@?$basic_ios@DU?$char_traits@D@std@@@std@@QBEPAV?$basic_streambuf@DU?$char_traits@D@std@@@2@XZ 004aa88c     msvcprt:MSVCP110.dll
 0005:00000890       \177MSVCP110_NULL_THUNK_DATA 004aa890     msvcprt:MSVCP110.dll
 0005:00000904       __imp__fwrite              004aa904     MSVCRT:MSVCR110.dll
 0005:00000908       __imp___initterm           004aa908     MSVCRT:MSVCR110.dll
 0005:0000090c       __imp___initterm_e         004aa90c     MSVCRT:MSVCR110.dll
 0005:00000910       __imp____setusermatherr    004aa910     MSVCRT:MSVCR110.dll
 0005:00000914       __imp___configthreadlocale 004aa914     MSVCRT:MSVCR110.dll
 0005:00000918       __imp___cexit              004aa918     MSVCRT:MSVCR110.dll
 0005:0000091c       __imp___exit               004aa91c     MSVCRT:MSVCR110.dll
 0005:00000920       __imp__exit                004aa920     MSVCRT:MSVCR110.dll
 0005:00000924       __imp____set_app_type      004aa924     MSVCRT:MSVCR110.dll
 0005:00000928       __imp___controlfp_s        004aa928     MSVCRT:MSVCR110.dll
 0005:0000092c       __imp___invoke_watson      004aa92c     MSVCRT:MSVCR110.dll
 0005:00000930       __imp____crtSetUnhandledExceptionFilter 004aa930     MSVCRT:MSVCR110.dll
 0005:00000934       __imp_?terminate@@YAXXZ    004aa934     MSVCRT:MSVCR110.dll
 0005:00000938       __imp___except_handler4_common 004aa938     MSVCRT:MSVCR110.dll
 0005:0000093c       __imp___commode            004aa93c     MSVCRT:MSVCR110.dll
 0005:00000940       __imp___fmode              004aa940     MSVCRT:MSVCR110.dll
 0005:00000944       __imp____getmainargs       004aa944     MSVCRT:MSVCR110.dll
 0005:00000948       __imp___amsg_exit          004aa948     MSVCRT:MSVCR110.dll
 0005:0000094c       __imp___XcptFilter         004aa94c     MSVCRT:MSVCR110.dll
 0005:00000950       __imp____crtTerminateProcess 004aa950     MSVCRT:MSVCR110.dll
 0005:00000954       __imp____crtUnhandledException 004aa954     MSVCRT:MSVCR110.dll
 0005:00000958       __imp___crt_debugger_hook  004aa958     MSVCRT:MSVCR110.dll
 0005:0000095c       __imp_??1type_info@@UAE@XZ 004aa95c     MSVCRT:MSVCR110.dll
 0005:00000960       __imp___onexit             004aa960     MSVCRT:MSVCR110.dll
 0005:00000964       __imp____dllonexit         004aa964     MSVCRT:MSVCR110.dll
 0005:00000968       __imp___calloc_crt         004aa968     MSVCRT:MSVCR110.dll
 0005:0000096c       __imp___unlock             004aa96c     MSVCRT:MSVCR110.dll
 0005:00000970       __imp___lock               004aa970     MSVCRT:MSVCR110.dll
 0005:00000974       __imp___lrotl              004aa974     MSVCRT:MSVCR110.dll
 0005:00000978       __imp__strtol              004aa978     MSVCRT:MSVCR110.dll
 0005:0000097c       __imp__strncmp             004aa97c     MSVCRT:MSVCR110.dll
 0005:00000980       __imp__strcmp              004aa980     MSVCRT:MSVCR110.dll
 0005:00000984       __imp__ldexp               004aa984     MSVCRT:MSVCR110.dll
 0005:00000988       __imp__abs                 004aa988     MSVCRT:MSVCR110.dll
 0005:0000098c       __imp__ftell               004aa98c     MSVCRT:MSVCR110.dll
 0005:00000990       __imp__fseek               004aa990     MSVCRT:MSVCR110.dll
 0005:00000994       __imp__fread               004aa994     MSVCRT:MSVCR110.dll
 0005:00000998       __imp__fopen               004aa998     MSVCRT:MSVCR110.dll
 0005:0000099c       __imp__feof                004aa99c     MSVCRT:MSVCR110.dll
 0005:000009a0       __imp__memchr              004aa9a0     MSVCRT:MSVCR110.dll
 0005:000009a4       __imp__ceil                004aa9a4     MSVCRT:MSVCR110.dll
 0005:000009a8       __imp__calloc              004aa9a8     MSVCRT:MSVCR110.dll
 0005:000009ac       __imp_??_V@YAXPAX@Z        004aa9ac     MSVCRT:MSVCR110.dll
 0005:000009b0       __imp___purecall           004aa9b0     MSVCRT:MSVCR110.dll
 0005:000009b4       __imp_??2@YAPAXI@Z         004aa9b4     MSVCRT:MSVCR110.dll
 0005:000009b8       __imp_??3@YAXPAX@Z         004aa9b8     MSVCRT:MSVCR110.dll
 0005:000009bc       __imp__atof                004aa9bc     MSVCRT:MSVCR110.dll
 0005:000009c0       __imp__atoi                004aa9c0     MSVCRT:MSVCR110.dll
 0005:000009c4       __imp__free                004aa9c4     MSVCRT:MSVCR110.dll
 0005:000009c8       __imp__malloc              004aa9c8     MSVCRT:MSVCR110.dll
 0005:000009cc       __imp__realloc             004aa9cc     MSVCRT:MSVCR110.dll
 0005:000009d0       __imp__exp                 004aa9d0     MSVCRT:MSVCR110.dll
 0005:000009d4       __imp__fabs                004aa9d4     MSVCRT:MSVCR110.dll
 0005:000009d8       __imp__pow                 004aa9d8     MSVCRT:MSVCR110.dll
 0005:000009dc       __imp__sqrt                004aa9dc     MSVCRT:MSVCR110.dll
 0005:000009e0       __imp__floor               004aa9e0     MSVCRT:MSVCR110.dll
 0005:000009e4       __imp__memmove             004aa9e4     MSVCRT:MSVCR110.dll
 0005:000009e8       __imp__memcpy              004aa9e8     MSVCRT:MSVCR110.dll
 0005:000009ec       __imp__memcpy_s            004aa9ec     MSVCRT:MSVCR110.dll
 0005:000009f0       __imp__memcmp              004aa9f0     MSVCRT:MSVCR110.dll
 0005:000009f4       __imp__memset              004aa9f4     MSVCRT:MSVCR110.dll
 0005:000009f8       __imp__strlen              004aa9f8     MSVCRT:MSVCR110.dll
 0005:000009fc       __imp__strtok              004aa9fc     MSVCRT:MSVCR110.dll
 0005:00000a00       __imp_??0exception@std@@QAE@ABQBDH@Z 004aaa00     MSVCRT:MSVCR110.dll
 0005:00000a04       __imp_??0exception@std@@QAE@ABV01@@Z 004aaa04     MSVCRT:MSVCR110.dll
 0005:00000a08       __imp_??1exception@std@@UAE@XZ 004aaa08     MSVCRT:MSVCR110.dll
 0005:00000a0c       __imp__fclose              004aaa0c     MSVCRT:MSVCR110.dll
 0005:00000a10       __imp__fflush              004aaa10     MSVCRT:MSVCR110.dll
 0005:00000a14       __imp__fgetc               004aaa14     MSVCRT:MSVCR110.dll
 0005:00000a18       __imp__fgetpos             004aaa18     MSVCRT:MSVCR110.dll
 0005:00000a1c       __imp__fputc               004aaa1c     MSVCRT:MSVCR110.dll
 0005:00000a20       __imp__fsetpos             004aaa20     MSVCRT:MSVCR110.dll
 0005:00000a24       __imp___fseeki64           004aaa24     MSVCRT:MSVCR110.dll
 0005:00000a28       __imp___vsnprintf          004aaa28     MSVCRT:MSVCR110.dll
 0005:00000a2c       __imp__printf              004aaa2c     MSVCRT:MSVCR110.dll
 0005:00000a30       __imp__setvbuf             004aaa30     MSVCRT:MSVCR110.dll
 0005:00000a34       __imp__sprintf_s           004aaa34     MSVCRT:MSVCR110.dll
 0005:00000a38       __imp__ungetc              004aaa38     MSVCRT:MSVCR110.dll
 0005:00000a3c       __imp___lock_file          004aaa3c     MSVCRT:MSVCR110.dll
 0005:00000a40       __imp___unlock_file        004aaa40     MSVCRT:MSVCR110.dll
 0005:00000a44       __imp___wassert            004aaa44     MSVCRT:MSVCR110.dll
 0005:00000a48       __imp_??0bad_cast@std@@QAE@PBD@Z 004aaa48     MSVCRT:MSVCR110.dll
 0005:00000a4c       __imp_??0bad_cast@std@@QAE@ABV01@@Z 004aaa4c     MSVCRT:MSVCR110.dll
 0005:00000a50       __imp_??1bad_cast@std@@UAE@XZ 004aaa50     MSVCRT:MSVCR110.dll
 0005:00000a54       __imp_?what@exception@std@@UBEPBDXZ 004aaa54     MSVCRT:MSVCR110.dll
 0005:00000a58       __imp___CxxThrowException@8 004aaa58     MSVCRT:MSVCR110.dll
 0005:00000a5c       __imp____CxxFrameHandler3  004aaa5c     MSVCRT:MSVCR110.dll
 0005:00000a60       __imp__cos                 004aaa60     MSVCRT:MSVCR110.dll
 0005:00000a64       __imp__sin                 004aaa64     MSVCRT:MSVCR110.dll
 0005:00000a68       __imp__tan                 004aaa68     MSVCRT:MSVCR110.dll
 0005:00000a6c       __imp____initenv           004aaa6c     MSVCRT:MSVCR110.dll
 0005:00000a70       \177MSVCR110_NULL_THUNK_DATA 004aaa70     MSVCRT:MSVCR110.dll
 0005:00000ae4       __imp__glLightfv@12        004aaae4     opengl32:OPENGL32.dll
 0005:00000ae8       __imp__glLineWidth@4       004aaae8     opengl32:OPENGL32.dll
 0005:00000aec       __imp__glLoadIdentity@0    004aaaec     opengl32:OPENGL32.dll
 0005:00000af0       __imp__glMaterialf@12      004aaaf0     opengl32:OPENGL32.dll
 0005:00000af4       __imp__glMaterialfv@12     004aaaf4     opengl32:OPENGL32.dll
 0005:00000af8       __imp__glMatrixMode@4      004aaaf8     opengl32:OPENGL32.dll
 0005:00000afc       __imp__glOrtho@48          004aaafc     opengl32:OPENGL32.dll
 0005:00000b00       __imp__glPixelStorei@8     004aab00     opengl32:OPENGL32.dll
 0005:00000b04       __imp__glPopAttrib@0       004aab04     opengl32:OPENGL32.dll
 0005:00000b08       __imp__glPushAttrib@4      004aab08     opengl32:OPENGL32.dll
 0005:00000b0c       __imp__glRasterPos2i@8     004aab0c     opengl32:OPENGL32.dll
 0005:00000b10       __imp__glReadBuffer@4      004aab10     opengl32:OPENGL32.dll
 0005:00000b14       __imp__glReadPixels@28     004aab14     opengl32:OPENGL32.dll
 0005:00000b18       __imp__glRotatef@16        004aab18     opengl32:OPENGL32.dll
 0005:00000b1c       __imp__glTranslatef@12     004aab1c     opengl32:OPENGL32.dll
 0005:00000b20       __imp__glVertex2f@8        004aab20     opengl32:OPENGL32.dll
 0005:00000b24       __imp__glVertex2i@8        004aab24     opengl32:OPENGL32.dll
 0005:00000b28       __imp__glVertex3f@12       004aab28     opengl32:OPENGL32.dll
 0005:00000b2c       __imp__glViewport@16       004aab2c     opengl32:OPENGL32.dll
 0005:00000b30       __imp__glBlendFunc@8       004aab30     opengl32:OPENGL32.dll
 0005:00000b34       __imp__glColor4f@16        004aab34     opengl32:OPENGL32.dll
 0005:00000b38       __imp__glDepthFunc@4       004aab38     opengl32:OPENGL32.dll
 0005:00000b3c       __imp__glPolygonMode@8     004aab3c     opengl32:OPENGL32.dll
 0005:00000b40       __imp__glPopMatrix@0       004aab40     opengl32:OPENGL32.dll
 0005:00000b44       __imp__glPushMatrix@0      004aab44     opengl32:OPENGL32.dll
 0005:00000b48       __imp__glShadeModel@4      004aab48     opengl32:OPENGL32.dll
 0005:00000b4c       __imp__glLightModelfv@8    004aab4c     opengl32:OPENGL32.dll
 0005:00000b50       __imp__glEnd@0             004aab50     opengl32:OPENGL32.dll
 0005:00000b54       __imp__glEnable@4          004aab54     opengl32:OPENGL32.dll
 0005:00000b58       __imp__glDisable@4         004aab58     opengl32:OPENGL32.dll
 0005:00000b5c       __imp__glColor3f@12        004aab5c     opengl32:OPENGL32.dll
 0005:00000b60       __imp__glClearDepth@8      004aab60     opengl32:OPENGL32.dll
 0005:00000b64       __imp__glClearColor@16     004aab64     opengl32:OPENGL32.dll
 0005:00000b68       __imp__glClear@4           004aab68     opengl32:OPENGL32.dll
 0005:00000b6c       __imp__glBegin@4           004aab6c     opengl32:OPENGL32.dll
 0005:00000b70       \177OPENGL32_NULL_THUNK_DATA 004aab70     opengl32:OPENGL32.dll
 0005:00000bb8       __imp___vcomp_fork         004aabb8     VCOMP:VCOMP110.DLL
 0005:00000bbc       __imp___vcomp_for_static_simple_init 004aabbc     VCOMP:VCOMP110.DLL
 0005:00000bc0       __imp___vcomp_for_static_end 004aabc0     VCOMP:VCOMP110.DLL
 0005:00000bc4       \177VCOMP110_NULL_THUNK_DATA 004aabc4     VCOMP:VCOMP110.DLL
 0005:00000bf0       __imp__glutPostRedisplay@0 004aabf0     glut32:glut32.dll
 0005:00000bf4       __imp__glutMainLoop@0      004aabf4     glut32:glut32.dll
 0005:00000bf8       __imp__glutDisplayFunc@4   004aabf8     glut32:glut32.dll
 0005:00000bfc       __imp__glutInitWindowSize@8 004aabfc     glut32:glut32.dll
 0005:00000c00       __imp__glutInitDisplayMode@4 004aac00     glut32:glut32.dll
 0005:00000c04       __imp__glutInit@8          004aac04     glut32:glut32.dll
 0005:00000c08       __imp__glutSwapBuffers@0   004aac08     glut32:glut32.dll
 0005:00000c0c       __imp__glutCreateWindow@4  004aac0c     glut32:glut32.dll
 0005:00000c10       __imp__glutReshapeFunc@4   004aac10     glut32:glut32.dll
 0005:00000c14       __imp__glutMouseFunc@4     004aac14     glut32:glut32.dll
 0005:00000c18       __imp__glutMotionFunc@4    004aac18     glut32:glut32.dll
 0005:00000c1c       __imp__glutGetModifiers@0  004aac1c     glut32:glut32.dll
 0005:00000c20       __imp__glutBitmapCharacter@8 004aac20     glut32:glut32.dll
 0005:00000c24       __imp__glutBitmapLength@8  004aac24     glut32:glut32.dll
 0005:00000c28       __imp__glutKeyboardFunc@4  004aac28     glut32:glut32.dll
 0005:00000c2c       __imp__glutTimerFunc@12    004aac2c     glut32:glut32.dll
 0005:00000c30       \177glut32_NULL_THUNK_DATA 004aac30     glut32:glut32.dll

 entry point at        0002:00001c48

