 Fluid3D

 Timestamp is 5318ed82 (Thu Mar 06 16:49:54 2014)

 Preferred load address is 00400000

 Start         Length     Name                   Class
 0001:00000000 000261e6H .textbss                DATA
 0002:00000000 0004dfe7H .text                   CODE
 0002:0004dff0 0000304bH .text$x                 CODE
 0002:00051040 000018ccH .text$yc                CODE
 0002:00052910 000012f8H .text$yd                CODE
 0003:00000000 00000104H .CRT$XCA                DATA
 0003:00000104 00000104H .CRT$XCAA               DATA
 0003:00000208 00000104H .CRT$XCL                DATA
 0003:0000030c 00000184H .CRT$XCU                DATA
 0003:00000490 00000104H .CRT$XCZ                DATA
 0003:00000594 00000104H .CRT$XIA                DATA
 0003:00000698 00000104H .CRT$XIAA               DATA
 0003:0000079c 00000109H .CRT$XIC                DATA
 0003:000008a8 00000104H .CRT$XIY                DATA
 0003:000009ac 00000104H .CRT$XIZ                DATA
 0003:00000ab0 00002429H .rdata                  DATA
 0003:00002edc 00000194H .rdata$debug            DATA
 0003:00003070 00000c20H .rdata$r                DATA
 0003:00003c90 00000104H .rtc$IAA                DATA
 0003:00003d94 00000104H .rtc$IZZ                DATA
 0003:00003e98 00000104H .rtc$TAA                DATA
 0003:00003f9c 00000104H .rtc$TZZ                DATA
 0003:000040a0 00002602H .xdata$x                DATA
 0003:000066a2 00000000H .edata                  DATA
 0004:00000000 00000c6eH .data                   DATA
 0004:00000c70 00000eb0H .bss                    DATA
 0005:00000000 00000078H .idata$2                DATA
 0005:00000078 00000014H .idata$3                DATA
 0005:0000008c 000005a4H .idata$4                DATA
 0005:00000630 000005a4H .idata$5                DATA
 0005:00000bd4 00002295H .idata$6                DATA
 0006:00000000 00000169H .rsrc$01                DATA
 0006:00000170 000002ccH .rsrc$02                DATA

  Address         Publics by Value              Rva+Base       Lib:Object

 0000:00000000       ___safe_se_handler_count   00000000     <absolute>
 0000:00000000       __except_list              00000000     <absolute>
 0000:00000000       ___safe_se_handler_table   00000000     <absolute>
 0000:00009876       __fltused                  00009876     <absolute>
 0000:00009876       __ldused                   00009876     <absolute>
 0000:00000000       ___ImageBase               00400000     <linker-defined>
 0001:00000000       __enc$textbss$begin        00401000     <linker-defined>
 0001:000261e6       __enc$textbss$end          004271e6     <linker-defined>
 0002:00004160       ??$?0M@?$Vec@$02H@@QAE@ABU?$Vec@$02M@@@Z 0042c160 f i fluidsim.obj
 0002:000041c0       ??$?5DU?$char_traits@D@std@@@std@@YAAAV?$basic_istream@DU?$char_traits@D@std@@@0@AAV10@AAD@Z 0042c1c0 f i fluidsim.obj
 0002:00004340       ??$?6$02M@@YAAAV?$basic_ostream@DU?$char_traits@D@std@@@std@@AAV01@ABU?$Vec@$02M@@@Z 0042c340 f i fluidsim.obj
 0002:000043d0       ??$?6DU?$char_traits@D@std@@V?$allocator@D@1@@std@@YAAAV?$basic_ostream@DU?$char_traits@D@std@@@0@AAV10@ABV?$basic_string@DU?$char_traits@D@std@@V?$allocator@D@2@@0@@Z 0042c3d0 f i fluidsim.obj
 0002:000047b0       ??$?6U?$char_traits@D@std@@@std@@YAAAV?$basic_ostream@DU?$char_traits@D@std@@@0@AAV10@D@Z 0042c7b0 f i fluidsim.obj
 0002:00004bf0       ??$?6U?$char_traits@D@std@@@std@@YAAAV?$basic_ostream@DU?$char_traits@D@std@@@0@AAV10@PBD@Z 0042cbf0 f i fluidsim.obj
 0002:00005080       ??$?8DU?$char_traits@D@std@@V?$allocator@D@1@@std@@YA_NABV?$basic_string@DU?$char_traits@D@std@@V?$allocator@D@2@@0@0@Z 0042d080 f i fluidsim.obj
 0002:000050c0       ??$?8II@std@@YA_NABV?$allocator@I@0@0@Z 0042d0c0 f i fluidsim.obj
 0002:000050e0       ??$?8NN@std@@YA_NABV?$allocator@N@0@0@Z 0042d0e0 f i fluidsim.obj
 0002:00005100       ??$?8V?$_Vector_iterator@V?$_Vector_val@U?$_Simple_types@I@std@@@std@@@std@@V01@@std@@YA_NABV?$move_iterator@V?$_Vector_iterator@V?$_Vector_val@U?$_Simple_types@I@std@@@std@@@std@@@0@0@Z 0042d100 f i fluidsim.obj
 0002:00005130       ??$?8V?$_Vector_iterator@V?$_Vector_val@U?$_Simple_types@N@std@@@std@@@std@@V01@@std@@YA_NABV?$move_iterator@V?$_Vector_iterator@V?$_Vector_val@U?$_Simple_types@N@std@@@std@@@std@@@0@0@Z 0042d130 f i fluidsim.obj
 0002:00005160       ??$?8V?$allocator@I@std@@V01@@std@@YA_NABU?$_Wrap_alloc@V?$allocator@I@std@@@0@0@Z 0042d160 f i fluidsim.obj
 0002:000051a0       ??$?8V?$allocator@N@std@@V01@@std@@YA_NABU?$_Wrap_alloc@V?$allocator@N@std@@@0@0@Z 0042d1a0 f i fluidsim.obj
 0002:000051e0       ??$?9DU?$char_traits@D@std@@V?$allocator@D@1@@std@@YA_NABV?$basic_string@DU?$char_traits@D@std@@V?$allocator@D@2@@0@0@Z 0042d1e0 f i fluidsim.obj
 0002:00005230       ??$?9V?$_Vector_iterator@V?$_Vector_val@U?$_Simple_types@I@std@@@std@@@std@@V01@@std@@YA_NABV?$move_iterator@V?$_Vector_iterator@V?$_Vector_val@U?$_Simple_types@I@std@@@std@@@std@@@0@0@Z 0042d230 f i fluidsim.obj
 0002:00005280       ??$?9V?$_Vector_iterator@V?$_Vector_val@U?$_Simple_types@N@std@@@std@@@std@@V01@@std@@YA_NABV?$move_iterator@V?$_Vector_iterator@V?$_Vector_val@U?$_Simple_types@N@std@@@std@@@std@@@0@0@Z 0042d280 f i fluidsim.obj
 0002:000052d0       ??$?9V?$allocator@I@std@@V01@@std@@YA_NABU?$_Wrap_alloc@V?$allocator@I@std@@@0@0@Z 0042d2d0 f i fluidsim.obj
 0002:00005320       ??$?9V?$allocator@N@std@@V01@@std@@YA_NABU?$_Wrap_alloc@V?$allocator@N@std@@@0@0@Z 0042d320 f i fluidsim.obj
 0002:00005370       ??$?D$02M@@YA?AU?$Vec@$02M@@MABU0@@Z 0042d370 f i fluidsim.obj
 0002:000053f0       ??$?GV?$_Vector_iterator@V?$_Vector_val@U?$_Simple_types@I@std@@@std@@@std@@V01@@std@@YAHAAV?$move_iterator@V?$_Vector_iterator@V?$_Vector_val@U?$_Simple_types@I@std@@@std@@@std@@@0@ABV10@@Z 0042d3f0 f i fluidsim.obj
 0002:00005430       ??$?GV?$_Vector_iterator@V?$_Vector_val@U?$_Simple_types@N@std@@@std@@@std@@V01@@std@@YAHAAV?$move_iterator@V?$_Vector_iterator@V?$_Vector_val@U?$_Simple_types@N@std@@@std@@@std@@@0@ABV10@@Z 0042d430 f i fluidsim.obj
 0002:00005470       ??$?HDU?$char_traits@D@std@@V?$allocator@D@1@@std@@YA?AV?$basic_string@DU?$char_traits@D@std@@V?$allocator@D@2@@0@$$QAV10@0@Z 0042d470 f i fluidsim.obj
 0002:00005550       ??$_Advance@PAIH@std@@YAXAAPAIHUrandom_access_iterator_tag@0@@Z 0042d550 f i fluidsim.obj
 0002:00005580       ??$_Advance@PANH@std@@YAXAAPANHUrandom_access_iterator_tag@0@@Z 0042d580 f i fluidsim.obj
 0002:000055b0       ??$_Allocate@D@std@@YAPADIPAD@Z 0042d5b0 f i fluidsim.obj
 0002:00005610       ??$_Allocate@I@std@@YAPAIIPAI@Z 0042d610 f i fluidsim.obj
 0002:00005670       ??$_Allocate@N@std@@YAPANIPAN@Z 0042d670 f i fluidsim.obj
 0002:000056d0       ??$_Allocate@U?$Vec@$02I@@@std@@YAPAU?$Vec@$02I@@IPAU1@@Z 0042d6d0 f i fluidsim.obj
 0002:00005730       ??$_Allocate@U?$Vec@$02M@@@std@@YAPAU?$Vec@$02M@@IPAU1@@Z 0042d730 f i fluidsim.obj
 0002:00005790       ??$_Allocate@V?$vector@IV?$allocator@I@std@@@std@@@std@@YAPAV?$vector@IV?$allocator@I@std@@@0@IPAV10@@Z 0042d790 f i fluidsim.obj
 0002:000057f0       ??$_Allocate@V?$vector@NV?$allocator@N@std@@@std@@@std@@YAPAV?$vector@NV?$allocator@N@std@@@0@IPAV10@@Z 0042d7f0 f i fluidsim.obj
 0002:00005850       ??$_Copy_backward@PANPAN@std@@YAPANPAN00@Z 0042d850 f i fluidsim.obj
 0002:000058a0       ??$_Copy_backward@PANPAN@std@@YAPANPAN00U_Scalar_ptr_iterator_tag@0@@Z 0042d8a0 f i fluidsim.obj
 0002:00005900       ??$_Copy_impl@PANPAN@std@@YAPANPAN00@Z 0042d900 f i fluidsim.obj
 0002:00005950       ??$_Copy_impl@PANPAN@std@@YAPANPAN00U_Scalar_ptr_iterator_tag@0@@Z 0042d950 f i fluidsim.obj
 0002:000059a0       ??$_Destroy_range@U?$_Wrap_alloc@V?$allocator@I@std@@@std@@@std@@YAXPAI0AAU?$_Wrap_alloc@V?$allocator@I@std@@@0@@Z 0042d9a0 f i fluidsim.obj
 0002:000059f0       ??$_Destroy_range@U?$_Wrap_alloc@V?$allocator@I@std@@@std@@@std@@YAXPAI0AAU?$_Wrap_alloc@V?$allocator@I@std@@@0@U_Scalar_ptr_iterator_tag@0@@Z 0042d9f0 f i fluidsim.obj
 0002:00005a10       ??$_Destroy_range@U?$_Wrap_alloc@V?$allocator@N@std@@@std@@@std@@YAXPAN0AAU?$_Wrap_alloc@V?$allocator@N@std@@@0@@Z 0042da10 f i fluidsim.obj
 0002:00005a60       ??$_Destroy_range@U?$_Wrap_alloc@V?$allocator@N@std@@@std@@@std@@YAXPAN0AAU?$_Wrap_alloc@V?$allocator@N@std@@@0@U_Scalar_ptr_iterator_tag@0@@Z 0042da60 f i fluidsim.obj
 0002:00005a80       ??$_Destroy_range@U?$_Wrap_alloc@V?$allocator@U?$Vec@$02I@@@std@@@std@@@std@@YAXPAU?$Vec@$02I@@0AAU?$_Wrap_alloc@V?$allocator@U?$Vec@$02I@@@std@@@0@@Z 0042da80 f i fluidsim.obj
 0002:00005ad0       ??$_Destroy_range@U?$_Wrap_alloc@V?$allocator@U?$Vec@$02I@@@std@@@std@@@std@@YAXPAU?$Vec@$02I@@0AAU?$_Wrap_alloc@V?$allocator@U?$Vec@$02I@@@std@@@0@U_Nonscalar_ptr_iterator_tag@0@@Z 0042dad0 f i fluidsim.obj
 0002:00005b10       ??$_Destroy_range@U?$_Wrap_alloc@V?$allocator@U?$Vec@$02M@@@std@@@std@@@std@@YAXPAU?$Vec@$02M@@0AAU?$_Wrap_alloc@V?$allocator@U?$Vec@$02M@@@std@@@0@@Z 0042db10 f i fluidsim.obj
 0002:00005b60       ??$_Destroy_range@U?$_Wrap_alloc@V?$allocator@U?$Vec@$02M@@@std@@@std@@@std@@YAXPAU?$Vec@$02M@@0AAU?$_Wrap_alloc@V?$allocator@U?$Vec@$02M@@@std@@@0@U_Nonscalar_ptr_iterator_tag@0@@Z 0042db60 f i fluidsim.obj
 0002:00005ba0       ??$_Destroy_range@U?$_Wrap_alloc@V?$allocator@V?$vector@IV?$allocator@I@std@@@std@@@std@@@std@@@std@@YAXPAV?$vector@IV?$allocator@I@std@@@0@0AAU?$_Wrap_alloc@V?$allocator@V?$vector@IV?$allocator@I@std@@@std@@@std@@@0@@Z 0042dba0 f i fluidsim.obj
 0002:00005bf0       ??$_Destroy_range@U?$_Wrap_alloc@V?$allocator@V?$vector@IV?$allocator@I@std@@@std@@@std@@@std@@@std@@YAXPAV?$vector@IV?$allocator@I@std@@@0@0AAU?$_Wrap_alloc@V?$allocator@V?$vector@IV?$allocator@I@std@@@std@@@std@@@0@U_Nonscalar_ptr_iterator_tag@0@@Z 0042dbf0 f i fluidsim.obj
 0002:00005c30       ??$_Destroy_range@U?$_Wrap_alloc@V?$allocator@V?$vector@NV?$allocator@N@std@@@std@@@std@@@std@@@std@@YAXPAV?$vector@NV?$allocator@N@std@@@0@0AAU?$_Wrap_alloc@V?$allocator@V?$vector@NV?$allocator@N@std@@@std@@@std@@@0@@Z 0042dc30 f i fluidsim.obj
 0002:00005c80       ??$_Destroy_range@U?$_Wrap_alloc@V?$allocator@V?$vector@NV?$allocator@N@std@@@std@@@std@@@std@@@std@@YAXPAV?$vector@NV?$allocator@N@std@@@0@0AAU?$_Wrap_alloc@V?$allocator@V?$vector@NV?$allocator@N@std@@@std@@@std@@@0@U_Nonscalar_ptr_iterator_tag@0@@Z 0042dc80 f i fluidsim.obj
 0002:00005cc0       ??$_Dist_type@PAI@std@@YAPAHPAI@Z 0042dcc0 f i fluidsim.obj
 0002:00005ce0       ??$_Dist_type@PAN@std@@YAPAHPAN@Z 0042dce0 f i fluidsim.obj
 0002:00005d00       ??$_Distance2@PAIH@std@@YAXPAI0AAHUrandom_access_iterator_tag@0@@Z 0042dd00 f i fluidsim.obj
 0002:00005d30       ??$_Distance2@PANH@std@@YAXPAN0AAHUrandom_access_iterator_tag@0@@Z 0042dd30 f i fluidsim.obj
 0002:00005d60       ??$_Distance2@V?$move_iterator@V?$_Vector_iterator@V?$_Vector_val@U?$_Simple_types@I@std@@@std@@@std@@@std@@I@std@@YAXV?$move_iterator@V?$_Vector_iterator@V?$_Vector_val@U?$_Simple_types@I@std@@@std@@@std@@@0@0AAIUrandom_access_iterator_tag@0@@Z 0042dd60 f i fluidsim.obj
 0002:00005da0       ??$_Distance2@V?$move_iterator@V?$_Vector_iterator@V?$_Vector_val@U?$_Simple_types@N@std@@@std@@@std@@@std@@I@std@@YAXV?$move_iterator@V?$_Vector_iterator@V?$_Vector_val@U?$_Simple_types@N@std@@@std@@@std@@@0@0AAIUrandom_access_iterator_tag@0@@Z 0042dda0 f i fluidsim.obj
 0002:00005de0       ??$_Distance@V?$move_iterator@V?$_Vector_iterator@V?$_Vector_val@U?$_Simple_types@I@std@@@std@@@std@@@std@@I@std@@YAXV?$move_iterator@V?$_Vector_iterator@V?$_Vector_val@U?$_Simple_types@I@std@@@std@@@std@@@0@0AAI@Z 0042dde0 f i fluidsim.obj
 0002:00005e30       ??$_Distance@V?$move_iterator@V?$_Vector_iterator@V?$_Vector_val@U?$_Simple_types@N@std@@@std@@@std@@@std@@I@std@@YAXV?$move_iterator@V?$_Vector_iterator@V?$_Vector_val@U?$_Simple_types@N@std@@@std@@@std@@@0@0AAI@Z 0042de30 f i fluidsim.obj
 0002:00005e80       ??$_Equal@V?$_Vector_iterator@V?$_Vector_val@U?$_Simple_types@I@std@@@std@@@std@@@?$move_iterator@V?$_Vector_iterator@V?$_Vector_val@U?$_Simple_types@I@std@@@std@@@std@@@std@@QBE_NABV01@@Z 0042de80 f i fluidsim.obj
 0002:00005ec0       ??$_Equal@V?$_Vector_iterator@V?$_Vector_val@U?$_Simple_types@N@std@@@std@@@std@@@?$move_iterator@V?$_Vector_iterator@V?$_Vector_val@U?$_Simple_types@N@std@@@std@@@std@@@std@@QBE_NABV01@@Z 0042dec0 f i fluidsim.obj
 0002:00005f00       ??$_Fgetc@D@std@@YA_NAADPAU_iobuf@@@Z 0042df00 f i fluidsim.obj
 0002:00005f50       ??$_Fill@PANN@std@@YAXPAN0ABN@Z 0042df50 f i fluidsim.obj
 0002:00005f90       ??$_Fill_n@PAIII@std@@YAPAIPAIIABI@Z 0042df90 f i fluidsim.obj
 0002:00005fe0       ??$_Fill_n@PANIN@std@@YAPANPANIABN@Z 0042dfe0 f i fluidsim.obj
 0002:00006030       ??$_Fputc@D@std@@YA_NDPAU_iobuf@@@Z 0042e030 f i fluidsim.obj
 0002:00006080       ??$_Insert@V?$move_iterator@V?$_Vector_iterator@V?$_Vector_val@U?$_Simple_types@I@std@@@std@@@std@@@std@@@?$vector@IV?$allocator@I@std@@@std@@QAEXV?$_Vector_const_iterator@V?$_Vector_val@U?$_Simple_types@I@std@@@std@@@1@V?$move_iterator@V?$_Vector_iterator@V?$_Vector_val@U?$_Simple_types@I@std@@@std@@@std@@@1@1Uforward_iterator_tag@1@@Z 0042e080 f i fluidsim.obj
 0002:00006370       ??$_Insert@V?$move_iterator@V?$_Vector_iterator@V?$_Vector_val@U?$_Simple_types@N@std@@@std@@@std@@@std@@@?$vector@NV?$allocator@N@std@@@std@@QAEXV?$_Vector_const_iterator@V?$_Vector_val@U?$_Simple_types@N@std@@@std@@@1@V?$move_iterator@V?$_Vector_iterator@V?$_Vector_val@U?$_Simple_types@N@std@@@std@@@std@@@1@1Uforward_iterator_tag@1@@Z 0042e370 f i fluidsim.obj
 0002:00006660       ??$_Iter_cat@PAI@std@@YA?AUrandom_access_iterator_tag@0@ABQAI@Z 0042e660 f i fluidsim.obj
 0002:00006690       ??$_Iter_cat@PAN@std@@YA?AUrandom_access_iterator_tag@0@ABQAN@Z 0042e690 f i fluidsim.obj
 0002:000066c0       ??$_Iter_cat@V?$move_iterator@V?$_Vector_iterator@V?$_Vector_val@U?$_Simple_types@I@std@@@std@@@std@@@std@@@std@@YA?AUrandom_access_iterator_tag@0@ABV?$move_iterator@V?$_Vector_iterator@V?$_Vector_val@U?$_Simple_types@I@std@@@std@@@std@@@0@@Z 0042e6c0 f i fluidsim.obj
 0002:000066f0       ??$_Iter_cat@V?$move_iterator@V?$_Vector_iterator@V?$_Vector_val@U?$_Simple_types@N@std@@@std@@@std@@@std@@@std@@YA?AUrandom_access_iterator_tag@0@ABV?$move_iterator@V?$_Vector_iterator@V?$_Vector_val@U?$_Simple_types@N@std@@@std@@@std@@@0@@Z 0042e6f0 f i fluidsim.obj
 0002:00006720       ??$_Move@AAI@std@@YA$$QAIAAI@Z 0042e720 f i fluidsim.obj
 0002:00006740       ??$_Move@AAN@std@@YA$$QANAAN@Z 0042e740 f i fluidsim.obj
 0002:00006760       ??$_Move@AAPAN@std@@YA$$QAPANAAPAN@Z 0042e760 f i fluidsim.obj
 0002:00006780       ??$_Move@AAV?$vector@NV?$allocator@N@std@@@std@@@std@@YA$$QAV?$vector@NV?$allocator@N@std@@@0@AAV10@@Z 0042e780 f i fluidsim.obj
 0002:000067a0       ??$_Move@PAIPAI@std@@YAPAIPAI00@Z 0042e7a0 f i fluidsim.obj
 0002:000067f0       ??$_Move@PAIPAI@std@@YAPAIPAI00U_Scalar_ptr_iterator_tag@0@@Z 0042e7f0 f i fluidsim.obj
 0002:00006840       ??$_Move@PANPAN@std@@YAPANPAN00@Z 0042e840 f i fluidsim.obj
 0002:00006890       ??$_Move@PANPAN@std@@YAPANPAN00U_Scalar_ptr_iterator_tag@0@@Z 0042e890 f i fluidsim.obj
 0002:000068e0       ??$_Move@PAV?$vector@IV?$allocator@I@std@@@std@@PAV12@@std@@YAPAV?$vector@IV?$allocator@I@std@@@0@PAV10@00@Z 0042e8e0 f i fluidsim.obj
 0002:00006930       ??$_Move@PAV?$vector@IV?$allocator@I@std@@@std@@PAV12@@std@@YAPAV?$vector@IV?$allocator@I@std@@@0@PAV10@00U_Nonscalar_ptr_iterator_tag@0@@Z 0042e930 f i fluidsim.obj
 0002:00006990       ??$_Move@PAV?$vector@NV?$allocator@N@std@@@std@@PAV12@@std@@YAPAV?$vector@NV?$allocator@N@std@@@0@PAV10@00@Z 0042e990 f i fluidsim.obj
 0002:000069e0       ??$_Move@PAV?$vector@NV?$allocator@N@std@@@std@@PAV12@@std@@YAPAV?$vector@NV?$allocator@N@std@@@0@PAV10@00U_Nonscalar_ptr_iterator_tag@0@@Z 0042e9e0 f i fluidsim.obj
 0002:00006a40       ??$_Ptr_cat@II@std@@YA?AU_Scalar_ptr_iterator_tag@0@PAI0@Z 0042ea40 f i fluidsim.obj
 0002:00006a60       ??$_Ptr_cat@NN@std@@YA?AU_Scalar_ptr_iterator_tag@0@PAN0@Z 0042ea60 f i fluidsim.obj
 0002:00006a80       ??$_Ptr_cat@U?$Vec@$02I@@U1@@std@@YA?AU_Nonscalar_ptr_iterator_tag@0@PAU?$Vec@$02I@@0@Z 0042ea80 f i fluidsim.obj
 0002:00006aa0       ??$_Ptr_cat@U?$Vec@$02M@@U1@@std@@YA?AU_Nonscalar_ptr_iterator_tag@0@PAU?$Vec@$02M@@0@Z 0042eaa0 f i fluidsim.obj
 0002:00006ac0       ??$_Ptr_cat@V?$move_iterator@V?$_Vector_iterator@V?$_Vector_val@U?$_Simple_types@I@std@@@std@@@std@@@std@@PAI@std@@YA?AU_Nonscalar_ptr_iterator_tag@0@AAV?$move_iterator@V?$_Vector_iterator@V?$_Vector_val@U?$_Simple_types@I@std@@@std@@@std@@@0@AAPAI@Z 0042eac0 f i fluidsim.obj
 0002:00006ae0       ??$_Ptr_cat@V?$move_iterator@V?$_Vector_iterator@V?$_Vector_val@U?$_Simple_types@N@std@@@std@@@std@@@std@@PAN@std@@YA?AU_Nonscalar_ptr_iterator_tag@0@AAV?$move_iterator@V?$_Vector_iterator@V?$_Vector_val@U?$_Simple_types@N@std@@@std@@@std@@@0@AAPAN@Z 0042eae0 f i fluidsim.obj
 0002:00006b00       ??$_Ptr_cat@V?$vector@IV?$allocator@I@std@@@std@@V12@@std@@YA?AU_Nonscalar_ptr_iterator_tag@0@PAV?$vector@IV?$allocator@I@std@@@0@0@Z 0042eb00 f i fluidsim.obj
 0002:00006b20       ??$_Ptr_cat@V?$vector@NV?$allocator@N@std@@@std@@V12@@std@@YA?AU_Nonscalar_ptr_iterator_tag@0@PAV?$vector@NV?$allocator@N@std@@@0@0@Z 0042eb20 f i fluidsim.obj
 0002:00006b40       ??$_Rotate@PAI@std@@YAXPAI00Urandom_access_iterator_tag@0@@Z 0042eb40 f i fluidsim.obj
 0002:00006b90       ??$_Rotate@PAIHI@std@@YAXPAI00PAH0@Z 0042eb90 f i fluidsim.obj
 0002:00006ce0       ??$_Rotate@PAN@std@@YAXPAN00Urandom_access_iterator_tag@0@@Z 0042ece0 f i fluidsim.obj
 0002:00006d30       ??$_Rotate@PANHN@std@@YAXPAN00PAH0@Z 0042ed30 f i fluidsim.obj
 0002:00006e80       ??$_Swap_adl@PAN@std@@YAXAAPAN0@Z 0042ee80 f i fluidsim.obj
 0002:00006eb0       ??$_Ucopy@PAN@?$vector@NV?$allocator@N@std@@@std@@IAEPANPAN00@Z 0042eeb0 f i fluidsim.obj
 0002:00006f00       ??$_Ucopy@V?$move_iterator@V?$_Vector_iterator@V?$_Vector_val@U?$_Simple_types@I@std@@@std@@@std@@@std@@@?$vector@IV?$allocator@I@std@@@std@@IAEPAIV?$move_iterator@V?$_Vector_iterator@V?$_Vector_val@U?$_Simple_types@I@std@@@std@@@std@@@1@0PAI@Z 0042ef00 f i fluidsim.obj
 0002:00006f50       ??$_Ucopy@V?$move_iterator@V?$_Vector_iterator@V?$_Vector_val@U?$_Simple_types@N@std@@@std@@@std@@@std@@@?$vector@NV?$allocator@N@std@@@std@@IAEPANV?$move_iterator@V?$_Vector_iterator@V?$_Vector_val@U?$_Simple_types@N@std@@@std@@@std@@@1@0PAN@Z 0042ef50 f i fluidsim.obj
 0002:00006fa0       ??$_Umove@PAI@?$vector@IV?$allocator@I@std@@@std@@IAEPAIPAI00@Z 0042efa0 f i fluidsim.obj
 0002:00006ff0       ??$_Umove@PAN@?$vector@NV?$allocator@N@std@@@std@@IAEPANPAN00@Z 0042eff0 f i fluidsim.obj
 0002:00007040       ??$_Umove@PAU?$Vec@$02I@@@?$vector@U?$Vec@$02I@@V?$allocator@U?$Vec@$02I@@@std@@@std@@IAEPAU?$Vec@$02I@@PAU2@00@Z 0042f040 f i fluidsim.obj
 0002:00007090       ??$_Umove@PAU?$Vec@$02M@@@?$vector@U?$Vec@$02M@@V?$allocator@U?$Vec@$02M@@@std@@@std@@IAEPAU?$Vec@$02M@@PAU2@00@Z 0042f090 f i fluidsim.obj
 0002:000070e0       ??$_Umove@PAV?$vector@IV?$allocator@I@std@@@std@@@?$vector@V?$vector@IV?$allocator@I@std@@@std@@V?$allocator@V?$vector@IV?$allocator@I@std@@@std@@@2@@std@@IAEPAV?$vector@IV?$allocator@I@std@@@1@PAV21@00@Z 0042f0e0 f i fluidsim.obj
 0002:00007130       ??$_Umove@PAV?$vector@NV?$allocator@N@std@@@std@@@?$vector@V?$vector@NV?$allocator@N@std@@@std@@V?$allocator@V?$vector@NV?$allocator@N@std@@@std@@@2@@std@@IAEPAV?$vector@NV?$allocator@N@std@@@1@PAV21@00@Z 0042f130 f i fluidsim.obj
 0002:00007180       ??$_Unchecked@PAI@std@@YAPAIPAI@Z 0042f180 f i fluidsim.obj
 0002:000071a0       ??$_Unchecked@PAN@std@@YAPANPAN@Z 0042f1a0 f i fluidsim.obj
 0002:000071c0       ??$_Ungetc@D@std@@YA_NABDPAU_iobuf@@@Z 0042f1c0 f i fluidsim.obj
 0002:00007210       ??$_Uninit_copy@NN@std@@YAPANPAN00AAU?$_Wrap_alloc@V?$allocator@N@std@@@0@U_Scalar_ptr_iterator_tag@0@@Z 0042f210 f i fluidsim.obj
 0002:00007260       ??$_Uninit_copy@V?$move_iterator@V?$_Vector_iterator@V?$_Vector_val@U?$_Simple_types@I@std@@@std@@@std@@@std@@PAIV?$allocator@I@2@@std@@YAPAIV?$move_iterator@V?$_Vector_iterator@V?$_Vector_val@U?$_Simple_types@I@std@@@std@@@std@@@0@0PAIAAU?$_Wrap_alloc@V?$allocator@I@std@@@0@U_Nonscalar_ptr_iterator_tag@0@@Z 0042f260 f i fluidsim.obj
 0002:00007380       ??$_Uninit_copy@V?$move_iterator@V?$_Vector_iterator@V?$_Vector_val@U?$_Simple_types@N@std@@@std@@@std@@@std@@PANV?$allocator@N@2@@std@@YAPANV?$move_iterator@V?$_Vector_iterator@V?$_Vector_val@U?$_Simple_types@N@std@@@std@@@std@@@0@0PANAAU?$_Wrap_alloc@V?$allocator@N@std@@@0@U_Nonscalar_ptr_iterator_tag@0@@Z 0042f380 f i fluidsim.obj
 0002:000074a0       ??$_Uninit_def_fill_n@III@std@@YAXPAIIAAU?$_Wrap_alloc@V?$allocator@I@std@@@0@0U_Scalar_ptr_iterator_tag@0@@Z 0042f4a0 f i fluidsim.obj
 0002:000074e0       ??$_Uninit_def_fill_n@NIN@std@@YAXPANIAAU?$_Wrap_alloc@V?$allocator@N@std@@@0@0U_Scalar_ptr_iterator_tag@0@@Z 0042f4e0 f i fluidsim.obj
 0002:00007520       ??$_Uninit_def_fill_n@PAV?$vector@IV?$allocator@I@std@@@std@@IV?$allocator@V?$vector@IV?$allocator@I@std@@@std@@@2@V12@@std@@YAXPAV?$vector@IV?$allocator@I@std@@@0@IAAU?$_Wrap_alloc@V?$allocator@V?$vector@IV?$allocator@I@std@@@std@@@std@@@0@0U_Nonscalar_ptr_iterator_tag@0@@Z 0042f520 f i fluidsim.obj
 0002:00007610       ??$_Uninit_def_fill_n@PAV?$vector@NV?$allocator@N@std@@@std@@IV?$allocator@V?$vector@NV?$allocator@N@std@@@std@@@2@V12@@std@@YAXPAV?$vector@NV?$allocator@N@std@@@0@IAAU?$_Wrap_alloc@V?$allocator@V?$vector@NV?$allocator@N@std@@@std@@@std@@@0@0U_Nonscalar_ptr_iterator_tag@0@@Z 0042f610 f i fluidsim.obj
 0002:00007700       ??$_Uninit_fill_n@NINN@std@@YAXPANIPBNAAU?$_Wrap_alloc@V?$allocator@N@std@@@0@0U_Scalar_ptr_iterator_tag@0@@Z 0042f700 f i fluidsim.obj
 0002:00007730       ??$_Uninit_move@III@std@@YAPAIPAI00AAU?$_Wrap_alloc@V?$allocator@I@std@@@0@0U_Scalar_ptr_iterator_tag@0@@Z 0042f730 f i fluidsim.obj
 0002:00007780       ??$_Uninit_move@NNN@std@@YAPANPAN00AAU?$_Wrap_alloc@V?$allocator@N@std@@@0@0U_Scalar_ptr_iterator_tag@0@@Z 0042f780 f i fluidsim.obj
 0002:000077d0       ??$_Uninit_move@PAU?$Vec@$02I@@PAU1@V?$allocator@U?$Vec@$02I@@@std@@U1@@std@@YAPAU?$Vec@$02I@@PAU1@00AAU?$_Wrap_alloc@V?$allocator@U?$Vec@$02I@@@std@@@0@0U_Nonscalar_ptr_iterator_tag@0@@Z 0042f7d0 f i fluidsim.obj
 0002:000078c0       ??$_Uninit_move@PAU?$Vec@$02M@@PAU1@V?$allocator@U?$Vec@$02M@@@std@@U1@@std@@YAPAU?$Vec@$02M@@PAU1@00AAU?$_Wrap_alloc@V?$allocator@U?$Vec@$02M@@@std@@@0@0U_Nonscalar_ptr_iterator_tag@0@@Z 0042f8c0 f i fluidsim.obj
 0002:000079b0       ??$_Uninit_move@PAV?$vector@IV?$allocator@I@std@@@std@@PAV12@V?$allocator@V?$vector@IV?$allocator@I@std@@@std@@@2@V12@@std@@YAPAV?$vector@IV?$allocator@I@std@@@0@PAV10@00AAU?$_Wrap_alloc@V?$allocator@V?$vector@IV?$allocator@I@std@@@std@@@std@@@0@0U_Nonscalar_ptr_iterator_tag@0@@Z 0042f9b0 f i fluidsim.obj
 0002:00007aa0       ??$_Uninit_move@PAV?$vector@NV?$allocator@N@std@@@std@@PAV12@V?$allocator@V?$vector@NV?$allocator@N@std@@@std@@@2@V12@@std@@YAPAV?$vector@NV?$allocator@N@std@@@0@PAV10@00AAU?$_Wrap_alloc@V?$allocator@V?$vector@NV?$allocator@N@std@@@std@@@std@@@0@0U_Nonscalar_ptr_iterator_tag@0@@Z 0042faa0 f i fluidsim.obj
 0002:00007b90       ??$_Uninitialized_copy@PANPANU?$_Wrap_alloc@V?$allocator@N@std@@@std@@@std@@YAPANPAN00AAU?$_Wrap_alloc@V?$allocator@N@std@@@0@@Z 0042fb90 f i fluidsim.obj
 0002:00007be0       ??$_Uninitialized_copy@V?$move_iterator@V?$_Vector_iterator@V?$_Vector_val@U?$_Simple_types@I@std@@@std@@@std@@@std@@PAIU?$_Wrap_alloc@V?$allocator@I@std@@@2@@std@@YAPAIV?$move_iterator@V?$_Vector_iterator@V?$_Vector_val@U?$_Simple_types@I@std@@@std@@@std@@@0@0PAIAAU?$_Wrap_alloc@V?$allocator@I@std@@@0@@Z 0042fbe0 f i fluidsim.obj
 0002:00007c30       ??$_Uninitialized_copy@V?$move_iterator@V?$_Vector_iterator@V?$_Vector_val@U?$_Simple_types@N@std@@@std@@@std@@@std@@PANU?$_Wrap_alloc@V?$allocator@N@std@@@2@@std@@YAPANV?$move_iterator@V?$_Vector_iterator@V?$_Vector_val@U?$_Simple_types@N@std@@@std@@@std@@@0@0PANAAU?$_Wrap_alloc@V?$allocator@N@std@@@0@@Z 0042fc30 f i fluidsim.obj
 0002:00007c80       ??$_Uninitialized_default_fill_n@PAIIU?$_Wrap_alloc@V?$allocator@I@std@@@std@@@std@@YAXPAIIAAU?$_Wrap_alloc@V?$allocator@I@std@@@0@@Z 0042fc80 f i fluidsim.obj
 0002:00007ce0       ??$_Uninitialized_default_fill_n@PANIU?$_Wrap_alloc@V?$allocator@N@std@@@std@@@std@@YAXPANIAAU?$_Wrap_alloc@V?$allocator@N@std@@@0@@Z 0042fce0 f i fluidsim.obj
 0002:00007d40       ??$_Uninitialized_default_fill_n@PAV?$vector@IV?$allocator@I@std@@@std@@IU?$_Wrap_alloc@V?$allocator@V?$vector@IV?$allocator@I@std@@@std@@@std@@@2@@std@@YAXPAV?$vector@IV?$allocator@I@std@@@0@IAAU?$_Wrap_alloc@V?$allocator@V?$vector@IV?$allocator@I@std@@@std@@@std@@@0@@Z 0042fd40 f i fluidsim.obj
 0002:00007da0       ??$_Uninitialized_default_fill_n@PAV?$vector@NV?$allocator@N@std@@@std@@IU?$_Wrap_alloc@V?$allocator@V?$vector@NV?$allocator@N@std@@@std@@@std@@@2@@std@@YAXPAV?$vector@NV?$allocator@N@std@@@0@IAAU?$_Wrap_alloc@V?$allocator@V?$vector@NV?$allocator@N@std@@@std@@@std@@@0@@Z 0042fda0 f i fluidsim.obj
 0002:00007e00       ??$_Uninitialized_fill_n@PANINU?$_Wrap_alloc@V?$allocator@N@std@@@std@@@std@@YAXPANIPBNAAU?$_Wrap_alloc@V?$allocator@N@std@@@0@@Z 0042fe00 f i fluidsim.obj
 0002:00007e60       ??$_Uninitialized_move@PAIPAIU?$_Wrap_alloc@V?$allocator@I@std@@@std@@@std@@YAPAIPAI00AAU?$_Wrap_alloc@V?$allocator@I@std@@@0@@Z 0042fe60 f i fluidsim.obj
 0002:00007ec0       ??$_Uninitialized_move@PANPANU?$_Wrap_alloc@V?$allocator@N@std@@@std@@@std@@YAPANPAN00AAU?$_Wrap_alloc@V?$allocator@N@std@@@0@@Z 0042fec0 f i fluidsim.obj
 0002:00007f20       ??$_Uninitialized_move@PAU?$Vec@$02I@@PAU1@U?$_Wrap_alloc@V?$allocator@U?$Vec@$02I@@@std@@@std@@@std@@YAPAU?$Vec@$02I@@PAU1@00AAU?$_Wrap_alloc@V?$allocator@U?$Vec@$02I@@@std@@@0@@Z 0042ff20 f i fluidsim.obj
 0002:00007f80       ??$_Uninitialized_move@PAU?$Vec@$02M@@PAU1@U?$_Wrap_alloc@V?$allocator@U?$Vec@$02M@@@std@@@std@@@std@@YAPAU?$Vec@$02M@@PAU1@00AAU?$_Wrap_alloc@V?$allocator@U?$Vec@$02M@@@std@@@0@@Z 0042ff80 f i fluidsim.obj
 0002:00007fe0       ??$_Uninitialized_move@PAV?$vector@IV?$allocator@I@std@@@std@@PAV12@U?$_Wrap_alloc@V?$allocator@V?$vector@IV?$allocator@I@std@@@std@@@std@@@2@@std@@YAPAV?$vector@IV?$allocator@I@std@@@0@PAV10@00AAU?$_Wrap_alloc@V?$allocator@V?$vector@IV?$allocator@I@std@@@std@@@std@@@0@@Z 0042ffe0 f i fluidsim.obj
 0002:00008040       ??$_Uninitialized_move@PAV?$vector@NV?$allocator@N@std@@@std@@PAV12@U?$_Wrap_alloc@V?$allocator@V?$vector@NV?$allocator@N@std@@@std@@@std@@@2@@std@@YAPAV?$vector@NV?$allocator@N@std@@@0@PAV10@00AAU?$_Wrap_alloc@V?$allocator@V?$vector@NV?$allocator@N@std@@@std@@@std@@@0@@Z 00430040 f i fluidsim.obj
 0002:000080a0       ??$_Val_type@PAI@std@@YAPAIPAI@Z 004300a0 f i fluidsim.obj
 0002:000080c0       ??$_Val_type@PAN@std@@YAPANPAN@Z 004300c0 f i fluidsim.obj
 0002:000080e0       ??$_Val_type@PAU?$Vec@$02I@@@std@@YAPAU?$Vec@$02I@@PAU1@@Z 004300e0 f i fluidsim.obj
 0002:00008100       ??$_Val_type@PAU?$Vec@$02M@@@std@@YAPAU?$Vec@$02M@@PAU1@@Z 00430100 f i fluidsim.obj
 0002:00008120       ??$_Val_type@PAV?$vector@IV?$allocator@I@std@@@std@@@std@@YAPAV?$vector@IV?$allocator@I@std@@@0@PAV10@@Z 00430120 f i fluidsim.obj
 0002:00008140       ??$_Val_type@PAV?$vector@NV?$allocator@N@std@@@std@@@std@@YAPAV?$vector@NV?$allocator@N@std@@@0@PAV10@@Z 00430140 f i fluidsim.obj
 0002:00008160       ??$addressof@$$CBI@std@@YAPBIABI@Z 00430160 f i fluidsim.obj
 0002:00008180       ??$addressof@$$CBN@std@@YAPBNABN@Z 00430180 f i fluidsim.obj
 0002:000081a0       ??$addressof@$$CBU?$Vec@$02M@@@std@@YAPBU?$Vec@$02M@@ABU1@@Z 004301a0 f i fluidsim.obj
 0002:000081c0       ??$addressof@D@std@@YAPADAAD@Z 004301c0 f i fluidsim.obj
 0002:000081e0       ??$addressof@N@std@@YAPANAAN@Z 004301e0 f i fluidsim.obj
 0002:00008200       ??$addressof@U?$Vec@$02I@@@std@@YAPAU?$Vec@$02I@@AAU1@@Z 00430200 f i fluidsim.obj
 0002:00008220       ??$advance@PAIH@std@@YAXAAPAIH@Z 00430220 f i fluidsim.obj
 0002:00008270       ??$advance@PANH@std@@YAXAAPANH@Z 00430270 f i fluidsim.obj
 0002:000082c0       ??$assign@V?$move_iterator@V?$_Vector_iterator@V?$_Vector_val@U?$_Simple_types@I@std@@@std@@@std@@@std@@@?$vector@IV?$allocator@I@std@@@std@@QAEXV?$move_iterator@V?$_Vector_iterator@V?$_Vector_val@U?$_Simple_types@I@std@@@std@@@std@@@1@0@Z 004302c0 f i fluidsim.obj
 0002:00008360       ??$assign@V?$move_iterator@V?$_Vector_iterator@V?$_Vector_val@U?$_Simple_types@N@std@@@std@@@std@@@std@@@?$vector@NV?$allocator@N@std@@@std@@QAEXV?$move_iterator@V?$_Vector_iterator@V?$_Vector_val@U?$_Simple_types@N@std@@@std@@@std@@@1@0@Z 00430360 f i fluidsim.obj
 0002:00008400       ??$bilerp@MM@@YAMABM000MM@Z 00430400 f i fluidsim.obj
 0002:00008480       ??$clamp@M@@YAMMMM@Z       00430480 f i fluidsim.obj
 0002:000084d0       ??$construct@IAAI@?$_Wrap_alloc@V?$allocator@I@std@@@std@@QAEXPAIAAI@Z 004304d0 f i fluidsim.obj
 0002:00008510       ??$construct@IAAI@?$allocator@I@std@@QAEXPAIAAI@Z 00430510 f i fluidsim.obj
 0002:000085c0       ??$construct@IAAI@?$allocator_traits@V?$allocator@I@std@@@std@@SAXAAV?$allocator@I@1@PAIAAI@Z 004305c0 f i fluidsim.obj
 0002:00008600       ??$construct@IABI@?$_Wrap_alloc@V?$allocator@I@std@@@std@@QAEXPAIABI@Z 00430600 f i fluidsim.obj
 0002:00008640       ??$construct@IABI@?$allocator_traits@V?$allocator@I@std@@@std@@SAXAAV?$allocator@I@1@PAIABI@Z 00430640 f i fluidsim.obj
 0002:00008680       ??$construct@II@?$_Wrap_alloc@V?$allocator@I@std@@@std@@QAEXPAI$$QAI@Z 00430680 f i fluidsim.obj
 0002:000086c0       ??$construct@II@?$allocator@I@std@@QAEXPAI$$QAI@Z 004306c0 f i fluidsim.obj
 0002:00008770       ??$construct@II@?$allocator_traits@V?$allocator@I@std@@@std@@SAXAAV?$allocator@I@1@PAI$$QAI@Z 00430770 f i fluidsim.obj
 0002:000087b0       ??$construct@NAAN@?$_Wrap_alloc@V?$allocator@N@std@@@std@@QAEXPANAAN@Z 004307b0 f i fluidsim.obj
 0002:000087f0       ??$construct@NAAN@?$allocator@N@std@@QAEXPANAAN@Z 004307f0 f i fluidsim.obj
 0002:000088b0       ??$construct@NAAN@?$allocator_traits@V?$allocator@N@std@@@std@@SAXAAV?$allocator@N@1@PANAAN@Z 004308b0 f i fluidsim.obj
 0002:000088f0       ??$construct@NABN@?$_Wrap_alloc@V?$allocator@N@std@@@std@@QAEXPANABN@Z 004308f0 f i fluidsim.obj
 0002:00008930       ??$construct@NABN@?$allocator_traits@V?$allocator@N@std@@@std@@SAXAAV?$allocator@N@1@PANABN@Z 00430930 f i fluidsim.obj
 0002:00008970       ??$construct@NN@?$_Wrap_alloc@V?$allocator@N@std@@@std@@QAEXPAN$$QAN@Z 00430970 f i fluidsim.obj
 0002:000089b0       ??$construct@NN@?$allocator@N@std@@QAEXPAN$$QAN@Z 004309b0 f i fluidsim.obj
 0002:00008a70       ??$construct@NN@?$allocator_traits@V?$allocator@N@std@@@std@@SAXAAV?$allocator@N@1@PAN$$QAN@Z 00430a70 f i fluidsim.obj
 0002:00008ab0       ??$construct@PADAAPAD@?$_Wrap_alloc@V?$allocator@D@std@@@std@@QAEXPAPADAAPAD@Z 00430ab0 f i fluidsim.obj
 0002:00008af0       ??$construct@PADAAPAD@?$allocator@D@std@@QAEXPAPADAAPAD@Z 00430af0 f i fluidsim.obj
 0002:00008ba0       ??$construct@PADAAPAD@?$allocator_traits@V?$allocator@D@std@@@std@@SAXAAV?$allocator@D@1@PAPADAAPAD@Z 00430ba0 f i fluidsim.obj
 0002:00008be0       ??$construct@U?$Vec@$02I@@U1@@?$_Wrap_alloc@V?$allocator@U?$Vec@$02I@@@std@@@std@@QAEXPAU?$Vec@$02I@@$$QAU2@@Z 00430be0 f i fluidsim.obj
 0002:00008c20       ??$construct@U?$Vec@$02I@@U1@@?$allocator@U?$Vec@$02I@@@std@@QAEXPAU?$Vec@$02I@@$$QAU2@@Z 00430c20 f i fluidsim.obj
 0002:00008ce0       ??$construct@U?$Vec@$02I@@U1@@?$allocator_traits@V?$allocator@U?$Vec@$02I@@@std@@@std@@SAXAAV?$allocator@U?$Vec@$02I@@@1@PAU?$Vec@$02I@@$$QAU3@@Z 00430ce0 f i fluidsim.obj
 0002:00008d20       ??$construct@U?$Vec@$02M@@AAU1@@?$_Wrap_alloc@V?$allocator@U?$Vec@$02M@@@std@@@std@@QAEXPAU?$Vec@$02M@@AAU2@@Z 00430d20 f i fluidsim.obj
 0002:00008d60       ??$construct@U?$Vec@$02M@@AAU1@@?$allocator@U?$Vec@$02M@@@std@@QAEXPAU?$Vec@$02M@@AAU2@@Z 00430d60 f i fluidsim.obj
 0002:00008e20       ??$construct@U?$Vec@$02M@@AAU1@@?$allocator_traits@V?$allocator@U?$Vec@$02M@@@std@@@std@@SAXAAV?$allocator@U?$Vec@$02M@@@1@PAU?$Vec@$02M@@AAU3@@Z 00430e20 f i fluidsim.obj
 0002:00008e60       ??$construct@U?$Vec@$02M@@ABU1@@?$_Wrap_alloc@V?$allocator@U?$Vec@$02M@@@std@@@std@@QAEXPAU?$Vec@$02M@@ABU2@@Z 00430e60 f i fluidsim.obj
 0002:00008ea0       ??$construct@U?$Vec@$02M@@ABU1@@?$allocator_traits@V?$allocator@U?$Vec@$02M@@@std@@@std@@SAXAAV?$allocator@U?$Vec@$02M@@@1@PAU?$Vec@$02M@@ABU3@@Z 00430ea0 f i fluidsim.obj
 0002:00008ee0       ??$construct@U?$Vec@$02M@@U1@@?$_Wrap_alloc@V?$allocator@U?$Vec@$02M@@@std@@@std@@QAEXPAU?$Vec@$02M@@$$QAU2@@Z 00430ee0 f i fluidsim.obj
 0002:00008f20       ??$construct@U?$Vec@$02M@@U1@@?$allocator@U?$Vec@$02M@@@std@@QAEXPAU?$Vec@$02M@@$$QAU2@@Z 00430f20 f i fluidsim.obj
 0002:00008fe0       ??$construct@U?$Vec@$02M@@U1@@?$allocator_traits@V?$allocator@U?$Vec@$02M@@@std@@@std@@SAXAAV?$allocator@U?$Vec@$02M@@@1@PAU?$Vec@$02M@@$$QAU3@@Z 00430fe0 f i fluidsim.obj
 0002:00009020       ??$construct@V?$vector@IV?$allocator@I@std@@@std@@@?$allocator_traits@V?$allocator@V?$vector@IV?$allocator@I@std@@@std@@@std@@@std@@SAXAAV?$allocator@V?$vector@IV?$allocator@I@std@@@std@@@1@PAV?$vector@IV?$allocator@I@std@@@1@@Z 00431020 f i fluidsim.obj
 0002:00009050       ??$construct@V?$vector@IV?$allocator@I@std@@@std@@V12@@?$_Wrap_alloc@V?$allocator@V?$vector@IV?$allocator@I@std@@@std@@@std@@@std@@QAEXPAV?$vector@IV?$allocator@I@std@@@1@$$QAV21@@Z 00431050 f i fluidsim.obj
 0002:00009090       ??$construct@V?$vector@IV?$allocator@I@std@@@std@@V12@@?$allocator@V?$vector@IV?$allocator@I@std@@@std@@@std@@QAEXPAV?$vector@IV?$allocator@I@std@@@1@$$QAV21@@Z 00431090 f i fluidsim.obj
 0002:00009140       ??$construct@V?$vector@IV?$allocator@I@std@@@std@@V12@@?$allocator_traits@V?$allocator@V?$vector@IV?$allocator@I@std@@@std@@@std@@@std@@SAXAAV?$allocator@V?$vector@IV?$allocator@I@std@@@std@@@1@PAV?$vector@IV?$allocator@I@std@@@1@$$QAV31@@Z 00431140 f i fluidsim.obj
 0002:00009180       ??$construct@V?$vector@NV?$allocator@N@std@@@std@@@?$allocator_traits@V?$allocator@V?$vector@NV?$allocator@N@std@@@std@@@std@@@std@@SAXAAV?$allocator@V?$vector@NV?$allocator@N@std@@@std@@@1@PAV?$vector@NV?$allocator@N@std@@@1@@Z 00431180 f i fluidsim.obj
 0002:000091b0       ??$construct@V?$vector@NV?$allocator@N@std@@@std@@V12@@?$_Wrap_alloc@V?$allocator@V?$vector@NV?$allocator@N@std@@@std@@@std@@@std@@QAEXPAV?$vector@NV?$allocator@N@std@@@1@$$QAV21@@Z 004311b0 f i fluidsim.obj
 0002:000091f0       ??$construct@V?$vector@NV?$allocator@N@std@@@std@@V12@@?$allocator@V?$vector@NV?$allocator@N@std@@@std@@@std@@QAEXPAV?$vector@NV?$allocator@N@std@@@1@$$QAV21@@Z 004311f0 f i fluidsim.obj
 0002:000092a0       ??$construct@V?$vector@NV?$allocator@N@std@@@std@@V12@@?$allocator_traits@V?$allocator@V?$vector@NV?$allocator@N@std@@@std@@@std@@@std@@SAXAAV?$allocator@V?$vector@NV?$allocator@N@std@@@std@@@1@PAV?$vector@NV?$allocator@N@std@@@1@$$QAV31@@Z 004312a0 f i fluidsim.obj
 0002:000092e0       ??$destroy@I@?$_Wrap_alloc@V?$allocator@I@std@@@std@@QAEXPAI@Z 004312e0 f i fluidsim.obj
 0002:00009310       ??$destroy@I@?$allocator@I@std@@QAEXPAI@Z 00431310 f i fluidsim.obj
 0002:00009330       ??$destroy@I@?$allocator_traits@V?$allocator@I@std@@@std@@SAXAAV?$allocator@I@1@PAI@Z 00431330 f i fluidsim.obj
 0002:00009360       ??$destroy@N@?$_Wrap_alloc@V?$allocator@N@std@@@std@@QAEXPAN@Z 00431360 f i fluidsim.obj
 0002:00009390       ??$destroy@N@?$allocator@N@std@@QAEXPAN@Z 00431390 f i fluidsim.obj
 0002:000093b0       ??$destroy@N@?$allocator_traits@V?$allocator@N@std@@@std@@SAXAAV?$allocator@N@1@PAN@Z 004313b0 f i fluidsim.obj
 0002:000093e0       ??$destroy@PAD@?$_Wrap_alloc@V?$allocator@D@std@@@std@@QAEXPAPAD@Z 004313e0 f i fluidsim.obj
 0002:00009410       ??$destroy@PAD@?$allocator@D@std@@QAEXPAPAD@Z 00431410 f i fluidsim.obj
 0002:00009430       ??$destroy@PAD@?$allocator_traits@V?$allocator@D@std@@@std@@SAXAAV?$allocator@D@1@PAPAD@Z 00431430 f i fluidsim.obj
 0002:00009460       ??$destroy@U?$Vec@$02I@@@?$_Wrap_alloc@V?$allocator@U?$Vec@$02I@@@std@@@std@@QAEXPAU?$Vec@$02I@@@Z 00431460 f i fluidsim.obj
 0002:00009490       ??$destroy@U?$Vec@$02I@@@?$allocator@U?$Vec@$02I@@@std@@QAEXPAU?$Vec@$02I@@@Z 00431490 f i fluidsim.obj
 0002:000094b0       ??$destroy@U?$Vec@$02I@@@?$allocator_traits@V?$allocator@U?$Vec@$02I@@@std@@@std@@SAXAAV?$allocator@U?$Vec@$02I@@@1@PAU?$Vec@$02I@@@Z 004314b0 f i fluidsim.obj
 0002:000094e0       ??$destroy@U?$Vec@$02M@@@?$_Wrap_alloc@V?$allocator@U?$Vec@$02M@@@std@@@std@@QAEXPAU?$Vec@$02M@@@Z 004314e0 f i fluidsim.obj
 0002:00009510       ??$destroy@U?$Vec@$02M@@@?$allocator@U?$Vec@$02M@@@std@@QAEXPAU?$Vec@$02M@@@Z 00431510 f i fluidsim.obj
 0002:00009530       ??$destroy@U?$Vec@$02M@@@?$allocator_traits@V?$allocator@U?$Vec@$02M@@@std@@@std@@SAXAAV?$allocator@U?$Vec@$02M@@@1@PAU?$Vec@$02M@@@Z 00431530 f i fluidsim.obj
 0002:00009560       ??$destroy@V?$vector@IV?$allocator@I@std@@@std@@@?$_Wrap_alloc@V?$allocator@V?$vector@IV?$allocator@I@std@@@std@@@std@@@std@@QAEXPAV?$vector@IV?$allocator@I@std@@@1@@Z 00431560 f i fluidsim.obj
 0002:00009590       ??$destroy@V?$vector@IV?$allocator@I@std@@@std@@@?$allocator@V?$vector@IV?$allocator@I@std@@@std@@@std@@QAEXPAV?$vector@IV?$allocator@I@std@@@1@@Z 00431590 f i fluidsim.obj
 0002:000095c0       ??$destroy@V?$vector@IV?$allocator@I@std@@@std@@@?$allocator_traits@V?$allocator@V?$vector@IV?$allocator@I@std@@@std@@@std@@@std@@SAXAAV?$allocator@V?$vector@IV?$allocator@I@std@@@std@@@1@PAV?$vector@IV?$allocator@I@std@@@1@@Z 004315c0 f i fluidsim.obj
 0002:000095f0       ??$destroy@V?$vector@NV?$allocator@N@std@@@std@@@?$_Wrap_alloc@V?$allocator@V?$vector@NV?$allocator@N@std@@@std@@@std@@@std@@QAEXPAV?$vector@NV?$allocator@N@std@@@1@@Z 004315f0 f i fluidsim.obj
 0002:00009620       ??$destroy@V?$vector@NV?$allocator@N@std@@@std@@@?$allocator@V?$vector@NV?$allocator@N@std@@@std@@@std@@QAEXPAV?$vector@NV?$allocator@N@std@@@1@@Z 00431620 f i fluidsim.obj
 0002:00009650       ??$destroy@V?$vector@NV?$allocator@N@std@@@std@@@?$allocator_traits@V?$allocator@V?$vector@NV?$allocator@N@std@@@std@@@std@@@std@@SAXAAV?$allocator@V?$vector@NV?$allocator@N@std@@@std@@@1@PAV?$vector@NV?$allocator@N@std@@@1@@Z 00431650 f i fluidsim.obj
 0002:00009680       ??$dist2@$02M@@YAMABU?$Vec@$02M@@0@Z 00431680 f i fluidsim.obj
 0002:00009740       ??$dist@$02M@@YAMABU?$Vec@$02M@@0@Z 00431740 f i fluidsim.obj
 0002:00009780       ??$distance@PAI@std@@YAHPAI0@Z 00431780 f i fluidsim.obj
 0002:000097e0       ??$distance@PAN@std@@YAHPAN0@Z 004317e0 f i fluidsim.obj
 0002:00009840       ??$dot@$02M@@YAMABU?$Vec@$02M@@0@Z 00431840 f i fluidsim.obj
 0002:000098d0       ??$factor_modified_incomplete_cholesky0@N@@YAXABU?$SparseMatrix@N@@AAU?$SparseColumnLowerFactor@N@@NN@Z 004318d0 f i fluidsim.obj
 0002:0000a180       ??$fill@PANN@std@@YAXPAN0ABN@Z 00432180 f i fluidsim.obj
 0002:0000a1d0       ??$forward@AAI@std@@YAAAIAAI@Z 004321d0 f i fluidsim.obj
 0002:0000a1f0       ??$forward@AAN@std@@YAAANAAN@Z 004321f0 f i fluidsim.obj
 0002:0000a210       ??$forward@AAPAD@std@@YAAAPADAAPAD@Z 00432210 f i fluidsim.obj
 0002:0000a230       ??$forward@AAU?$Vec@$02M@@@std@@YAAAU?$Vec@$02M@@AAU1@@Z 00432230 f i fluidsim.obj
 0002:0000a250       ??$forward@ABI@std@@YAABIABI@Z 00432250 f i fluidsim.obj
 0002:0000a270       ??$forward@ABN@std@@YAABNABN@Z 00432270 f i fluidsim.obj
 0002:0000a290       ??$forward@ABU?$Vec@$02M@@@std@@YAABU?$Vec@$02M@@ABU1@@Z 00432290 f i fluidsim.obj
 0002:0000a2b0       ??$forward@I@std@@YA$$QAIAAI@Z 004322b0 f i fluidsim.obj
 0002:0000a2d0       ??$forward@N@std@@YA$$QANAAN@Z 004322d0 f i fluidsim.obj
 0002:0000a2f0       ??$forward@U?$Vec@$02I@@@std@@YA$$QAU?$Vec@$02I@@AAU1@@Z 004322f0 f i fluidsim.obj
 0002:0000a310       ??$forward@U?$Vec@$02M@@@std@@YA$$QAU?$Vec@$02M@@AAU1@@Z 00432310 f i fluidsim.obj
 0002:0000a330       ??$forward@V?$basic_string@DU?$char_traits@D@std@@V?$allocator@D@2@@std@@@std@@YA$$QAV?$basic_string@DU?$char_traits@D@std@@V?$allocator@D@2@@0@AAV10@@Z 00432330 f i fluidsim.obj
 0002:0000a350       ??$forward@V?$vector@IV?$allocator@I@std@@@std@@@std@@YA$$QAV?$vector@IV?$allocator@I@std@@@0@AAV10@@Z 00432350 f i fluidsim.obj
 0002:0000a370       ??$forward@V?$vector@NV?$allocator@N@std@@@std@@@std@@YA$$QAV?$vector@NV?$allocator@N@std@@@0@AAV10@@Z 00432370 f i fluidsim.obj
 0002:0000a390       ??$get_barycentric@M@@YAXMAAHAAMHH@Z 00432390 f i fluidsim.obj
 0002:0000a440       ??$getline@DU?$char_traits@D@std@@V?$allocator@D@2@@std@@YAAAV?$basic_istream@DU?$char_traits@D@std@@@0@$$QAV10@AAV?$basic_string@DU?$char_traits@D@std@@V?$allocator@D@2@@0@D@Z 00432440 f i fluidsim.obj
 0002:0000a6c0       ??$getline@DU?$char_traits@D@std@@V?$allocator@D@2@@std@@YAAAV?$basic_istream@DU?$char_traits@D@std@@@0@AAV10@AAV?$basic_string@DU?$char_traits@D@std@@V?$allocator@D@2@@0@@Z 004326c0 f i fluidsim.obj
 0002:0000a720       ??$insert@I@@YAXAAV?$vector@IV?$allocator@I@std@@@std@@II@Z 00432720 f i fluidsim.obj
 0002:0000a7c0       ??$insert@N@@YAXAAV?$vector@NV?$allocator@N@std@@@std@@IN@Z 004327c0 f i fluidsim.obj
 0002:0000a860       ??$insert@V?$move_iterator@V?$_Vector_iterator@V?$_Vector_val@U?$_Simple_types@I@std@@@std@@@std@@@std@@@?$vector@IV?$allocator@I@std@@@std@@QAE?AV?$_Vector_iterator@V?$_Vector_val@U?$_Simple_types@I@std@@@std@@@1@V?$_Vector_const_iterator@V?$_Vector_val@U?$_Simple_types@I@std@@@std@@@1@V?$move_iterator@V?$_Vector_iterator@V?$_Vector_val@U?$_Simple_types@I@std@@@std@@@std@@@1@1@Z 00432860 f i fluidsim.obj
 0002:0000a8f0       ??$insert@V?$move_iterator@V?$_Vector_iterator@V?$_Vector_val@U?$_Simple_types@N@std@@@std@@@std@@@std@@@?$vector@NV?$allocator@N@std@@@std@@QAE?AV?$_Vector_iterator@V?$_Vector_val@U?$_Simple_types@N@std@@@std@@@1@V?$_Vector_const_iterator@V?$_Vector_val@U?$_Simple_types@N@std@@@std@@@1@V?$move_iterator@V?$_Vector_iterator@V?$_Vector_val@U?$_Simple_types@N@std@@@std@@@std@@@1@1@Z 004328f0 f i fluidsim.obj
 0002:0000a980       ??$interpolate_gradient@MM@@YAMAAU?$Vec@$02M@@ABU0@ABU?$Array3@MU?$Array1@M@@@@@Z 00432980 f i fluidsim.obj
 0002:0000add0       ??$interpolate_value@MM@@YAMABU?$Vec@$02M@@ABU?$Array3@MU?$Array1@M@@@@@Z 00432dd0 f i fluidsim.obj
 0002:0000afc0       ??$iter_swap@PAIPAI@std@@YAXPAI0@Z 00432fc0 f i fluidsim.obj
 0002:0000aff0       ??$iter_swap@PANPAN@std@@YAXPAN0@Z 00432ff0 f i fluidsim.obj
 0002:0000b020       ??$lerp@MM@@YAMABM0M@Z     00433020 f i fluidsim.obj
 0002:0000b070       ??$mag2@$02M@@YAMABU?$Vec@$02M@@@Z 00433070 f i fluidsim.obj
 0002:0000b100       ??$mag@$02M@@YAMABU?$Vec@$02M@@@Z 00433100 f i fluidsim.obj
 0002:0000b130       ??$make_move_iterator@V?$_Vector_iterator@V?$_Vector_val@U?$_Simple_types@I@std@@@std@@@std@@@std@@YA?AV?$move_iterator@V?$_Vector_iterator@V?$_Vector_val@U?$_Simple_types@I@std@@@std@@@std@@@0@V?$_Vector_iterator@V?$_Vector_val@U?$_Simple_types@I@std@@@std@@@0@@Z 00433130 f i fluidsim.obj
 0002:0000b160       ??$make_move_iterator@V?$_Vector_iterator@V?$_Vector_val@U?$_Simple_types@N@std@@@std@@@std@@@std@@YA?AV?$move_iterator@V?$_Vector_iterator@V?$_Vector_val@U?$_Simple_types@N@std@@@std@@@std@@@0@V?$_Vector_iterator@V?$_Vector_val@U?$_Simple_types@N@std@@@std@@@0@@Z 00433160 f i fluidsim.obj
 0002:0000b190       ??$max@H@std@@YAABHABH0@Z  00433190 f i fluidsim.obj
 0002:0000b1d0       ??$max@M@std@@YAABMABM0@Z  004331d0 f i fluidsim.obj
 0002:0000b220       ??$min@H@std@@YAABHABH0@Z  00433220 f i fluidsim.obj
 0002:0000b260       ??$move@AAI@std@@YA$$QAIAAI@Z 00433260 f i fluidsim.obj
 0002:0000b280       ??$move@AAN@std@@YA$$QANAAN@Z 00433280 f i fluidsim.obj
 0002:0000b2a0       ??$move@AAV?$basic_istream@DU?$char_traits@D@std@@@std@@@std@@YA$$QAV?$basic_istream@DU?$char_traits@D@std@@@0@AAV10@@Z 004332a0 f i fluidsim.obj
 0002:0000b2c0       ??$move@AAV?$basic_string@DU?$char_traits@D@std@@V?$allocator@D@2@@std@@@std@@YA$$QAV?$basic_string@DU?$char_traits@D@std@@V?$allocator@D@2@@0@AAV10@@Z 004332c0 f i fluidsim.obj
 0002:0000b2e0       ??$move@AAV?$vector@IV?$allocator@I@std@@@std@@@std@@YA$$QAV?$vector@IV?$allocator@I@std@@@0@AAV10@@Z 004332e0 f i fluidsim.obj
 0002:0000b300       ??$move@AAV?$vector@NV?$allocator@N@std@@@std@@@std@@YA$$QAV?$vector@NV?$allocator@N@std@@@0@AAV10@@Z 00433300 f i fluidsim.obj
 0002:0000b320       ??$multiply@N@@YAXABU?$FixedSparseMatrix@N@@ABV?$vector@NV?$allocator@N@std@@@std@@AAV12@@Z 00433320 f i fluidsim.obj
 0002:0000b470       ??$normalize@$02M@@YAXAAU?$Vec@$02M@@@Z 00433470 f i fluidsim.obj
 0002:0000b4c0       ??$rotate@PAI@std@@YAPAIPAI00@Z 004334c0 f i fluidsim.obj
 0002:0000b570       ??$rotate@PAN@std@@YAPANPAN00@Z 00433570 f i fluidsim.obj
 0002:0000b620       ??$solve_lower@N@@YAXABU?$SparseColumnLowerFactor@N@@ABV?$vector@NV?$allocator@N@std@@@std@@AAV12@@Z 00433620 f i fluidsim.obj
 0002:0000b7c0       ??$solve_lower_transpose_in_place@N@@YAXABU?$SparseColumnLowerFactor@N@@AAV?$vector@NV?$allocator@N@std@@@std@@@Z 004337c0 f i fluidsim.obj
 0002:0000b940       ??$sqr@M@@YAMABM@Z         00433940 f i fluidsim.obj
 0002:0000b970       ??$swap@I@std@@YAXAAI0@Z   00433970 f i fluidsim.obj
 0002:0000b9d0       ??$swap@N@std@@YAXAAN0@Z   004339d0 f i fluidsim.obj
 0002:0000ba40       ??$swap@PAN@std@@YAXAAPAN0@Z 00433a40 f i fluidsim.obj
 0002:0000baa0       ??$trilerp@MM@@YAMABM0000000MMM@Z 00433aa0 f i fluidsim.obj
 0002:0000bb50       ??$use_facet@V?$codecvt@DDH@std@@@std@@YAABV?$codecvt@DDH@0@ABVlocale@0@@Z 00433b50 f i fluidsim.obj
 0002:0000bca0       ??$zero@N@@YAXAAV?$vector@NV?$allocator@N@std@@@std@@@Z 00433ca0 f i fluidsim.obj
 0002:0000bd00       ??0?$Array1@D@@QAE@K@Z     00433d00 f i fluidsim.obj
 0002:0000bdc0       ??0?$Array1@M@@QAE@ABU0@@Z 00433dc0 f i fluidsim.obj
 0002:0000be90       ??0?$Array3@DU?$Array1@D@@@@QAE@HHH@Z 00433e90 f i fluidsim.obj
 0002:0000bf20       ??0?$Array3@MU?$Array1@M@@@@QAE@ABU0@@Z 00433f20 f i fluidsim.obj
 0002:0000bf80       ??0?$Vec@$02I@@QAE@III@Z   00433f80 f i fluidsim.obj
 0002:0000bfe0       ??0?$Vec@$02M@@QAE@MMM@Z   00433fe0 f i fluidsim.obj
 0002:0000c050       ??0?$Vec@$02M@@QAE@XZ      00434050 f i fluidsim.obj
 0002:0000c070       ??0?$_String_alloc@$0A@U?$_String_base_types@DV?$allocator@D@std@@@std@@@std@@QAE@ABV?$allocator@D@1@@Z 00434070 f i fluidsim.obj
 0002:0000c0a0       ??0?$_String_const_iterator@V?$_String_val@U?$_Simple_types@D@std@@@std@@@std@@QAE@PBDPBU_Container_base0@1@@Z 004340a0 f i fluidsim.obj
 0002:0000c0e0       ??0?$_String_iterator@V?$_String_val@U?$_Simple_types@D@std@@@std@@@std@@QAE@PADPBU_Container_base0@1@@Z 004340e0 f i fluidsim.obj
 0002:0000c120       ??0?$_String_val@U?$_Simple_types@D@std@@@std@@QAE@XZ 00434120 f i fluidsim.obj
 0002:0000c160       ??0?$_Vector_alloc@$0A@U?$_Vec_base_types@IV?$allocator@I@std@@@std@@@std@@QAE@ABV?$allocator@I@1@@Z 00434160 f i fluidsim.obj
 0002:0000c190       ??0?$_Vector_alloc@$0A@U?$_Vec_base_types@NV?$allocator@N@std@@@std@@@std@@QAE@ABV?$allocator@N@1@@Z 00434190 f i fluidsim.obj
 0002:0000c1c0       ??0?$_Vector_alloc@$0A@U?$_Vec_base_types@U?$Vec@$02I@@V?$allocator@U?$Vec@$02I@@@std@@@std@@@std@@QAE@ABV?$allocator@U?$Vec@$02I@@@1@@Z 004341c0 f i fluidsim.obj
 0002:0000c1f0       ??0?$_Vector_alloc@$0A@U?$_Vec_base_types@U?$Vec@$02M@@V?$allocator@U?$Vec@$02M@@@std@@@std@@@std@@QAE@ABV?$allocator@U?$Vec@$02M@@@1@@Z 004341f0 f i fluidsim.obj
 0002:0000c220       ??0?$_Vector_const_iterator@V?$_Vector_val@U?$_Simple_types@I@std@@@std@@@std@@QAE@PAIPBU_Container_base0@1@@Z 00434220 f i fluidsim.obj
 0002:0000c260       ??0?$_Vector_const_iterator@V?$_Vector_val@U?$_Simple_types@N@std@@@std@@@std@@QAE@PANPBU_Container_base0@1@@Z 00434260 f i fluidsim.obj
 0002:0000c2a0       ??0?$_Vector_const_iterator@V?$_Vector_val@U?$_Simple_types@V?$vector@IV?$allocator@I@std@@@std@@@std@@@std@@@std@@QAE@PAV?$vector@IV?$allocator@I@std@@@1@PBU_Container_base0@1@@Z 004342a0 f i fluidsim.obj
 0002:0000c2e0       ??0?$_Vector_const_iterator@V?$_Vector_val@U?$_Simple_types@V?$vector@NV?$allocator@N@std@@@std@@@std@@@std@@@std@@QAE@PAV?$vector@NV?$allocator@N@std@@@1@PBU_Container_base0@1@@Z 004342e0 f i fluidsim.obj
 0002:0000c320       ??0?$_Vector_iterator@V?$_Vector_val@U?$_Simple_types@I@std@@@std@@@std@@QAE@PAIPBU_Container_base0@1@@Z 00434320 f i fluidsim.obj
 0002:0000c360       ??0?$_Vector_iterator@V?$_Vector_val@U?$_Simple_types@N@std@@@std@@@std@@QAE@PANPBU_Container_base0@1@@Z 00434360 f i fluidsim.obj
 0002:0000c3a0       ??0?$_Vector_iterator@V?$_Vector_val@U?$_Simple_types@V?$vector@IV?$allocator@I@std@@@std@@@std@@@std@@@std@@QAE@PAV?$vector@IV?$allocator@I@std@@@1@PBU_Container_base0@1@@Z 004343a0 f i fluidsim.obj
 0002:0000c3e0       ??0?$_Vector_iterator@V?$_Vector_val@U?$_Simple_types@V?$vector@NV?$allocator@N@std@@@std@@@std@@@std@@@std@@QAE@PAV?$vector@NV?$allocator@N@std@@@1@PBU_Container_base0@1@@Z 004343e0 f i fluidsim.obj
 0002:0000c420       ??0?$_Vector_val@U?$_Simple_types@I@std@@@std@@QAE@XZ 00434420 f i fluidsim.obj
 0002:0000c460       ??0?$_Vector_val@U?$_Simple_types@N@std@@@std@@QAE@XZ 00434460 f i fluidsim.obj
 0002:0000c4a0       ??0?$_Vector_val@U?$_Simple_types@U?$Vec@$02I@@@std@@@std@@QAE@XZ 004344a0 f i fluidsim.obj
 0002:0000c4e0       ??0?$_Vector_val@U?$_Simple_types@U?$Vec@$02M@@@std@@@std@@QAE@XZ 004344e0 f i fluidsim.obj
 0002:0000c520       ??0?$_Wrap_alloc@V?$allocator@D@std@@@std@@QAE@ABV?$allocator@D@1@@Z 00434520 f i fluidsim.obj
 0002:0000c550       ??0?$_Wrap_alloc@V?$allocator@D@std@@@std@@QAE@XZ 00434550 f i fluidsim.obj
 0002:0000c580       ??0?$_Wrap_alloc@V?$allocator@I@std@@@std@@QAE@XZ 00434580 f i fluidsim.obj
 0002:0000c5b0       ??0?$_Wrap_alloc@V?$allocator@N@std@@@std@@QAE@XZ 004345b0 f i fluidsim.obj
 0002:0000c5e0       ??0?$_Wrap_alloc@V?$allocator@U?$Vec@$02I@@@std@@@std@@QAE@XZ 004345e0 f i fluidsim.obj
 0002:0000c610       ??0?$_Wrap_alloc@V?$allocator@U?$Vec@$02M@@@std@@@std@@QAE@XZ 00434610 f i fluidsim.obj
 0002:0000c640       ??0?$_Wrap_alloc@V?$allocator@V?$vector@IV?$allocator@I@std@@@std@@@std@@@std@@QAE@XZ 00434640 f i fluidsim.obj
 0002:0000c670       ??0?$_Wrap_alloc@V?$allocator@V?$vector@NV?$allocator@N@std@@@std@@@std@@@std@@QAE@XZ 00434670 f i fluidsim.obj
 0002:0000c6a0       ??0?$allocator@D@std@@QAE@ABV01@@Z 004346a0 f i fluidsim.obj
 0002:0000c6c0       ??0?$allocator@D@std@@QAE@XZ 004346c0 f i fluidsim.obj
 0002:0000c6e0       ??0?$allocator@I@std@@QAE@ABV01@@Z 004346e0 f i fluidsim.obj
 0002:0000c700       ??0?$allocator@I@std@@QAE@XZ 00434700 f i fluidsim.obj
 0002:0000c720       ??0?$allocator@N@std@@QAE@ABV01@@Z 00434720 f i fluidsim.obj
 0002:0000c740       ??0?$allocator@N@std@@QAE@XZ 00434740 f i fluidsim.obj
 0002:0000c760       ??0?$allocator@U?$Vec@$02I@@@std@@QAE@XZ 00434760 f i fluidsim.obj
 0002:0000c780       ??0?$allocator@U?$Vec@$02M@@@std@@QAE@XZ 00434780 f i fluidsim.obj
 0002:0000c7a0       ??0?$allocator@V?$vector@IV?$allocator@I@std@@@std@@@std@@QAE@XZ 004347a0 f i fluidsim.obj
 0002:0000c7c0       ??0?$allocator@V?$vector@NV?$allocator@N@std@@@std@@@std@@QAE@XZ 004347c0 f i fluidsim.obj
 0002:0000c7e0       ??0?$basic_filebuf@DU?$char_traits@D@std@@@std@@QAE@PAU_iobuf@@@Z 004347e0 f i fluidsim.obj
 0002:0000c870       ??0?$basic_ifstream@DU?$char_traits@D@std@@@std@@QAE@ABV?$basic_string@DU?$char_traits@D@std@@V?$allocator@D@2@@1@HH@Z 00434870 f i fluidsim.obj
 0002:0000c9c0       ??0?$basic_ofstream@DU?$char_traits@D@std@@@std@@QAE@PBDHH@Z 004349c0 f i fluidsim.obj
 0002:0000cb10       ??0?$basic_string@DU?$char_traits@D@std@@V?$allocator@D@2@@std@@QAE@$$QAV01@@Z 00434b10 f i fluidsim.obj
 0002:0000cb80       ??0?$basic_string@DU?$char_traits@D@std@@V?$allocator@D@2@@std@@QAE@ABV01@@Z 00434b80 f i fluidsim.obj
 0002:0000cbf0       ??0?$basic_string@DU?$char_traits@D@std@@V?$allocator@D@2@@std@@QAE@ABV01@IIABV?$allocator@D@1@@Z 00434bf0 f i fluidsim.obj
 0002:0000cc50       ??0?$basic_string@DU?$char_traits@D@std@@V?$allocator@D@2@@std@@QAE@ID@Z 00434c50 f i fluidsim.obj
 0002:0000ccb0       ??0?$basic_string@DU?$char_traits@D@std@@V?$allocator@D@2@@std@@QAE@PBD@Z 00434cb0 f i fluidsim.obj
 0002:0000cd10       ??0?$basic_string@DU?$char_traits@D@std@@V?$allocator@D@2@@std@@QAE@XZ 00434d10 f i fluidsim.obj
 0002:0000cd50       ??0?$basic_stringbuf@DU?$char_traits@D@std@@V?$allocator@D@2@@std@@QAE@ABV?$basic_string@DU?$char_traits@D@std@@V?$allocator@D@2@@1@H@Z 00434d50 f i fluidsim.obj
 0002:0000ce10       ??0?$basic_stringstream@DU?$char_traits@D@std@@V?$allocator@D@2@@std@@QAE@ABV?$basic_string@DU?$char_traits@D@std@@V?$allocator@D@2@@1@H@Z 00434e10 f i fluidsim.obj
 0002:0000cf30       ??0?$fpos@H@std@@QAE@H_J@Z 00434f30 f i fluidsim.obj
 0002:0000cf80       ??0?$fpos@H@std@@QAE@_J@Z  00434f80 f i fluidsim.obj
 0002:0000cfe0       ??0?$move_iterator@V?$_Vector_iterator@V?$_Vector_val@U?$_Simple_types@I@std@@@std@@@std@@@std@@QAE@V?$_Vector_iterator@V?$_Vector_val@U?$_Simple_types@I@std@@@std@@@1@@Z 00434fe0 f i fluidsim.obj
 0002:0000d010       ??0?$move_iterator@V?$_Vector_iterator@V?$_Vector_val@U?$_Simple_types@N@std@@@std@@@std@@@std@@QAE@V?$_Vector_iterator@V?$_Vector_val@U?$_Simple_types@N@std@@@std@@@1@@Z 00435010 f i fluidsim.obj
 0002:0000d040       ??0?$vector@IV?$allocator@I@std@@@std@@QAE@$$QAV01@@Z 00435040 f i fluidsim.obj
 0002:0000d0a0       ??0?$vector@IV?$allocator@I@std@@@std@@QAE@XZ 004350a0 f i fluidsim.obj
 0002:0000d0d0       ??0?$vector@NV?$allocator@N@std@@@std@@QAE@$$QAV01@@Z 004350d0 f i fluidsim.obj
 0002:0000d130       ??0?$vector@NV?$allocator@N@std@@@std@@QAE@XZ 00435130 f i fluidsim.obj
 0002:0000d160       ??0?$vector@U?$Vec@$02I@@V?$allocator@U?$Vec@$02I@@@std@@@std@@QAE@XZ 00435160 f i fluidsim.obj
 0002:0000d190       ??0?$vector@U?$Vec@$02M@@V?$allocator@U?$Vec@$02M@@@std@@@std@@QAE@XZ 00435190 f i fluidsim.obj
 0002:0000d1c0       ??0_Generic_error_category@std@@QAE@XZ 004351c0 f i fluidsim.obj
 0002:0000d1f0       ??0_Iostream_error_category@std@@QAE@XZ 004351f0 f i fluidsim.obj
 0002:0000d220       ??0_Sentry_base@?$basic_istream@DU?$char_traits@D@std@@@std@@QAE@AAV12@@Z 00435220 f i fluidsim.obj
 0002:0000d2a0       ??0_Sentry_base@?$basic_ostream@DU?$char_traits@D@std@@@std@@QAE@AAV12@@Z 004352a0 f i fluidsim.obj
 0002:0000d320       ??0_System_error_category@std@@QAE@XZ 00435320 f i fluidsim.obj
 0002:0000d350       ??0bad_alloc@std@@QAE@ABV01@@Z 00435350 f i fluidsim.obj
 0002:0000d390       ??0bad_alloc@std@@QAE@XZ   00435390 f i fluidsim.obj
 0002:0000d3e0       ??0error_category@std@@QAE@XZ 004353e0 f i fluidsim.obj
 0002:0000d410       ??0error_condition@std@@QAE@HABVerror_category@1@@Z 00435410 f i fluidsim.obj
 0002:0000d450       ??0sentry@?$basic_istream@DU?$char_traits@D@std@@@std@@QAE@AAV12@_N@Z 00435450 f i fluidsim.obj
 0002:0000d4e0       ??0sentry@?$basic_ostream@DU?$char_traits@D@std@@@std@@QAE@AAV12@@Z 004354e0 f i fluidsim.obj
 0002:0000d5e0       ??1?$Array1@D@@QAE@XZ      004355e0 f i fluidsim.obj
 0002:0000d630       ??1?$Array1@M@@QAE@XZ      00435630 f i fluidsim.obj
 0002:0000d680       ??1?$Array3@DU?$Array1@D@@@@QAE@XZ 00435680 f i fluidsim.obj
 0002:0000d6c0       ??1?$Array3@MU?$Array1@M@@@@QAE@XZ 004356c0 f i fluidsim.obj
 0002:0000d700       ??1?$basic_filebuf@DU?$char_traits@D@std@@@std@@UAE@XZ 00435700 f i fluidsim.obj
 0002:0000d760       ??1?$basic_ifstream@DU?$char_traits@D@std@@@std@@UAE@XZ 00435760 f i fluidsim.obj
 0002:0000d7d0       ??1?$basic_ofstream@DU?$char_traits@D@std@@@std@@UAE@XZ 004357d0 f i fluidsim.obj
 0002:0000d840       ??1?$basic_string@DU?$char_traits@D@std@@V?$allocator@D@2@@std@@QAE@XZ 00435840 f i fluidsim.obj
 0002:0000d870       ??1?$basic_stringbuf@DU?$char_traits@D@std@@V?$allocator@D@2@@std@@UAE@XZ 00435870 f i fluidsim.obj
 0002:0000d8b0       ??1?$basic_stringstream@DU?$char_traits@D@std@@V?$allocator@D@2@@std@@UAE@XZ 004358b0 f i fluidsim.obj
 0002:0000d920       ??1?$vector@IV?$allocator@I@std@@@std@@QAE@XZ 00435920 f i fluidsim.obj
 0002:0000d950       ??1?$vector@NV?$allocator@N@std@@@std@@QAE@XZ 00435950 f i fluidsim.obj
 0002:0000d980       ??1?$vector@U?$Vec@$02I@@V?$allocator@U?$Vec@$02I@@@std@@@std@@QAE@XZ 00435980 f i fluidsim.obj
 0002:0000d9b0       ??1?$vector@U?$Vec@$02M@@V?$allocator@U?$Vec@$02M@@@std@@@std@@QAE@XZ 004359b0 f i fluidsim.obj
 0002:0000d9e0       ??1_Generic_error_category@std@@UAE@XZ 004359e0 f i fluidsim.obj
 0002:0000da10       ??1_Iostream_error_category@std@@UAE@XZ 00435a10 f i fluidsim.obj
 0002:0000da40       ??1_Sentry_base@?$basic_istream@DU?$char_traits@D@std@@@std@@QAE@XZ 00435a40 f i fluidsim.obj
 0002:0000dab0       ??1_Sentry_base@?$basic_ostream@DU?$char_traits@D@std@@@std@@QAE@XZ 00435ab0 f i fluidsim.obj
 0002:0000db20       ??1_System_error_category@std@@UAE@XZ 00435b20 f i fluidsim.obj
 0002:0000db50       ??1bad_alloc@std@@UAE@XZ   00435b50 f i fluidsim.obj
 0002:0000db80       ??1error_category@std@@UAE@XZ 00435b80 f i fluidsim.obj
 0002:0000dbb0       ??1locale@std@@QAE@XZ      00435bb0 f i fluidsim.obj
 0002:0000dc20       ??1sentry@?$basic_istream@DU?$char_traits@D@std@@@std@@QAE@XZ 00435c20 f i fluidsim.obj
 0002:0000dc50       ??1sentry@?$basic_ostream@DU?$char_traits@D@std@@@std@@QAE@XZ 00435c50 f i fluidsim.obj
 0002:0000dc90       ??2@YAPAXIPAX@Z            00435c90 f i fluidsim.obj
 0002:0000dcb0       ??3@YAXPAX0@Z              00435cb0 f i fluidsim.obj
 0002:0000dcd0       ??4?$Array1@D@@QAEAAU0@ABU0@@Z 00435cd0 f i fluidsim.obj
 0002:0000dda0       ??4?$Array1@M@@QAEAAU0@ABU0@@Z 00435da0 f i fluidsim.obj
 0002:0000de70       ??4?$Array3@DU?$Array1@D@@@@QAEAAU0@ABU0@@Z 00435e70 f i fluidsim.obj
 0002:0000ded0       ??4?$Array3@MU?$Array1@M@@@@QAEAAU0@ABU0@@Z 00435ed0 f i fluidsim.obj
 0002:0000df30       ??4?$basic_string@DU?$char_traits@D@std@@V?$allocator@D@2@@std@@QAEAAV01@PBD@Z 00435f30 f i fluidsim.obj
 0002:0000df60       ??4?$vector@IV?$allocator@I@std@@@std@@QAEAAV01@$$QAV01@@Z 00435f60 f i fluidsim.obj
 0002:0000e090       ??4?$vector@NV?$allocator@N@std@@@std@@QAEAAV01@$$QAV01@@Z 00436090 f i fluidsim.obj
 0002:0000e1c0       ??4?$vector@NV?$allocator@N@std@@@std@@QAEAAV01@ABV01@@Z 004361c0 f i fluidsim.obj
 0002:0000e490       ??8?$_Vector_const_iterator@V?$_Vector_val@U?$_Simple_types@I@std@@@std@@@std@@QBE_NABV01@@Z 00436490 f i fluidsim.obj
 0002:0000e4e0       ??8?$_Vector_const_iterator@V?$_Vector_val@U?$_Simple_types@N@std@@@std@@@std@@QBE_NABV01@@Z 004364e0 f i fluidsim.obj
 0002:0000e530       ??8?$_Vector_const_iterator@V?$_Vector_val@U?$_Simple_types@V?$vector@IV?$allocator@I@std@@@std@@@std@@@std@@@std@@QBE_NABV01@@Z 00436530 f i fluidsim.obj
 0002:0000e580       ??8?$_Vector_const_iterator@V?$_Vector_val@U?$_Simple_types@V?$vector@NV?$allocator@N@std@@@std@@@std@@@std@@@std@@QBE_NABV01@@Z 00436580 f i fluidsim.obj
 0002:0000e5d0       ??8error_category@std@@QBE_NABV01@@Z 004365d0 f i fluidsim.obj
 0002:0000e610       ??8error_condition@std@@QBE_NABV01@@Z 00436610 f i fluidsim.obj
 0002:0000e690       ??9?$_Vector_const_iterator@V?$_Vector_val@U?$_Simple_types@I@std@@@std@@@std@@QBE_NABV01@@Z 00436690 f i fluidsim.obj
 0002:0000e6e0       ??9?$_Vector_const_iterator@V?$_Vector_val@U?$_Simple_types@N@std@@@std@@@std@@QBE_NABV01@@Z 004366e0 f i fluidsim.obj
 0002:0000e730       ??9?$_Vector_const_iterator@V?$_Vector_val@U?$_Simple_types@V?$vector@IV?$allocator@I@std@@@std@@@std@@@std@@@std@@QBE_NABV01@@Z 00436730 f i fluidsim.obj
 0002:0000e780       ??9?$_Vector_const_iterator@V?$_Vector_val@U?$_Simple_types@V?$vector@NV?$allocator@N@std@@@std@@@std@@@std@@@std@@QBE_NABV01@@Z 00436780 f i fluidsim.obj
 0002:0000e7d0       ??A?$Array1@D@@QAEAADK@Z   004367d0 f i fluidsim.obj
 0002:0000e800       ??A?$Array1@M@@QAEAAMK@Z   00436800 f i fluidsim.obj
 0002:0000e830       ??A?$Array1@M@@QBEABMK@Z   00436830 f i fluidsim.obj
 0002:0000e860       ??A?$Vec@$02H@@QAEAAHH@Z   00436860 f i fluidsim.obj
 0002:0000e8b0       ??A?$Vec@$02M@@QAEAAMH@Z   004368b0 f i fluidsim.obj
 0002:0000e900       ??A?$Vec@$02M@@QBEABMH@Z   00436900 f i fluidsim.obj
 0002:0000e950       ??A?$vector@IV?$allocator@I@std@@@std@@QAEAAII@Z 00436950 f i fluidsim.obj
 0002:0000e980       ??A?$vector@IV?$allocator@I@std@@@std@@QBEABII@Z 00436980 f i fluidsim.obj
 0002:0000e9b0       ??A?$vector@NV?$allocator@N@std@@@std@@QAEAANI@Z 004369b0 f i fluidsim.obj
 0002:0000e9e0       ??A?$vector@NV?$allocator@N@std@@@std@@QBEABNI@Z 004369e0 f i fluidsim.obj
 0002:0000ea10       ??A?$vector@U?$Vec@$02M@@V?$allocator@U?$Vec@$02M@@@std@@@std@@QAEAAU?$Vec@$02M@@I@Z 00436a10 f i fluidsim.obj
 0002:0000ea40       ??A?$vector@V?$vector@IV?$allocator@I@std@@@std@@V?$allocator@V?$vector@IV?$allocator@I@std@@@std@@@2@@std@@QAEAAV?$vector@IV?$allocator@I@std@@@1@I@Z 00436a40 f i fluidsim.obj
 0002:0000ea70       ??A?$vector@V?$vector@IV?$allocator@I@std@@@std@@V?$allocator@V?$vector@IV?$allocator@I@std@@@std@@@2@@std@@QBEABV?$vector@IV?$allocator@I@std@@@1@I@Z 00436a70 f i fluidsim.obj
 0002:0000eaa0       ??A?$vector@V?$vector@NV?$allocator@N@std@@@std@@V?$allocator@V?$vector@NV?$allocator@N@std@@@std@@@2@@std@@QAEAAV?$vector@NV?$allocator@N@std@@@1@I@Z 00436aa0 f i fluidsim.obj
 0002:0000ead0       ??A?$vector@V?$vector@NV?$allocator@N@std@@@std@@V?$allocator@V?$vector@NV?$allocator@N@std@@@std@@@2@@std@@QBEABV?$vector@NV?$allocator@N@std@@@1@I@Z 00436ad0 f i fluidsim.obj
 0002:0000eb00       ??B?$fpos@H@std@@QBE_JXZ   00436b00 f i fluidsim.obj
 0002:0000eb40       ??Bsentry@?$basic_istream@DU?$char_traits@D@std@@@std@@QBEPQ?$_Bool_struct@V?$basic_istream@DU?$char_traits@D@std@@@std@@@2@HXZ 00436b40 f i fluidsim.obj
 0002:0000eb80       ??Bsentry@?$basic_ostream@DU?$char_traits@D@std@@@std@@QBEPQ?$_Bool_struct@V?$basic_ostream@DU?$char_traits@D@std@@@std@@@2@HXZ 00436b80 f i fluidsim.obj
 0002:0000ebc0       ??D?$_String_const_iterator@V?$_String_val@U?$_Simple_types@D@std@@@std@@@std@@QBEABDXZ 00436bc0 f i fluidsim.obj
 0002:0000ebe0       ??D?$_String_iterator@V?$_String_val@U?$_Simple_types@D@std@@@std@@@std@@QBEAADXZ 00436be0 f i fluidsim.obj
 0002:0000ec10       ??D?$_Vector_const_iterator@V?$_Vector_val@U?$_Simple_types@I@std@@@std@@@std@@QBEABIXZ 00436c10 f i fluidsim.obj
 0002:0000ec30       ??D?$_Vector_const_iterator@V?$_Vector_val@U?$_Simple_types@N@std@@@std@@@std@@QBEABNXZ 00436c30 f i fluidsim.obj
 0002:0000ec50       ??D?$_Vector_iterator@V?$_Vector_val@U?$_Simple_types@I@std@@@std@@@std@@QBEAAIXZ 00436c50 f i fluidsim.obj
 0002:0000ec80       ??D?$_Vector_iterator@V?$_Vector_val@U?$_Simple_types@N@std@@@std@@@std@@QBEAANXZ 00436c80 f i fluidsim.obj
 0002:0000ecb0       ??D?$move_iterator@V?$_Vector_iterator@V?$_Vector_val@U?$_Simple_types@I@std@@@std@@@std@@@std@@QBE$$QAIXZ 00436cb0 f i fluidsim.obj
 0002:0000ece0       ??D?$move_iterator@V?$_Vector_iterator@V?$_Vector_val@U?$_Simple_types@N@std@@@std@@@std@@@std@@QBE$$QANXZ 00436ce0 f i fluidsim.obj
 0002:0000ed10       ??E?$_Vector_const_iterator@V?$_Vector_val@U?$_Simple_types@I@std@@@std@@@std@@QAEAAV01@XZ 00436d10 f i fluidsim.obj
 0002:0000ed40       ??E?$_Vector_const_iterator@V?$_Vector_val@U?$_Simple_types@N@std@@@std@@@std@@QAEAAV01@XZ 00436d40 f i fluidsim.obj
 0002:0000ed70       ??E?$_Vector_iterator@V?$_Vector_val@U?$_Simple_types@I@std@@@std@@@std@@QAEAAV01@XZ 00436d70 f i fluidsim.obj
 0002:0000eda0       ??E?$_Vector_iterator@V?$_Vector_val@U?$_Simple_types@N@std@@@std@@@std@@QAEAAV01@XZ 00436da0 f i fluidsim.obj
 0002:0000edd0       ??E?$move_iterator@V?$_Vector_iterator@V?$_Vector_val@U?$_Simple_types@I@std@@@std@@@std@@@std@@QAEAAV01@XZ 00436dd0 f i fluidsim.obj
 0002:0000ee00       ??E?$move_iterator@V?$_Vector_iterator@V?$_Vector_val@U?$_Simple_types@N@std@@@std@@@std@@@std@@QAEAAV01@XZ 00436e00 f i fluidsim.obj
 0002:0000ee30       ??G?$Vec@$02M@@QBE?AU0@ABU0@@Z 00436e30 f i fluidsim.obj
 0002:0000eeb0       ??G?$_Vector_const_iterator@V?$_Vector_val@U?$_Simple_types@I@std@@@std@@@std@@QBEHABV01@@Z 00436eb0 f i fluidsim.obj
 0002:0000eef0       ??G?$_Vector_const_iterator@V?$_Vector_val@U?$_Simple_types@N@std@@@std@@@std@@QBEHABV01@@Z 00436ef0 f i fluidsim.obj
 0002:0000ef30       ??G?$_Vector_iterator@V?$_Vector_val@U?$_Simple_types@I@std@@@std@@@std@@QBE?AV01@H@Z 00436f30 f i fluidsim.obj
 0002:0000ef70       ??G?$_Vector_iterator@V?$_Vector_val@U?$_Simple_types@I@std@@@std@@@std@@QBEHABV?$_Vector_const_iterator@V?$_Vector_val@U?$_Simple_types@I@std@@@std@@@1@@Z 00436f70 f i fluidsim.obj
 0002:0000efa0       ??G?$_Vector_iterator@V?$_Vector_val@U?$_Simple_types@N@std@@@std@@@std@@QBE?AV01@H@Z 00436fa0 f i fluidsim.obj
 0002:0000efe0       ??G?$_Vector_iterator@V?$_Vector_val@U?$_Simple_types@N@std@@@std@@@std@@QBEHABV?$_Vector_const_iterator@V?$_Vector_val@U?$_Simple_types@N@std@@@std@@@1@@Z 00436fe0 f i fluidsim.obj
 0002:0000f010       ??H?$Vec@$02M@@QBE?AU0@ABU0@@Z 00437010 f i fluidsim.obj
 0002:0000f090       ??H?$_Vector_iterator@V?$_Vector_val@U?$_Simple_types@I@std@@@std@@@std@@QBE?AV01@H@Z 00437090 f i fluidsim.obj
 0002:0000f0d0       ??H?$_Vector_iterator@V?$_Vector_val@U?$_Simple_types@N@std@@@std@@@std@@QBE?AV01@H@Z 004370d0 f i fluidsim.obj
 0002:0000f110       ??H?$_Vector_iterator@V?$_Vector_val@U?$_Simple_types@V?$vector@IV?$allocator@I@std@@@std@@@std@@@std@@@std@@QBE?AV01@H@Z 00437110 f i fluidsim.obj
 0002:0000f150       ??H?$_Vector_iterator@V?$_Vector_val@U?$_Simple_types@V?$vector@NV?$allocator@N@std@@@std@@@std@@@std@@@std@@QBE?AV01@H@Z 00437150 f i fluidsim.obj
 0002:0000f190       ??K?$Vec@$02M@@QBE?AU0@M@Z 00437190 f i fluidsim.obj
 0002:0000f220       ??R?$Array3@DU?$Array1@D@@@@QAEAADHHH@Z 00437220 f i fluidsim.obj
 0002:0000f2c0       ??R?$Array3@MU?$Array1@M@@@@QAEAAMHHH@Z 004372c0 f i fluidsim.obj
 0002:0000f360       ??R?$Array3@MU?$Array1@M@@@@QBEABMHHH@Z 00437360 f i fluidsim.obj
 0002:0000f400       ??X?$Vec@$02M@@QAE?AU0@M@Z 00437400 f i fluidsim.obj
 0002:0000f480       ??Y?$Vec@$02M@@QAE?AU0@ABU0@@Z 00437480 f i fluidsim.obj
 0002:0000f510       ??Y?$_Vector_const_iterator@V?$_Vector_val@U?$_Simple_types@I@std@@@std@@@std@@QAEAAV01@H@Z 00437510 f i fluidsim.obj
 0002:0000f550       ??Y?$_Vector_const_iterator@V?$_Vector_val@U?$_Simple_types@N@std@@@std@@@std@@QAEAAV01@H@Z 00437550 f i fluidsim.obj
 0002:0000f590       ??Y?$_Vector_const_iterator@V?$_Vector_val@U?$_Simple_types@V?$vector@IV?$allocator@I@std@@@std@@@std@@@std@@@std@@QAEAAV01@H@Z 00437590 f i fluidsim.obj
 0002:0000f5d0       ??Y?$_Vector_const_iterator@V?$_Vector_val@U?$_Simple_types@V?$vector@NV?$allocator@N@std@@@std@@@std@@@std@@@std@@QAEAAV01@H@Z 004375d0 f i fluidsim.obj
 0002:0000f610       ??Y?$_Vector_iterator@V?$_Vector_val@U?$_Simple_types@I@std@@@std@@@std@@QAEAAV01@H@Z 00437610 f i fluidsim.obj
 0002:0000f640       ??Y?$_Vector_iterator@V?$_Vector_val@U?$_Simple_types@N@std@@@std@@@std@@QAEAAV01@H@Z 00437640 f i fluidsim.obj
 0002:0000f670       ??Y?$_Vector_iterator@V?$_Vector_val@U?$_Simple_types@V?$vector@IV?$allocator@I@std@@@std@@@std@@@std@@@std@@QAEAAV01@H@Z 00437670 f i fluidsim.obj
 0002:0000f6a0       ??Y?$_Vector_iterator@V?$_Vector_val@U?$_Simple_types@V?$vector@NV?$allocator@N@std@@@std@@@std@@@std@@@std@@QAEAAV01@H@Z 004376a0 f i fluidsim.obj
 0002:0000f6d0       ??Y?$basic_string@DU?$char_traits@D@std@@V?$allocator@D@2@@std@@QAEAAV01@D@Z 004376d0 f i fluidsim.obj
 0002:0000f700       ??Z?$Vec@$02M@@QAE?AU0@ABU0@@Z 00437700 f i fluidsim.obj
 0002:0000f790       ??Z?$_Vector_iterator@V?$_Vector_val@U?$_Simple_types@I@std@@@std@@@std@@QAEAAV01@H@Z 00437790 f i fluidsim.obj
 0002:0000f7c0       ??Z?$_Vector_iterator@V?$_Vector_val@U?$_Simple_types@N@std@@@std@@@std@@QAEAAV01@H@Z 004377c0 f i fluidsim.obj
 0002:0000f7f0       ??_0?$Vec@$02M@@QAE?AU0@M@Z 004377f0 f i fluidsim.obj
 0002:0000f870       ??_D?$basic_ifstream@DU?$char_traits@D@std@@@std@@QAEXXZ 00437870 f i fluidsim.obj
 0002:0000f8b0       ??_D?$basic_ofstream@DU?$char_traits@D@std@@@std@@QAEXXZ 004378b0 f i fluidsim.obj
 0002:0000f8f0       ??_D?$basic_stringstream@DU?$char_traits@D@std@@V?$allocator@D@2@@std@@QAEXXZ 004378f0 f i fluidsim.obj
 0002:0000f924       ??_E?$basic_ifstream@DU?$char_traits@D@std@@@std@@$4PPPPPPPM@A@AEPAXI@Z 00437924 f i fluidsim.obj
 0002:0000f92e       ??_E?$basic_ofstream@DU?$char_traits@D@std@@@std@@$4PPPPPPPM@A@AEPAXI@Z 0043792e f i fluidsim.obj
 0002:0000f938       ??_E?$basic_stringstream@DU?$char_traits@D@std@@V?$allocator@D@2@@std@@$4PPPPPPPM@A@AEPAXI@Z 00437938 f i fluidsim.obj
 0002:0000f950       ??_G?$basic_filebuf@DU?$char_traits@D@std@@@std@@UAEPAXI@Z 00437950 f i fluidsim.obj
 0002:0000f950       ??_E?$basic_filebuf@DU?$char_traits@D@std@@@std@@UAEPAXI@Z 00437950 f i fluidsim.obj
 0002:0000f9a0       ??_G?$basic_ifstream@DU?$char_traits@D@std@@@std@@UAEPAXI@Z 004379a0 f i fluidsim.obj
 0002:0000f9a0       ??_E?$basic_ifstream@DU?$char_traits@D@std@@@std@@UAEPAXI@Z 004379a0 f i fluidsim.obj
 0002:0000f9f0       ??_E?$basic_ofstream@DU?$char_traits@D@std@@@std@@UAEPAXI@Z 004379f0 f i fluidsim.obj
 0002:0000f9f0       ??_G?$basic_ofstream@DU?$char_traits@D@std@@@std@@UAEPAXI@Z 004379f0 f i fluidsim.obj
 0002:0000fa40       ??_E?$basic_stringbuf@DU?$char_traits@D@std@@V?$allocator@D@2@@std@@UAEPAXI@Z 00437a40 f i fluidsim.obj
 0002:0000fa40       ??_G?$basic_stringbuf@DU?$char_traits@D@std@@V?$allocator@D@2@@std@@UAEPAXI@Z 00437a40 f i fluidsim.obj
 0002:0000fa90       ??_G?$basic_stringstream@DU?$char_traits@D@std@@V?$allocator@D@2@@std@@UAEPAXI@Z 00437a90 f i fluidsim.obj
 0002:0000fa90       ??_E?$basic_stringstream@DU?$char_traits@D@std@@V?$allocator@D@2@@std@@UAEPAXI@Z 00437a90 f i fluidsim.obj
 0002:0000fae0       ??_G?$vector@IV?$allocator@I@std@@@std@@QAEPAXI@Z 00437ae0 f i fluidsim.obj
 0002:0000fb30       ??_G?$vector@NV?$allocator@N@std@@@std@@QAEPAXI@Z 00437b30 f i fluidsim.obj
 0002:0000fb80       ??_E_Generic_error_category@std@@UAEPAXI@Z 00437b80 f i fluidsim.obj
 0002:0000fb80       ??_G_Generic_error_category@std@@UAEPAXI@Z 00437b80 f i fluidsim.obj
 0002:0000fbd0       ??_G_Iostream_error_category@std@@UAEPAXI@Z 00437bd0 f i fluidsim.obj
 0002:0000fbd0       ??_E_Iostream_error_category@std@@UAEPAXI@Z 00437bd0 f i fluidsim.obj
 0002:0000fc20       ??_G_System_error_category@std@@UAEPAXI@Z 00437c20 f i fluidsim.obj
 0002:0000fc20       ??_E_System_error_category@std@@UAEPAXI@Z 00437c20 f i fluidsim.obj
 0002:0000fc70       ??_Gbad_alloc@std@@UAEPAXI@Z 00437c70 f i fluidsim.obj
 0002:0000fc70       ??_Ebad_alloc@std@@UAEPAXI@Z 00437c70 f i fluidsim.obj
 0002:0000fcc0       ??_Gerror_category@std@@UAEPAXI@Z 00437cc0 f i fluidsim.obj
 0002:0000fcc0       ??_Eerror_category@std@@UAEPAXI@Z 00437cc0 f i fluidsim.obj
 0002:0000fd01       ?_Add_vtordisp1@?$basic_istream@DU?$char_traits@D@std@@@std@@$4PPPPPPPM@FA@AEXXZ 00437d01 f i fluidsim.obj
 0002:0000fd10       ?_Add_vtordisp1@?$basic_istream@DU?$char_traits@D@std@@@std@@$4PPPPPPPM@FI@AEXXZ 00437d10 f i fluidsim.obj
 0002:0000fd1f       ?_Add_vtordisp2@?$basic_ostream@DU?$char_traits@D@std@@@std@@$4PPPPPPPM@FA@AEXXZ 00437d1f f i fluidsim.obj
 0002:0000fd2e       ?_Add_vtordisp2@?$basic_ostream@DU?$char_traits@D@std@@@std@@$4PPPPPPPM@FI@AEXXZ 00437d2e f i fluidsim.obj
 0002:0000fd40       ?_Adopt@_Iterator_base0@std@@QAEXPBX@Z 00437d40 f i fluidsim.obj
 0002:0000fd60       ?_Assign_n@?$vector@NV?$allocator@N@std@@@std@@IAEXIABN@Z 00437d60 f i fluidsim.obj
 0002:0000fe00       ?_Assign_rv@?$basic_string@DU?$char_traits@D@std@@V?$allocator@D@2@@std@@QAEX$$QAV12@@Z 00437e00 f i fluidsim.obj
 0002:0000feb0       ?_Assign_rv@?$vector@IV?$allocator@I@std@@@std@@QAEX$$QAV12@@Z 00437eb0 f i fluidsim.obj
 0002:0000ff30       ?_Assign_rv@?$vector@NV?$allocator@N@std@@@std@@QAEX$$QAV12@@Z 00437f30 f i fluidsim.obj
 0002:0000ffb0       ?_Buy@?$vector@NV?$allocator@N@std@@@std@@IAE_NI@Z 00437fb0 f i fluidsim.obj
 0002:00010070       ?_Change_alloc@?$_Vector_alloc@$0A@U?$_Vec_base_types@IV?$allocator@I@std@@@std@@@std@@QAEXABU?$_Wrap_alloc@V?$allocator@I@std@@@2@@Z 00438070 f i fluidsim.obj
 0002:00010090       ?_Change_alloc@?$_Vector_alloc@$0A@U?$_Vec_base_types@NV?$allocator@N@std@@@std@@@std@@QAEXABU?$_Wrap_alloc@V?$allocator@N@std@@@2@@Z 00438090 f i fluidsim.obj
 0002:000100b0       ?_Chassign@?$basic_string@DU?$char_traits@D@std@@V?$allocator@D@2@@std@@QAEXIID@Z 004380b0 f i fluidsim.obj
 0002:00010120       ?_Compat@?$_Vector_const_iterator@V?$_Vector_val@U?$_Simple_types@I@std@@@std@@@std@@QBEXABV12@@Z 00438120 f i fluidsim.obj
 0002:00010140       ?_Compat@?$_Vector_const_iterator@V?$_Vector_val@U?$_Simple_types@N@std@@@std@@@std@@QBEXABV12@@Z 00438140 f i fluidsim.obj
 0002:00010160       ?_Compat@?$_Vector_const_iterator@V?$_Vector_val@U?$_Simple_types@V?$vector@IV?$allocator@I@std@@@std@@@std@@@std@@@std@@QBEXABV12@@Z 00438160 f i fluidsim.obj
 0002:00010180       ?_Compat@?$_Vector_const_iterator@V?$_Vector_val@U?$_Simple_types@V?$vector@NV?$allocator@N@std@@@std@@@std@@@std@@@std@@QBEXABV12@@Z 00438180 f i fluidsim.obj
 0002:000101a0       ?_Copy@?$basic_string@DU?$char_traits@D@std@@V?$allocator@D@2@@std@@QAEXII@Z 004381a0 f i fluidsim.obj
 0002:000103d0       ?_Destroy@?$vector@IV?$allocator@I@std@@@std@@IAEXPAI0@Z 004383d0 f i fluidsim.obj
 0002:00010420       ?_Destroy@?$vector@NV?$allocator@N@std@@@std@@IAEXPAN0@Z 00438420 f i fluidsim.obj
 0002:00010470       ?_Destroy@?$vector@U?$Vec@$02I@@V?$allocator@U?$Vec@$02I@@@std@@@std@@IAEXPAU?$Vec@$02I@@0@Z 00438470 f i fluidsim.obj
 0002:000104c0       ?_Destroy@?$vector@U?$Vec@$02M@@V?$allocator@U?$Vec@$02M@@@std@@@std@@IAEXPAU?$Vec@$02M@@0@Z 004384c0 f i fluidsim.obj
 0002:00010510       ?_Destroy@?$vector@V?$vector@IV?$allocator@I@std@@@std@@V?$allocator@V?$vector@IV?$allocator@I@std@@@std@@@2@@std@@IAEXPAV?$vector@IV?$allocator@I@std@@@2@0@Z 00438510 f i fluidsim.obj
 0002:00010560       ?_Destroy@?$vector@V?$vector@NV?$allocator@N@std@@@std@@V?$allocator@V?$vector@NV?$allocator@N@std@@@std@@@2@@std@@IAEXPAV?$vector@NV?$allocator@N@std@@@2@0@Z 00438560 f i fluidsim.obj
 0002:000105b0       ?_Endwrite@?$basic_filebuf@DU?$char_traits@D@std@@@std@@IAE_NXZ 004385b0 f i fluidsim.obj
 0002:00010870       ?_Eos@?$basic_string@DU?$char_traits@D@std@@V?$allocator@D@2@@std@@QAEXI@Z 00438870 f i fluidsim.obj
 0002:000108c0       ?_Getal@?$_String_alloc@$0A@U?$_String_base_types@DV?$allocator@D@std@@@std@@@std@@QBE?AU?$_Wrap_alloc@V?$allocator@D@std@@@2@XZ 004388c0 f i fluidsim.obj
 0002:000108f0       ?_Getal@?$_Vector_alloc@$0A@U?$_Vec_base_types@IV?$allocator@I@std@@@std@@@std@@QBE?AU?$_Wrap_alloc@V?$allocator@I@std@@@2@XZ 004388f0 f i fluidsim.obj
 0002:00010920       ?_Getal@?$_Vector_alloc@$0A@U?$_Vec_base_types@NV?$allocator@N@std@@@std@@@std@@QBE?AU?$_Wrap_alloc@V?$allocator@N@std@@@2@XZ 00438920 f i fluidsim.obj
 0002:00010950       ?_Getal@?$_Vector_alloc@$0A@U?$_Vec_base_types@U?$Vec@$02I@@V?$allocator@U?$Vec@$02I@@@std@@@std@@@std@@QBE?AU?$_Wrap_alloc@V?$allocator@U?$Vec@$02I@@@std@@@2@XZ 00438950 f i fluidsim.obj
 0002:00010980       ?_Getal@?$_Vector_alloc@$0A@U?$_Vec_base_types@U?$Vec@$02M@@V?$allocator@U?$Vec@$02M@@@std@@@std@@@std@@QBE?AU?$_Wrap_alloc@V?$allocator@U?$Vec@$02M@@@std@@@2@XZ 00438980 f i fluidsim.obj
 0002:000109b0       ?_Getal@?$_Vector_alloc@$0A@U?$_Vec_base_types@V?$vector@IV?$allocator@I@std@@@std@@V?$allocator@V?$vector@IV?$allocator@I@std@@@std@@@2@@std@@@std@@QBE?AU?$_Wrap_alloc@V?$allocator@V?$vector@IV?$allocator@I@std@@@std@@@std@@@2@XZ 004389b0 f i fluidsim.obj
 0002:000109e0       ?_Getal@?$_Vector_alloc@$0A@U?$_Vec_base_types@V?$vector@NV?$allocator@N@std@@@std@@V?$allocator@V?$vector@NV?$allocator@N@std@@@std@@@2@@std@@@std@@QBE?AU?$_Wrap_alloc@V?$allocator@V?$vector@NV?$allocator@N@std@@@std@@@std@@@2@XZ 004389e0 f i fluidsim.obj
 0002:00010a10       ?_Getfacet@locale@std@@QBEPBVfacet@12@I@Z 00438a10 f i fluidsim.obj
 0002:00010ac0       ?_Getstate@?$basic_stringbuf@DU?$char_traits@D@std@@V?$allocator@D@2@@std@@AAEHH@Z 00438ac0 f i fluidsim.obj
 0002:00010b40       ?_Grow@?$basic_string@DU?$char_traits@D@std@@V?$allocator@D@2@@std@@QAE_NI_N@Z 00438b40 f i fluidsim.obj
 0002:00010c20       ?_Grow_to@?$vector@IV?$allocator@I@std@@@std@@IBEII@Z 00438c20 f i fluidsim.obj
 0002:00010ca0       ?_Grow_to@?$vector@NV?$allocator@N@std@@@std@@IBEII@Z 00438ca0 f i fluidsim.obj
 0002:00010d20       ?_Grow_to@?$vector@U?$Vec@$02I@@V?$allocator@U?$Vec@$02I@@@std@@@std@@IBEII@Z 00438d20 f i fluidsim.obj
 0002:00010da0       ?_Grow_to@?$vector@U?$Vec@$02M@@V?$allocator@U?$Vec@$02M@@@std@@@std@@IBEII@Z 00438da0 f i fluidsim.obj
 0002:00010e20       ?_Grow_to@?$vector@V?$vector@IV?$allocator@I@std@@@std@@V?$allocator@V?$vector@IV?$allocator@I@std@@@std@@@2@@std@@IBEII@Z 00438e20 f i fluidsim.obj
 0002:00010ea0       ?_Grow_to@?$vector@V?$vector@NV?$allocator@N@std@@@std@@V?$allocator@V?$vector@NV?$allocator@N@std@@@std@@@2@@std@@IBEII@Z 00438ea0 f i fluidsim.obj
 0002:00010f20       ?_Init@?$basic_filebuf@DU?$char_traits@D@std@@@std@@IAEXPAU_iobuf@@W4_Initfl@12@@Z 00438f20 f i fluidsim.obj
 0002:00011010       ?_Init@?$basic_stringbuf@DU?$char_traits@D@std@@V?$allocator@D@2@@std@@IAEXPBDIH@Z 00439010 f i fluidsim.obj
 0002:00011160       ?_Initcvt@?$basic_filebuf@DU?$char_traits@D@std@@@std@@IAEXPBV?$codecvt@DDH@2@@Z 00439160 f i fluidsim.obj
 0002:000111c0       ?_Insert_n@?$vector@NV?$allocator@N@std@@@std@@IAE?AV?$_Vector_iterator@V?$_Vector_val@U?$_Simple_types@N@std@@@std@@@2@V?$_Vector_const_iterator@V?$_Vector_val@U?$_Simple_types@N@std@@@std@@@2@IABN@Z 004391c0 f i fluidsim.obj
 0002:000116b0       ?_Inside@?$basic_string@DU?$char_traits@D@std@@V?$allocator@D@2@@std@@QAE_NPBD@Z 004396b0 f i fluidsim.obj
 0002:00011710       ?_Inside@?$vector@IV?$allocator@I@std@@@std@@IBE_NPBI@Z 00439710 f i fluidsim.obj
 0002:00011760       ?_Inside@?$vector@NV?$allocator@N@std@@@std@@IBE_NPBN@Z 00439760 f i fluidsim.obj
 0002:000117b0       ?_Inside@?$vector@U?$Vec@$02I@@V?$allocator@U?$Vec@$02I@@@std@@@std@@IBE_NPBU?$Vec@$02I@@@Z 004397b0 f i fluidsim.obj
 0002:00011800       ?_Inside@?$vector@U?$Vec@$02M@@V?$allocator@U?$Vec@$02M@@@std@@@std@@IBE_NPBU?$Vec@$02M@@@Z 00439800 f i fluidsim.obj
 0002:00011850       ?_Lock@?$basic_filebuf@DU?$char_traits@D@std@@@std@@UAEXXZ 00439850 f i fluidsim.obj
 0002:00011890       ?_Make_iter@?$vector@IV?$allocator@I@std@@@std@@QBE?AV?$_Vector_iterator@V?$_Vector_val@U?$_Simple_types@I@std@@@std@@@2@V?$_Vector_const_iterator@V?$_Vector_val@U?$_Simple_types@I@std@@@std@@@2@@Z 00439890 f i fluidsim.obj
 0002:000118d0       ?_Make_iter@?$vector@NV?$allocator@N@std@@@std@@QBE?AV?$_Vector_iterator@V?$_Vector_val@U?$_Simple_types@N@std@@@std@@@2@V?$_Vector_const_iterator@V?$_Vector_val@U?$_Simple_types@N@std@@@std@@@2@@Z 004398d0 f i fluidsim.obj
 0002:00011910       ?_Make_iter@?$vector@V?$vector@IV?$allocator@I@std@@@std@@V?$allocator@V?$vector@IV?$allocator@I@std@@@std@@@2@@std@@QBE?AV?$_Vector_iterator@V?$_Vector_val@U?$_Simple_types@V?$vector@IV?$allocator@I@std@@@std@@@std@@@std@@@2@V?$_Vector_const_iterator@V?$_Vector_val@U?$_Simple_types@V?$vector@IV?$allocator@I@std@@@std@@@std@@@std@@@2@@Z 00439910 f i fluidsim.obj
 0002:00011950       ?_Make_iter@?$vector@V?$vector@NV?$allocator@N@std@@@std@@V?$allocator@V?$vector@NV?$allocator@N@std@@@std@@@2@@std@@QBE?AV?$_Vector_iterator@V?$_Vector_val@U?$_Simple_types@V?$vector@NV?$allocator@N@std@@@std@@@std@@@std@@@2@V?$_Vector_const_iterator@V?$_Vector_val@U?$_Simple_types@V?$vector@NV?$allocator@N@std@@@std@@@std@@@std@@@2@@Z 00439950 f i fluidsim.obj
 0002:00011990       ?_Myptr@?$_String_val@U?$_Simple_types@D@std@@@std@@QAEPADXZ 00439990 f i fluidsim.obj
 0002:000119e0       ?_Myptr@?$_String_val@U?$_Simple_types@D@std@@@std@@QBEPBDXZ 004399e0 f i fluidsim.obj
 0002:00011a30       ?_Orphan_range@?$vector@IV?$allocator@I@std@@@std@@IBEXPAI0@Z 00439a30 f i fluidsim.obj
 0002:00011a50       ?_Orphan_range@?$vector@NV?$allocator@N@std@@@std@@IBEXPAN0@Z 00439a50 f i fluidsim.obj
 0002:00011a70       ?_Orphan_range@?$vector@U?$Vec@$02I@@V?$allocator@U?$Vec@$02I@@@std@@@std@@IBEXPAU?$Vec@$02I@@0@Z 00439a70 f i fluidsim.obj
 0002:00011a90       ?_Orphan_range@?$vector@U?$Vec@$02M@@V?$allocator@U?$Vec@$02M@@@std@@@std@@IBEXPAU?$Vec@$02M@@0@Z 00439a90 f i fluidsim.obj
 0002:00011ab0       ?_Reallocate@?$vector@IV?$allocator@I@std@@@std@@IAEXI@Z 00439ab0 f i fluidsim.obj
 0002:00011c40       ?_Reallocate@?$vector@NV?$allocator@N@std@@@std@@IAEXI@Z 00439c40 f i fluidsim.obj
 0002:00011dd0       ?_Reallocate@?$vector@U?$Vec@$02I@@V?$allocator@U?$Vec@$02I@@@std@@@std@@IAEXI@Z 00439dd0 f i fluidsim.obj
 0002:00011f60       ?_Reallocate@?$vector@U?$Vec@$02M@@V?$allocator@U?$Vec@$02M@@@std@@@std@@IAEXI@Z 00439f60 f i fluidsim.obj
 0002:000120f0       ?_Reallocate@?$vector@V?$vector@IV?$allocator@I@std@@@std@@V?$allocator@V?$vector@IV?$allocator@I@std@@@std@@@2@@std@@IAEXI@Z 0043a0f0 f i fluidsim.obj
 0002:00012280       ?_Reallocate@?$vector@V?$vector@NV?$allocator@N@std@@@std@@V?$allocator@V?$vector@NV?$allocator@N@std@@@std@@@2@@std@@IAEXI@Z 0043a280 f i fluidsim.obj
 0002:00012410       ?_Reserve@?$vector@IV?$allocator@I@std@@@std@@IAEXI@Z 0043a410 f i fluidsim.obj
 0002:00012490       ?_Reserve@?$vector@NV?$allocator@N@std@@@std@@IAEXI@Z 0043a490 f i fluidsim.obj
 0002:00012510       ?_Reserve@?$vector@U?$Vec@$02I@@V?$allocator@U?$Vec@$02I@@@std@@@std@@IAEXI@Z 0043a510 f i fluidsim.obj
 0002:00012590       ?_Reserve@?$vector@U?$Vec@$02M@@V?$allocator@U?$Vec@$02M@@@std@@@std@@IAEXI@Z 0043a590 f i fluidsim.obj
 0002:00012610       ?_Reserve@?$vector@V?$vector@IV?$allocator@I@std@@@std@@V?$allocator@V?$vector@IV?$allocator@I@std@@@std@@@2@@std@@IAEXI@Z 0043a610 f i fluidsim.obj
 0002:00012690       ?_Reserve@?$vector@V?$vector@NV?$allocator@N@std@@@std@@V?$allocator@V?$vector@NV?$allocator@N@std@@@std@@@2@@std@@IAEXI@Z 0043a690 f i fluidsim.obj
 0002:00012710       ?_Reset_back@?$basic_filebuf@DU?$char_traits@D@std@@@std@@AAEXXZ 0043a710 f i fluidsim.obj
 0002:00012770       ?_Set_back@?$basic_filebuf@DU?$char_traits@D@std@@@std@@AAEXXZ 0043a770 f i fluidsim.obj
 0002:000127f0       ?_Swap_alloc@?$_Vector_alloc@$0A@U?$_Vec_base_types@NV?$allocator@N@std@@@std@@@std@@QAEXAAV12@@Z 0043a7f0 f i fluidsim.obj
 0002:00012810       ?_Tidy@?$basic_string@DU?$char_traits@D@std@@V?$allocator@D@2@@std@@QAEX_NI@Z 0043a810 f i fluidsim.obj
 0002:000128e0       ?_Tidy@?$basic_stringbuf@DU?$char_traits@D@std@@V?$allocator@D@2@@std@@IAEXXZ 0043a8e0 f i fluidsim.obj
 0002:000129b0       ?_Tidy@?$vector@IV?$allocator@I@std@@@std@@IAEXXZ 0043a9b0 f i fluidsim.obj
 0002:00012a50       ?_Tidy@?$vector@NV?$allocator@N@std@@@std@@IAEXXZ 0043aa50 f i fluidsim.obj
 0002:00012af0       ?_Tidy@?$vector@U?$Vec@$02I@@V?$allocator@U?$Vec@$02I@@@std@@@std@@IAEXXZ 0043aaf0 f i fluidsim.obj
 0002:00012ba0       ?_Tidy@?$vector@U?$Vec@$02M@@V?$allocator@U?$Vec@$02M@@@std@@@std@@IAEXXZ 0043aba0 f i fluidsim.obj
 0002:00012c50       ?_Tidy@?$vector@V?$vector@IV?$allocator@I@std@@@std@@V?$allocator@V?$vector@IV?$allocator@I@std@@@std@@@2@@std@@IAEXXZ 0043ac50 f i fluidsim.obj
 0002:00012d00       ?_Tidy@?$vector@V?$vector@NV?$allocator@N@std@@@std@@V?$allocator@V?$vector@NV?$allocator@N@std@@@std@@@2@@std@@IAEXXZ 0043ad00 f i fluidsim.obj
 0002:00012db0       ?_Ufill@?$vector@NV?$allocator@N@std@@@std@@IAEPANPANIPBN@Z 0043adb0 f i fluidsim.obj
 0002:00012e10       ?_Unlock@?$basic_filebuf@DU?$char_traits@D@std@@@std@@UAEXXZ 0043ae10 f i fluidsim.obj
 0002:00012e50       ?_Unused_capacity@?$vector@IV?$allocator@I@std@@@std@@QBEIXZ 0043ae50 f i fluidsim.obj
 0002:00012e80       ?_Unused_capacity@?$vector@NV?$allocator@N@std@@@std@@QBEIXZ 0043ae80 f i fluidsim.obj
 0002:00012eb0       ?_Unused_capacity@?$vector@U?$Vec@$02I@@V?$allocator@U?$Vec@$02I@@@std@@@std@@QBEIXZ 0043aeb0 f i fluidsim.obj
 0002:00012ee0       ?_Unused_capacity@?$vector@U?$Vec@$02M@@V?$allocator@U?$Vec@$02M@@@std@@@std@@QBEIXZ 0043aee0 f i fluidsim.obj
 0002:00012f10       ?_Unused_capacity@?$vector@V?$vector@IV?$allocator@I@std@@@std@@V?$allocator@V?$vector@IV?$allocator@I@std@@@std@@@2@@std@@QBEIXZ 0043af10 f i fluidsim.obj
 0002:00012f40       ?_Unused_capacity@?$vector@V?$vector@NV?$allocator@N@std@@@std@@V?$allocator@V?$vector@NV?$allocator@N@std@@@std@@@2@@std@@QBEIXZ 0043af40 f i fluidsim.obj
 0002:00012f70       ?_Xlen@?$basic_string@DU?$char_traits@D@std@@V?$allocator@D@2@@std@@QBEXXZ 0043af70 f i fluidsim.obj
 0002:00012fa0       ?_Xlen@?$vector@IV?$allocator@I@std@@@std@@IBEXXZ 0043afa0 f i fluidsim.obj
 0002:00012fd0       ?_Xlen@?$vector@NV?$allocator@N@std@@@std@@IBEXXZ 0043afd0 f i fluidsim.obj
 0002:00013000       ?_Xlen@?$vector@U?$Vec@$02I@@V?$allocator@U?$Vec@$02I@@@std@@@std@@IBEXXZ 0043b000 f i fluidsim.obj
 0002:00013030       ?_Xlen@?$vector@U?$Vec@$02M@@V?$allocator@U?$Vec@$02M@@@std@@@std@@IBEXXZ 0043b030 f i fluidsim.obj
 0002:00013060       ?_Xlen@?$vector@V?$vector@IV?$allocator@I@std@@@std@@V?$allocator@V?$vector@IV?$allocator@I@std@@@std@@@2@@std@@IBEXXZ 0043b060 f i fluidsim.obj
 0002:00013090       ?_Xlen@?$vector@V?$vector@NV?$allocator@N@std@@@std@@V?$allocator@V?$vector@NV?$allocator@N@std@@@std@@@2@@std@@IBEXXZ 0043b090 f i fluidsim.obj
 0002:000130c0       ?_Xran@?$basic_string@DU?$char_traits@D@std@@V?$allocator@D@2@@std@@QBEXXZ 0043b0c0 f i fluidsim.obj
 0002:000130f0       ?abs_max@BLAS@@YANABV?$vector@NV?$allocator@N@std@@@std@@@Z 0043b0f0 f i fluidsim.obj
 0002:00013140       ?add_force@FluidSim@@AAEXM@Z 0043b140 f   fluidsim.obj
 0002:00013220       ?add_particle@FluidSim@@QAEXABU?$Vec@$02M@@@Z 0043b220 f   fluidsim.obj
 0002:00013250       ?add_scaled@BLAS@@YAXNABV?$vector@NV?$allocator@N@std@@@std@@AAV23@@Z 0043b250 f i fluidsim.obj
 0002:000132d0       ?add_to_element@?$SparseMatrix@N@@QAEXIIN@Z 0043b2d0 f i fluidsim.obj
 0002:00013470       ?advance@FluidSim@@QAEXM@Z 0043b470 f   fluidsim.obj
 0002:00013670       ?advect@FluidSim@@AAEXM@Z  0043b670 f   fluidsim.obj
 0002:00013c00       ?advect_particles@FluidSim@@AAEXM@Z 0043bc00 f   fluidsim.obj
 0002:00013e20       ?allocate@?$_Wrap_alloc@V?$allocator@D@std@@@std@@QAEPADI@Z 0043be20 f i fluidsim.obj
 0002:00013e50       ?allocate@?$_Wrap_alloc@V?$allocator@I@std@@@std@@QAEPAII@Z 0043be50 f i fluidsim.obj
 0002:00013e80       ?allocate@?$_Wrap_alloc@V?$allocator@N@std@@@std@@QAEPANI@Z 0043be80 f i fluidsim.obj
 0002:00013eb0       ?allocate@?$_Wrap_alloc@V?$allocator@U?$Vec@$02I@@@std@@@std@@QAEPAU?$Vec@$02I@@I@Z 0043beb0 f i fluidsim.obj
 0002:00013ee0       ?allocate@?$_Wrap_alloc@V?$allocator@U?$Vec@$02M@@@std@@@std@@QAEPAU?$Vec@$02M@@I@Z 0043bee0 f i fluidsim.obj
 0002:00013f10       ?allocate@?$_Wrap_alloc@V?$allocator@V?$vector@IV?$allocator@I@std@@@std@@@std@@@std@@QAEPAV?$vector@IV?$allocator@I@std@@@2@I@Z 0043bf10 f i fluidsim.obj
 0002:00013f40       ?allocate@?$_Wrap_alloc@V?$allocator@V?$vector@NV?$allocator@N@std@@@std@@@std@@@std@@QAEPAV?$vector@NV?$allocator@N@std@@@2@I@Z 0043bf40 f i fluidsim.obj
 0002:00013f70       ?allocate@?$allocator@D@std@@QAEPADI@Z 0043bf70 f i fluidsim.obj
 0002:00013fa0       ?allocate@?$allocator@I@std@@QAEPAII@Z 0043bfa0 f i fluidsim.obj
 0002:00013fd0       ?allocate@?$allocator@N@std@@QAEPANI@Z 0043bfd0 f i fluidsim.obj
 0002:00014000       ?allocate@?$allocator@U?$Vec@$02I@@@std@@QAEPAU?$Vec@$02I@@I@Z 0043c000 f i fluidsim.obj
 0002:00014030       ?allocate@?$allocator@U?$Vec@$02M@@@std@@QAEPAU?$Vec@$02M@@I@Z 0043c030 f i fluidsim.obj
 0002:00014060       ?allocate@?$allocator@V?$vector@IV?$allocator@I@std@@@std@@@std@@QAEPAV?$vector@IV?$allocator@I@std@@@2@I@Z 0043c060 f i fluidsim.obj
 0002:00014090       ?allocate@?$allocator@V?$vector@NV?$allocator@N@std@@@std@@@std@@QAEPAV?$vector@NV?$allocator@N@std@@@2@I@Z 0043c090 f i fluidsim.obj
 0002:000140c0       ?append@?$basic_string@DU?$char_traits@D@std@@V?$allocator@D@2@@std@@QAEAAV12@ABV12@@Z 0043c0c0 f i fluidsim.obj
 0002:00014100       ?append@?$basic_string@DU?$char_traits@D@std@@V?$allocator@D@2@@std@@QAEAAV12@ABV12@II@Z 0043c100 f i fluidsim.obj
 0002:000141f0       ?append@?$basic_string@DU?$char_traits@D@std@@V?$allocator@D@2@@std@@QAEAAV12@ID@Z 0043c1f0 f i fluidsim.obj
 0002:00014290       ?apply_preconditioner@?$PCGSolver@N@@IAEXABV?$vector@NV?$allocator@N@std@@@std@@AAV23@@Z 0043c290 f i fluidsim.obj
 0002:000142e0       ?assign@?$Array1@D@@QAEXABD@Z 0043c2e0 f i fluidsim.obj
 0002:00014340       ?assign@?$Array1@M@@QAEXABM@Z 0043c340 f i fluidsim.obj
 0002:000143a0       ?assign@?$Array3@DU?$Array1@D@@@@QAEXABD@Z 0043c3a0 f i fluidsim.obj
 0002:000143d0       ?assign@?$Array3@MU?$Array1@M@@@@QAEXABM@Z 0043c3d0 f i fluidsim.obj
 0002:00014400       ?assign@?$basic_string@DU?$char_traits@D@std@@V?$allocator@D@2@@std@@QAEAAV12@ABV12@II@Z 0043c400 f i fluidsim.obj
 0002:000144e0       ?assign@?$basic_string@DU?$char_traits@D@std@@V?$allocator@D@2@@std@@QAEAAV12@ID@Z 0043c4e0 f i fluidsim.obj
 0002:00014560       ?assign@?$basic_string@DU?$char_traits@D@std@@V?$allocator@D@2@@std@@QAEAAV12@PBD@Z 0043c560 f i fluidsim.obj
 0002:000145a0       ?assign@?$basic_string@DU?$char_traits@D@std@@V?$allocator@D@2@@std@@QAEAAV12@PBDI@Z 0043c5a0 f i fluidsim.obj
 0002:00014650       ?assign@?$char_traits@D@std@@SAPADPADID@Z 0043c650 f i fluidsim.obj
 0002:00014680       ?assign@?$char_traits@D@std@@SAXAADABD@Z 0043c680 f i fluidsim.obj
 0002:000146a0       ?assign@?$vector@NV?$allocator@N@std@@@std@@QAEXIABN@Z 0043c6a0 f i fluidsim.obj
 0002:000146d0       ?back@?$vector@IV?$allocator@I@std@@@std@@QAEAAIXZ 0043c6d0 f i fluidsim.obj
 0002:00014710       ?back@?$vector@NV?$allocator@N@std@@@std@@QAEAANXZ 0043c710 f i fluidsim.obj
 0002:00014750       ?base@?$move_iterator@V?$_Vector_iterator@V?$_Vector_val@U?$_Simple_types@I@std@@@std@@@std@@@std@@QBE?AV?$_Vector_iterator@V?$_Vector_val@U?$_Simple_types@I@std@@@std@@@2@XZ 0043c750 f i fluidsim.obj
 0002:00014780       ?base@?$move_iterator@V?$_Vector_iterator@V?$_Vector_val@U?$_Simple_types@N@std@@@std@@@std@@@std@@QBE?AV?$_Vector_iterator@V?$_Vector_val@U?$_Simple_types@N@std@@@std@@@2@XZ 0043c780 f i fluidsim.obj
 0002:000147b0       ?begin@?$basic_string@DU?$char_traits@D@std@@V?$allocator@D@2@@std@@QAE?AV?$_String_iterator@V?$_String_val@U?$_Simple_types@D@std@@@std@@@2@XZ 0043c7b0 f i fluidsim.obj
 0002:000147f0       ?begin@?$vector@IV?$allocator@I@std@@@std@@QAE?AV?$_Vector_iterator@V?$_Vector_val@U?$_Simple_types@I@std@@@std@@@2@XZ 0043c7f0 f i fluidsim.obj
 0002:00014830       ?begin@?$vector@NV?$allocator@N@std@@@std@@QAE?AV?$_Vector_iterator@V?$_Vector_val@U?$_Simple_types@N@std@@@std@@@2@XZ 0043c830 f i fluidsim.obj
 0002:00014870       ?begin@?$vector@V?$vector@IV?$allocator@I@std@@@std@@V?$allocator@V?$vector@IV?$allocator@I@std@@@std@@@2@@std@@QAE?AV?$_Vector_iterator@V?$_Vector_val@U?$_Simple_types@V?$vector@IV?$allocator@I@std@@@std@@@std@@@std@@@2@XZ 0043c870 f i fluidsim.obj
 0002:000148b0       ?begin@?$vector@V?$vector@NV?$allocator@N@std@@@std@@V?$allocator@V?$vector@NV?$allocator@N@std@@@std@@@2@@std@@QAE?AV?$_Vector_iterator@V?$_Vector_val@U?$_Simple_types@V?$vector@NV?$allocator@N@std@@@std@@@std@@@std@@@2@XZ 0043c8b0 f i fluidsim.obj
 0002:000148f0       ?c_str@?$basic_string@DU?$char_traits@D@std@@V?$allocator@D@2@@std@@QBEPBDXZ 0043c8f0 f i fluidsim.obj
 0002:00014920       ?capacity@?$basic_string@DU?$char_traits@D@std@@V?$allocator@D@2@@std@@QBEIXZ 0043c920 f i fluidsim.obj
 0002:00014940       ?capacity@?$vector@IV?$allocator@I@std@@@std@@QBEIXZ 0043c940 f i fluidsim.obj
 0002:00014970       ?capacity@?$vector@NV?$allocator@N@std@@@std@@QBEIXZ 0043c970 f i fluidsim.obj
 0002:000149a0       ?capacity@?$vector@U?$Vec@$02I@@V?$allocator@U?$Vec@$02I@@@std@@@std@@QBEIXZ 0043c9a0 f i fluidsim.obj
 0002:000149d0       ?capacity@?$vector@U?$Vec@$02M@@V?$allocator@U?$Vec@$02M@@@std@@@std@@QBEIXZ 0043c9d0 f i fluidsim.obj
 0002:00014a00       ?capacity@?$vector@V?$vector@IV?$allocator@I@std@@@std@@V?$allocator@V?$vector@IV?$allocator@I@std@@@std@@@2@@std@@QBEIXZ 0043ca00 f i fluidsim.obj
 0002:00014a30       ?capacity@?$vector@V?$vector@NV?$allocator@N@std@@@std@@V?$allocator@V?$vector@NV?$allocator@N@std@@@std@@@2@@std@@QBEIXZ 0043ca30 f i fluidsim.obj
 0002:00014a60       ?category@error_code@std@@QBEABVerror_category@2@XZ 0043ca60 f i fluidsim.obj
 0002:00014a80       ?category@error_condition@std@@QBEABVerror_category@2@XZ 0043ca80 f i fluidsim.obj
 0002:00014aa0       ?cfl@FluidSim@@AAEMXZ      0043caa0 f   fluidsim.obj
 0002:00014c50       ?clear@?$vector@IV?$allocator@I@std@@@std@@QAEXXZ 0043cc50 f i fluidsim.obj
 0002:00014ca0       ?clear@?$vector@NV?$allocator@N@std@@@std@@QAEXXZ 0043cca0 f i fluidsim.obj
 0002:00014cf0       ?clear@?$vector@V?$vector@IV?$allocator@I@std@@@std@@V?$allocator@V?$vector@IV?$allocator@I@std@@@std@@@2@@std@@QAEXXZ 0043ccf0 f i fluidsim.obj
 0002:00014d40       ?clear@?$vector@V?$vector@NV?$allocator@N@std@@@std@@V?$allocator@V?$vector@NV?$allocator@N@std@@@std@@@2@@std@@QAEXXZ 0043cd40 f i fluidsim.obj
 0002:00014d90       ?close@?$basic_filebuf@DU?$char_traits@D@std@@@std@@QAEPAV12@XZ 0043cd90 f i fluidsim.obj
 0002:00014e20       ?close@?$basic_ifstream@DU?$char_traits@D@std@@@std@@QAEXXZ 0043ce20 f i fluidsim.obj
 0002:00014e70       ?close@?$basic_ofstream@DU?$char_traits@D@std@@@std@@QAEXXZ 0043ce70 f i fluidsim.obj
 0002:00014ec0       ?compare@?$basic_string@DU?$char_traits@D@std@@V?$allocator@D@2@@std@@QBEHABV12@@Z 0043cec0 f i fluidsim.obj
 0002:00014f10       ?compare@?$basic_string@DU?$char_traits@D@std@@V?$allocator@D@2@@std@@QBEHIIPBDI@Z 0043cf10 f i fluidsim.obj
 0002:00015000       ?compare@?$char_traits@D@std@@SAHPBD0I@Z 0043d000 f i fluidsim.obj
 0002:00015050       ?compute_phi@FluidSim@@AAEXXZ 0043d050 f   fluidsim.obj
 0002:000157f0       ?compute_weights@FluidSim@@AAEXXZ 0043d7f0 f   fluidsim.obj
 0002:00015e90       ?constrain_velocity@FluidSim@@AAEXXZ 0043de90 f   fluidsim.obj
 0002:00016690       ?construct@?$_Wrap_alloc@V?$allocator@V?$vector@IV?$allocator@I@std@@@std@@@std@@@std@@QAEXPAV?$vector@IV?$allocator@I@std@@@2@@Z 0043e690 f i fluidsim.obj
 0002:000166c0       ?construct@?$_Wrap_alloc@V?$allocator@V?$vector@NV?$allocator@N@std@@@std@@@std@@@std@@QAEXPAV?$vector@NV?$allocator@N@std@@@2@@Z 0043e6c0 f i fluidsim.obj
 0002:000166f0       ?construct@?$allocator@I@std@@QAEXPAIABI@Z 0043e6f0 f i fluidsim.obj
 0002:00016750       ?construct@?$allocator@N@std@@QAEXPANABN@Z 0043e750 f i fluidsim.obj
 0002:000167b0       ?construct@?$allocator@U?$Vec@$02M@@@std@@QAEXPAU?$Vec@$02M@@ABU3@@Z 0043e7b0 f i fluidsim.obj
 0002:00016820       ?construct@?$allocator@V?$vector@IV?$allocator@I@std@@@std@@@std@@QAEXPAV?$vector@IV?$allocator@I@std@@@2@@Z 0043e820 f i fluidsim.obj
 0002:000168c0       ?construct@?$allocator@V?$vector@NV?$allocator@N@std@@@std@@@std@@QAEXPAV?$vector@NV?$allocator@N@std@@@2@@Z 0043e8c0 f i fluidsim.obj
 0002:00016960       ?construct_from_matrix@?$FixedSparseMatrix@N@@QAEXABU?$SparseMatrix@N@@@Z 0043e960 f i fluidsim.obj
 0002:00016b60       ?copy@?$char_traits@D@std@@SAPADPADPBDI@Z 0043eb60 f i fluidsim.obj
 0002:00016bb0       ?deallocate@?$_Wrap_alloc@V?$allocator@D@std@@@std@@QAEXPADI@Z 0043ebb0 f i fluidsim.obj
 0002:00016be0       ?deallocate@?$_Wrap_alloc@V?$allocator@I@std@@@std@@QAEXPAII@Z 0043ebe0 f i fluidsim.obj
 0002:00016c10       ?deallocate@?$_Wrap_alloc@V?$allocator@N@std@@@std@@QAEXPANI@Z 0043ec10 f i fluidsim.obj
 0002:00016c40       ?deallocate@?$_Wrap_alloc@V?$allocator@U?$Vec@$02I@@@std@@@std@@QAEXPAU?$Vec@$02I@@I@Z 0043ec40 f i fluidsim.obj
 0002:00016c70       ?deallocate@?$_Wrap_alloc@V?$allocator@U?$Vec@$02M@@@std@@@std@@QAEXPAU?$Vec@$02M@@I@Z 0043ec70 f i fluidsim.obj
 0002:00016ca0       ?deallocate@?$_Wrap_alloc@V?$allocator@V?$vector@IV?$allocator@I@std@@@std@@@std@@@std@@QAEXPAV?$vector@IV?$allocator@I@std@@@2@I@Z 0043eca0 f i fluidsim.obj
 0002:00016cd0       ?deallocate@?$_Wrap_alloc@V?$allocator@V?$vector@NV?$allocator@N@std@@@std@@@std@@@std@@QAEXPAV?$vector@NV?$allocator@N@std@@@2@I@Z 0043ecd0 f i fluidsim.obj
 0002:00016d00       ?deallocate@?$allocator@D@std@@QAEXPADI@Z 0043ed00 f i fluidsim.obj
 0002:00016d30       ?deallocate@?$allocator@I@std@@QAEXPAII@Z 0043ed30 f i fluidsim.obj
 0002:00016d60       ?deallocate@?$allocator@N@std@@QAEXPANI@Z 0043ed60 f i fluidsim.obj
 0002:00016d90       ?deallocate@?$allocator@U?$Vec@$02I@@@std@@QAEXPAU?$Vec@$02I@@I@Z 0043ed90 f i fluidsim.obj
 0002:00016dc0       ?deallocate@?$allocator@U?$Vec@$02M@@@std@@QAEXPAU?$Vec@$02M@@I@Z 0043edc0 f i fluidsim.obj
 0002:00016df0       ?deallocate@?$allocator@V?$vector@IV?$allocator@I@std@@@std@@@std@@QAEXPAV?$vector@IV?$allocator@I@std@@@2@I@Z 0043edf0 f i fluidsim.obj
 0002:00016e20       ?deallocate@?$allocator@V?$vector@NV?$allocator@N@std@@@std@@@std@@QAEXPAV?$vector@NV?$allocator@N@std@@@2@I@Z 0043ee20 f i fluidsim.obj
 0002:00016e50       ?default_error_condition@_System_error_category@std@@UBE?AVerror_condition@2@H@Z 0043ee50 f i fluidsim.obj
 0002:00016ec0       ?default_error_condition@error_category@std@@UBE?AVerror_condition@2@H@Z 0043eec0 f i fluidsim.obj
 0002:00016f00       ?dot@BLAS@@YANABV?$vector@NV?$allocator@N@std@@@std@@0@Z 0043ef00 f i fluidsim.obj
 0002:00016f90       ?empty@?$vector@NV?$allocator@N@std@@@std@@QBE_NXZ 0043ef90 f i fluidsim.obj
 0002:00016fd0       ?end@?$vector@IV?$allocator@I@std@@@std@@QAE?AV?$_Vector_iterator@V?$_Vector_val@U?$_Simple_types@I@std@@@std@@@2@XZ 0043efd0 f i fluidsim.obj
 0002:00017010       ?end@?$vector@NV?$allocator@N@std@@@std@@QAE?AV?$_Vector_iterator@V?$_Vector_val@U?$_Simple_types@N@std@@@std@@@2@XZ 0043f010 f i fluidsim.obj
 0002:00017050       ?end@?$vector@V?$vector@IV?$allocator@I@std@@@std@@V?$allocator@V?$vector@IV?$allocator@I@std@@@std@@@2@@std@@QAE?AV?$_Vector_iterator@V?$_Vector_val@U?$_Simple_types@V?$vector@IV?$allocator@I@std@@@std@@@std@@@std@@@2@XZ 0043f050 f i fluidsim.obj
 0002:00017090       ?end@?$vector@V?$vector@NV?$allocator@N@std@@@std@@V?$allocator@V?$vector@NV?$allocator@N@std@@@std@@@2@@std@@QAE?AV?$_Vector_iterator@V?$_Vector_val@U?$_Simple_types@V?$vector@NV?$allocator@N@std@@@std@@@std@@@std@@@2@XZ 0043f090 f i fluidsim.obj
 0002:000170d0       ?eof@?$char_traits@D@std@@SAHXZ 0043f0d0 f i fluidsim.obj
 0002:000170f0       ?eq@?$char_traits@D@std@@SA_NABD0@Z 0043f0f0 f i fluidsim.obj
 0002:00017130       ?eq_int_type@?$char_traits@D@std@@SA_NABH0@Z 0043f130 f i fluidsim.obj
 0002:00017170       ?equivalent@error_category@std@@UBE_NABVerror_code@2@H@Z 0043f170 f i fluidsim.obj
 0002:000171d0       ?equivalent@error_category@std@@UBE_NHABVerror_condition@2@@Z 0043f1d0 f i fluidsim.obj
 0002:00017220       ?erase@?$basic_string@DU?$char_traits@D@std@@V?$allocator@D@2@@std@@QAEAAV12@I@Z 0043f220 f i fluidsim.obj
 0002:00017270       ?erase@?$basic_string@DU?$char_traits@D@std@@V?$allocator@D@2@@std@@QAEAAV12@II@Z 0043f270 f i fluidsim.obj
 0002:00017320       ?erase@?$vector@IV?$allocator@I@std@@@std@@QAE?AV?$_Vector_iterator@V?$_Vector_val@U?$_Simple_types@I@std@@@std@@@2@V?$_Vector_const_iterator@V?$_Vector_val@U?$_Simple_types@I@std@@@std@@@2@0@Z 0043f320 f i fluidsim.obj
 0002:00017440       ?erase@?$vector@NV?$allocator@N@std@@@std@@QAE?AV?$_Vector_iterator@V?$_Vector_val@U?$_Simple_types@N@std@@@std@@@2@V?$_Vector_const_iterator@V?$_Vector_val@U?$_Simple_types@N@std@@@std@@@2@0@Z 0043f440 f i fluidsim.obj
 0002:00017560       ?erase@?$vector@V?$vector@IV?$allocator@I@std@@@std@@V?$allocator@V?$vector@IV?$allocator@I@std@@@std@@@2@@std@@QAE?AV?$_Vector_iterator@V?$_Vector_val@U?$_Simple_types@V?$vector@IV?$allocator@I@std@@@std@@@std@@@std@@@2@V?$_Vector_const_iterator@V?$_Vector_val@U?$_Simple_types@V?$vector@IV?$allocator@I@std@@@std@@@std@@@std@@@2@0@Z 0043f560 f i fluidsim.obj
 0002:00017680       ?erase@?$vector@V?$vector@NV?$allocator@N@std@@@std@@V?$allocator@V?$vector@NV?$allocator@N@std@@@std@@@2@@std@@QAE?AV?$_Vector_iterator@V?$_Vector_val@U?$_Simple_types@V?$vector@NV?$allocator@N@std@@@std@@@std@@@std@@@2@V?$_Vector_const_iterator@V?$_Vector_val@U?$_Simple_types@V?$vector@NV?$allocator@N@std@@@std@@@std@@@std@@@2@0@Z 0043f680 f i fluidsim.obj
 0002:000177a0       ?extrapolate@@YAXAAU?$Array3@MU?$Array1@M@@@@AAU?$Array3@DU?$Array1@D@@@@@Z 0043f7a0 f   fluidsim.obj
 0002:00017c10       ?fabs@@YAMM@Z              0043fc10 f i fluidsim.obj
 0002:00017c40       ?floor@@YAMM@Z             0043fc40 f i fluidsim.obj
 0002:00017c70       ?form_preconditioner@?$PCGSolver@N@@IAEXABU?$SparseMatrix@N@@@Z 0043fc70 f i fluidsim.obj
 0002:00017cd0       ?generic_category@std@@YAABVerror_category@1@XZ 0043fcd0 f i fluidsim.obj
 0002:00017cf0       ?get_allocator@?$basic_string@DU?$char_traits@D@std@@V?$allocator@D@2@@std@@QBE?AV?$allocator@D@2@XZ 0043fcf0 f i fluidsim.obj
 0002:00017d30       ?get_velocity@FluidSim@@QAE?AU?$Vec@$02M@@ABU2@@Z 0043fd30 f   fluidsim.obj
 0002:00017f50       ?imbue@?$basic_filebuf@DU?$char_traits@D@std@@@std@@MAEXABVlocale@2@@Z 0043ff50 f i fluidsim.obj
 0002:00017f90       ?index_abs_max@BLAS@@YAHABV?$vector@NV?$allocator@N@std@@@std@@@Z 0043ff90 f i fluidsim.obj
 0002:00018060       ?initialize@FluidSim@@QAEXMHHH@Z 00440060 f   fluidsim.obj
 0002:00018430       ?initialize_phi@FluidSim@@AAEXV?$basic_string@DU?$char_traits@D@std@@V?$allocator@D@2@@std@@AAU?$Array3@MU?$Array1@M@@@@_N@Z 00440430 f   fluidsim.obj
 0002:00019620       ?insert@?$basic_string@DU?$char_traits@D@std@@V?$allocator@D@2@@std@@QAEAAV12@IABV12@@Z 00441620 f i fluidsim.obj
 0002:00019660       ?insert@?$basic_string@DU?$char_traits@D@std@@V?$allocator@D@2@@std@@QAEAAV12@IABV12@II@Z 00441660 f i fluidsim.obj
 0002:000197f0       ?insert@?$vector@NV?$allocator@N@std@@@std@@QAE?AV?$_Vector_iterator@V?$_Vector_val@U?$_Simple_types@N@std@@@std@@@2@V?$_Vector_const_iterator@V?$_Vector_val@U?$_Simple_types@N@std@@@std@@@2@IABN@Z 004417f0 f i fluidsim.obj
 0002:00019830       ?length@?$char_traits@D@std@@SAIPBD@Z 00441830 f i fluidsim.obj
 0002:00019880       ?load_levelset@FluidSim@@AAE_NV?$basic_string@DU?$char_traits@D@std@@V?$allocator@D@2@@std@@AAU?$Array3@MU?$Array1@M@@@@_N@Z 00441880 f   fluidsim.obj
 0002:00019c40       ?max_size@?$_Wrap_alloc@V?$allocator@D@std@@@std@@QBEIXZ 00441c40 f i fluidsim.obj
 0002:00019c70       ?max_size@?$_Wrap_alloc@V?$allocator@I@std@@@std@@QBEIXZ 00441c70 f i fluidsim.obj
 0002:00019ca0       ?max_size@?$_Wrap_alloc@V?$allocator@N@std@@@std@@QBEIXZ 00441ca0 f i fluidsim.obj
 0002:00019cd0       ?max_size@?$_Wrap_alloc@V?$allocator@U?$Vec@$02I@@@std@@@std@@QBEIXZ 00441cd0 f i fluidsim.obj
 0002:00019d00       ?max_size@?$_Wrap_alloc@V?$allocator@U?$Vec@$02M@@@std@@@std@@QBEIXZ 00441d00 f i fluidsim.obj
 0002:00019d30       ?max_size@?$_Wrap_alloc@V?$allocator@V?$vector@IV?$allocator@I@std@@@std@@@std@@@std@@QBEIXZ 00441d30 f i fluidsim.obj
 0002:00019d60       ?max_size@?$_Wrap_alloc@V?$allocator@V?$vector@NV?$allocator@N@std@@@std@@@std@@@std@@QBEIXZ 00441d60 f i fluidsim.obj
 0002:00019d90       ?max_size@?$allocator@D@std@@QBEIXZ 00441d90 f i fluidsim.obj
 0002:00019db0       ?max_size@?$allocator@I@std@@QBEIXZ 00441db0 f i fluidsim.obj
 0002:00019dd0       ?max_size@?$allocator@N@std@@QBEIXZ 00441dd0 f i fluidsim.obj
 0002:00019df0       ?max_size@?$allocator@U?$Vec@$02I@@@std@@QBEIXZ 00441df0 f i fluidsim.obj
 0002:00019e10       ?max_size@?$allocator@U?$Vec@$02M@@@std@@QBEIXZ 00441e10 f i fluidsim.obj
 0002:00019e30       ?max_size@?$allocator@V?$vector@IV?$allocator@I@std@@@std@@@std@@QBEIXZ 00441e30 f i fluidsim.obj
 0002:00019e50       ?max_size@?$allocator@V?$vector@NV?$allocator@N@std@@@std@@@std@@QBEIXZ 00441e50 f i fluidsim.obj
 0002:00019e70       ?max_size@?$allocator_traits@V?$allocator@D@std@@@std@@SAIABV?$allocator@D@2@@Z 00441e70 f i fluidsim.obj
 0002:00019e90       ?max_size@?$allocator_traits@V?$allocator@I@std@@@std@@SAIABV?$allocator@I@2@@Z 00441e90 f i fluidsim.obj
 0002:00019eb0       ?max_size@?$allocator_traits@V?$allocator@N@std@@@std@@SAIABV?$allocator@N@2@@Z 00441eb0 f i fluidsim.obj
 0002:00019ed0       ?max_size@?$allocator_traits@V?$allocator@U?$Vec@$02I@@@std@@@std@@SAIABV?$allocator@U?$Vec@$02I@@@2@@Z 00441ed0 f i fluidsim.obj
 0002:00019ef0       ?max_size@?$allocator_traits@V?$allocator@U?$Vec@$02M@@@std@@@std@@SAIABV?$allocator@U?$Vec@$02M@@@2@@Z 00441ef0 f i fluidsim.obj
 0002:00019f10       ?max_size@?$allocator_traits@V?$allocator@V?$vector@IV?$allocator@I@std@@@std@@@std@@@std@@SAIABV?$allocator@V?$vector@IV?$allocator@I@std@@@std@@@2@@Z 00441f10 f i fluidsim.obj
 0002:00019f30       ?max_size@?$allocator_traits@V?$allocator@V?$vector@NV?$allocator@N@std@@@std@@@std@@@std@@SAIABV?$allocator@V?$vector@NV?$allocator@N@std@@@std@@@2@@Z 00441f30 f i fluidsim.obj
 0002:00019f50       ?max_size@?$basic_string@DU?$char_traits@D@std@@V?$allocator@D@2@@std@@QBEIXZ 00441f50 f i fluidsim.obj
 0002:00019fb0       ?max_size@?$vector@IV?$allocator@I@std@@@std@@QBEIXZ 00441fb0 f i fluidsim.obj
 0002:00019fe0       ?max_size@?$vector@NV?$allocator@N@std@@@std@@QBEIXZ 00441fe0 f i fluidsim.obj
 0002:0001a010       ?max_size@?$vector@U?$Vec@$02I@@V?$allocator@U?$Vec@$02I@@@std@@@std@@QBEIXZ 00442010 f i fluidsim.obj
 0002:0001a040       ?max_size@?$vector@U?$Vec@$02M@@V?$allocator@U?$Vec@$02M@@@std@@@std@@QBEIXZ 00442040 f i fluidsim.obj
 0002:0001a070       ?max_size@?$vector@V?$vector@IV?$allocator@I@std@@@std@@V?$allocator@V?$vector@IV?$allocator@I@std@@@std@@@2@@std@@QBEIXZ 00442070 f i fluidsim.obj
 0002:0001a0a0       ?max_size@?$vector@V?$vector@NV?$allocator@N@std@@@std@@V?$allocator@V?$vector@NV?$allocator@N@std@@@std@@@2@@std@@QBEIXZ 004420a0 f i fluidsim.obj
 0002:0001a0d0       ?message@_Generic_error_category@std@@UBE?AV?$basic_string@DU?$char_traits@D@std@@V?$allocator@D@2@@2@H@Z 004420d0 f i fluidsim.obj
 0002:0001a140       ?message@_Iostream_error_category@std@@UBE?AV?$basic_string@DU?$char_traits@D@std@@V?$allocator@D@2@@2@H@Z 00442140 f i fluidsim.obj
 0002:0001a1c0       ?message@_System_error_category@std@@UBE?AV?$basic_string@DU?$char_traits@D@std@@V?$allocator@D@2@@2@H@Z 004421c0 f i fluidsim.obj
 0002:0001a230       ?move@?$char_traits@D@std@@SAPADPADPBDI@Z 00442230 f i fluidsim.obj
 0002:0001a280       ?name@_Generic_error_category@std@@UBEPBDXZ 00442280 f i fluidsim.obj
 0002:0001a2a0       ?name@_Iostream_error_category@std@@UBEPBDXZ 004422a0 f i fluidsim.obj
 0002:0001a2c0       ?name@_System_error_category@std@@UBEPBDXZ 004422c0 f i fluidsim.obj
 0002:0001a2e0       ?not_eof@?$char_traits@D@std@@SAHABH@Z 004422e0 f i fluidsim.obj
 0002:0001a340       ?open@?$basic_filebuf@DU?$char_traits@D@std@@@std@@QAEPAV12@PBDHH@Z 00442340 f i fluidsim.obj
 0002:0001a430       ?overflow@?$basic_filebuf@DU?$char_traits@D@std@@@std@@MAEHH@Z 00442430 f i fluidsim.obj
 0002:0001a880       ?overflow@?$basic_stringbuf@DU?$char_traits@D@std@@V?$allocator@D@2@@std@@MAEHH@Z 00442880 f i fluidsim.obj
 0002:0001ac30       ?pbackfail@?$basic_filebuf@DU?$char_traits@D@std@@@std@@MAEHH@Z 00442c30 f i fluidsim.obj
 0002:0001ade0       ?pbackfail@?$basic_stringbuf@DU?$char_traits@D@std@@V?$allocator@D@2@@std@@MAEHH@Z 00442de0 f i fluidsim.obj
 0002:0001af10       ?project@FluidSim@@AAEXM@Z 00442f10 f   fluidsim.obj
 0002:0001af60       ?push_back@?$vector@IV?$allocator@I@std@@@std@@QAEXABI@Z 00442f60 f i fluidsim.obj
 0002:0001b0b0       ?push_back@?$vector@NV?$allocator@N@std@@@std@@QAEXABN@Z 004430b0 f i fluidsim.obj
 0002:0001b200       ?push_back@?$vector@U?$Vec@$02I@@V?$allocator@U?$Vec@$02I@@@std@@@std@@QAEX$$QAU?$Vec@$02I@@@Z 00443200 f i fluidsim.obj
 0002:0001b370       ?push_back@?$vector@U?$Vec@$02M@@V?$allocator@U?$Vec@$02M@@@std@@@std@@QAEXABU?$Vec@$02M@@@Z 00443370 f i fluidsim.obj
 0002:0001b4d0       ?randhash@@YAII@Z          004434d0 f i fluidsim.obj
 0002:0001b540       ?randhashf@@YAMI@Z         00443540 f i fluidsim.obj
 0002:0001b5a0       ?reserve@?$Array1@D@@QAEXK@Z 004435a0 f i fluidsim.obj
 0002:0001b640       ?reserve@?$Array1@M@@QAEXK@Z 00443640 f i fluidsim.obj
 0002:0001b6e0       ?resize@?$Array1@D@@QAEXK@Z 004436e0 f i fluidsim.obj
 0002:0001b730       ?resize@?$Array1@M@@QAEXK@Z 00443730 f i fluidsim.obj
 0002:0001b780       ?resize@?$Array3@DU?$Array1@D@@@@QAEXHHH@Z 00443780 f i fluidsim.obj
 0002:0001b810       ?resize@?$Array3@MU?$Array1@M@@@@QAEXHHH@Z 00443810 f i fluidsim.obj
 0002:0001b8a0       ?resize@?$FixedSparseMatrix@N@@QAEXH@Z 004438a0 f i fluidsim.obj
 0002:0001b8e0       ?resize@?$SparseColumnLowerFactor@N@@QAEXI@Z 004438e0 f i fluidsim.obj
 0002:0001b950       ?resize@?$SparseMatrix@N@@QAEXH@Z 00443950 f i fluidsim.obj
 0002:0001b9a0       ?resize@?$vector@IV?$allocator@I@std@@@std@@QAEXI@Z 004439a0 f i fluidsim.obj
 0002:0001bb30       ?resize@?$vector@NV?$allocator@N@std@@@std@@QAEXI@Z 00443b30 f i fluidsim.obj
 0002:0001bcc0       ?resize@?$vector@V?$vector@IV?$allocator@I@std@@@std@@V?$allocator@V?$vector@IV?$allocator@I@std@@@std@@@2@@std@@QAEXI@Z 00443cc0 f i fluidsim.obj
 0002:0001be50       ?resize@?$vector@V?$vector@NV?$allocator@N@std@@@std@@V?$allocator@V?$vector@NV?$allocator@N@std@@@std@@@2@@std@@QAEXI@Z 00443e50 f i fluidsim.obj
 0002:0001bfe0       ?seekoff@?$basic_filebuf@DU?$char_traits@D@std@@@std@@MAE?AV?$fpos@H@2@_JHH@Z 00443fe0 f i fluidsim.obj
 0002:0001c100       ?seekoff@?$basic_stringbuf@DU?$char_traits@D@std@@V?$allocator@D@2@@std@@MAE?AV?$fpos@H@2@_JHH@Z 00444100 f i fluidsim.obj
 0002:0001c470       ?seekpos@?$basic_filebuf@DU?$char_traits@D@std@@@std@@MAE?AV?$fpos@H@2@V32@H@Z 00444470 f i fluidsim.obj
 0002:0001c5a0       ?seekpos@?$basic_stringbuf@DU?$char_traits@D@std@@V?$allocator@D@2@@std@@MAE?AV?$fpos@H@2@V32@H@Z 004445a0 f i fluidsim.obj
 0002:0001c820       ?seekpos@?$fpos@H@std@@QBE_JXZ 00444820 f i fluidsim.obj
 0002:0001c850       ?select_on_container_copy_construction@?$_Wrap_alloc@V?$allocator@D@std@@@std@@QBE?AU12@XZ 00444850 f i fluidsim.obj
 0002:0001c890       ?select_on_container_copy_construction@?$allocator@D@std@@QBE?AV12@XZ 00444890 f i fluidsim.obj
 0002:0001c8c0       ?select_on_container_copy_construction@?$allocator_traits@V?$allocator@D@std@@@std@@SA?AV?$allocator@D@2@ABV32@@Z 004448c0 f i fluidsim.obj
 0002:0001c8f0       ?set_boundary@FluidSim@@QAEXP6AMABU?$Vec@$02M@@@Z@Z 004448f0 f   fluidsim.obj
 0002:0001ca40       ?set_boundary@FluidSim@@QAEXV?$basic_string@DU?$char_traits@D@std@@V?$allocator@D@2@@std@@@Z 00444a40 f   fluidsim.obj
 0002:0001cae0       ?set_liquid@FluidSim@@QAEXP6AMABU?$Vec@$02M@@@Z@Z 00444ae0 f   fluidsim.obj
 0002:0001cd90       ?set_liquid@FluidSim@@QAEXV?$basic_string@DU?$char_traits@D@std@@V?$allocator@D@2@@std@@@Z 00444d90 f   fluidsim.obj
 0002:0001d0f0       ?set_solver_parameters@?$PCGSolver@N@@QAEXNHNN@Z 004450f0 f i fluidsim.obj
 0002:0001d190       ?set_zero@?$Array1@M@@QAEXXZ 00445190 f i fluidsim.obj
 0002:0001d1d0       ?set_zero@?$Array3@MU?$Array1@M@@@@QAEXXZ 004451d0 f i fluidsim.obj
 0002:0001d200       ?setbuf@?$basic_filebuf@DU?$char_traits@D@std@@@std@@MAEPAV?$basic_streambuf@DU?$char_traits@D@std@@@2@PAD_J@Z 00445200 f i fluidsim.obj
 0002:0001d2a0       ?size@?$Array1@D@@QBEKXZ   004452a0 f i fluidsim.obj
 0002:0001d2c0       ?size@?$Array1@M@@QBEKXZ   004452c0 f i fluidsim.obj
 0002:0001d2e0       ?size@?$basic_string@DU?$char_traits@D@std@@V?$allocator@D@2@@std@@QBEIXZ 004452e0 f i fluidsim.obj
 0002:0001d300       ?size@?$vector@IV?$allocator@I@std@@@std@@QBEIXZ 00445300 f i fluidsim.obj
 0002:0001d330       ?size@?$vector@NV?$allocator@N@std@@@std@@QBEIXZ 00445330 f i fluidsim.obj
 0002:0001d360       ?size@?$vector@U?$Vec@$02I@@V?$allocator@U?$Vec@$02I@@@std@@@std@@QBEIXZ 00445360 f i fluidsim.obj
 0002:0001d390       ?size@?$vector@U?$Vec@$02M@@V?$allocator@U?$Vec@$02M@@@std@@@std@@QBEIXZ 00445390 f i fluidsim.obj
 0002:0001d3c0       ?size@?$vector@V?$vector@IV?$allocator@I@std@@@std@@V?$allocator@V?$vector@IV?$allocator@I@std@@@std@@@2@@std@@QBEIXZ 004453c0 f i fluidsim.obj
 0002:0001d3f0       ?size@?$vector@V?$vector@NV?$allocator@N@std@@@std@@V?$allocator@V?$vector@NV?$allocator@N@std@@@std@@@2@@std@@QBEIXZ 004453f0 f i fluidsim.obj
 0002:0001d420       ?solve@?$PCGSolver@N@@QAE_NABU?$SparseMatrix@N@@ABV?$vector@NV?$allocator@N@std@@@std@@AAV34@AANAAH@Z 00445420 f i fluidsim.obj
 0002:0001d7b0       ?solve_pressure@FluidSim@@AAEXM@Z 004457b0 f   fluidsim.obj
 0002:0001f4d0       ?sqrt@@YAMM@Z              004474d0 f i fluidsim.obj
 0002:0001f500       ?state@?$fpos@H@std@@QBEHXZ 00447500 f i fluidsim.obj
 0002:0001f520       ?substr@?$basic_string@DU?$char_traits@D@std@@V?$allocator@D@2@@std@@QBE?AV12@II@Z 00447520 f i fluidsim.obj
 0002:0001f580       ?swap@?$vector@NV?$allocator@N@std@@@std@@QAEXAAV12@@Z 00447580 f i fluidsim.obj
 0002:0001f740       ?sync@?$basic_filebuf@DU?$char_traits@D@std@@@std@@MAEHXZ 00447740 f i fluidsim.obj
 0002:0001f7e0       ?system_category@std@@YAABVerror_category@1@XZ 004477e0 f i fluidsim.obj
 0002:0001f800       ?to_char_type@?$char_traits@D@std@@SADABH@Z 00447800 f i fluidsim.obj
 0002:0001f820       ?to_int_type@?$char_traits@D@std@@SAHABD@Z 00447820 f i fluidsim.obj
 0002:0001f840       ?trace_rk2@FluidSim@@AAE?AU?$Vec@$02M@@ABU2@M@Z 00447840 f   fluidsim.obj
 0002:0001f960       ?uflow@?$basic_filebuf@DU?$char_traits@D@std@@@std@@MAEHXZ 00447960 f i fluidsim.obj
 0002:0001fd60       ?underflow@?$basic_filebuf@DU?$char_traits@D@std@@@std@@MAEHXZ 00447d60 f i fluidsim.obj
 0002:0001fe20       ?underflow@?$basic_stringbuf@DU?$char_traits@D@std@@V?$allocator@D@2@@std@@MAEHXZ 00447e20 f i fluidsim.obj
 0002:0001ff70       ?value@error_code@std@@QBEHXZ 00447f70 f i fluidsim.obj
 0002:0001ff90       ?value@error_condition@std@@QBEHXZ 00447f90 f i fluidsim.obj
 0002:0001ffb0       ?zero@?$SparseMatrix@N@@QAEXXZ 00447fb0 f i fluidsim.obj
 0002:00020030       _fabsf                     00448030 f i fluidsim.obj
 0002:00020080       _floorf                    00448080 f i fluidsim.obj
 0002:000200d0       _sqrtf                     004480d0 f i fluidsim.obj
 0002:000201b0       ?fraction_inside@@YAMMM@Z  004481b0 f   levelset_util.obj
 0002:00020280       ?fraction_inside@@YAMMMMM@Z 00448280 f   levelset_util.obj
 0002:00020b10       ??$?0M@?$Vec@$02M@@QAE@PBM@Z 00448b10 f i main.obj
 0002:00020b70       ??$?0M@?$tvec3@M@detail@glm@@QAE@ABU?$tvec4@M@12@@Z 00448b70 f i main.obj
 0002:00020bc0       ??$_Allocate@H@std@@YAPAHIPAH@Z 00448bc0 f i main.obj
 0002:00020c20       ??$_Allocate@PAUWidget@Gluvi@@@std@@YAPAPAUWidget@Gluvi@@IPAPAU12@@Z 00448c20 f i main.obj
 0002:00020c80       ??$_Destroy_range@U?$_Wrap_alloc@V?$allocator@H@std@@@std@@@std@@YAXPAH0AAU?$_Wrap_alloc@V?$allocator@H@std@@@0@@Z 00448c80 f i main.obj
 0002:00020cd0       ??$_Destroy_range@U?$_Wrap_alloc@V?$allocator@H@std@@@std@@@std@@YAXPAH0AAU?$_Wrap_alloc@V?$allocator@H@std@@@0@U_Scalar_ptr_iterator_tag@0@@Z 00448cd0 f i main.obj
 0002:00020cf0       ??$_Destroy_range@U?$_Wrap_alloc@V?$allocator@PAUWidget@Gluvi@@@std@@@std@@@std@@YAXPAPAUWidget@Gluvi@@0AAU?$_Wrap_alloc@V?$allocator@PAUWidget@Gluvi@@@std@@@0@@Z 00448cf0 f i main.obj
 0002:00020d40       ??$_Destroy_range@U?$_Wrap_alloc@V?$allocator@PAUWidget@Gluvi@@@std@@@std@@@std@@YAXPAPAUWidget@Gluvi@@0AAU?$_Wrap_alloc@V?$allocator@PAUWidget@Gluvi@@@std@@@0@U_Scalar_ptr_iterator_tag@0@@Z 00448d40 f i main.obj
 0002:00020d60       ??$_Ptr_cat@HH@std@@YA?AU_Scalar_ptr_iterator_tag@0@PAH0@Z 00448d60 f i main.obj
 0002:00020d80       ??$_Ptr_cat@PAUWidget@Gluvi@@PAU12@@std@@YA?AU_Scalar_ptr_iterator_tag@0@PAPAUWidget@Gluvi@@0@Z 00448d80 f i main.obj
 0002:00020da0       ??$_Ptr_cat@V?$_Vector_const_iterator@V?$_Vector_val@U?$_Simple_types@H@std@@@std@@@std@@PAH@std@@YA?AU_Nonscalar_ptr_iterator_tag@0@AAV?$_Vector_const_iterator@V?$_Vector_val@U?$_Simple_types@H@std@@@std@@@0@AAPAH@Z 00448da0 f i main.obj
 0002:00020dc0       ??$_Ucopy@V?$_Vector_const_iterator@V?$_Vector_val@U?$_Simple_types@H@std@@@std@@@std@@@?$vector@HV?$allocator@H@std@@@std@@IAEPAHV?$_Vector_const_iterator@V?$_Vector_val@U?$_Simple_types@H@std@@@std@@@1@0PAH@Z 00448dc0 f i main.obj
 0002:00020e10       ??$_Umove@PAPAUWidget@Gluvi@@@?$vector@PAUWidget@Gluvi@@V?$allocator@PAUWidget@Gluvi@@@std@@@std@@IAEPAPAUWidget@Gluvi@@PAPAU23@00@Z 00448e10 f i main.obj
 0002:00020e60       ??$_Uninit_copy@V?$_Vector_const_iterator@V?$_Vector_val@U?$_Simple_types@H@std@@@std@@@std@@PAHV?$allocator@H@2@@std@@YAPAHV?$_Vector_const_iterator@V?$_Vector_val@U?$_Simple_types@H@std@@@std@@@0@0PAHAAU?$_Wrap_alloc@V?$allocator@H@std@@@0@U_Nonscalar_ptr_iterator_tag@0@@Z 00448e60 f i main.obj
 0002:00020f70       ??$_Uninit_move@PAUWidget@Gluvi@@PAU12@PAU12@@std@@YAPAPAUWidget@Gluvi@@PAPAU12@00AAU?$_Wrap_alloc@V?$allocator@PAUWidget@Gluvi@@@std@@@0@0U_Scalar_ptr_iterator_tag@0@@Z 00448f70 f i main.obj
 0002:00020fc0       ??$_Uninitialized_copy@V?$_Vector_const_iterator@V?$_Vector_val@U?$_Simple_types@H@std@@@std@@@std@@PAHU?$_Wrap_alloc@V?$allocator@H@std@@@2@@std@@YAPAHV?$_Vector_const_iterator@V?$_Vector_val@U?$_Simple_types@H@std@@@std@@@0@0PAHAAU?$_Wrap_alloc@V?$allocator@H@std@@@0@@Z 00448fc0 f i main.obj
 0002:00021010       ??$_Uninitialized_move@PAPAUWidget@Gluvi@@PAPAU12@U?$_Wrap_alloc@V?$allocator@PAUWidget@Gluvi@@@std@@@std@@@std@@YAPAPAUWidget@Gluvi@@PAPAU12@00AAU?$_Wrap_alloc@V?$allocator@PAUWidget@Gluvi@@@std@@@0@@Z 00449010 f i main.obj
 0002:00021070       ??$_Val_type@PAPAUWidget@Gluvi@@@std@@YAPAPAUWidget@Gluvi@@PAPAU12@@Z 00449070 f i main.obj
 0002:00021090       ??$addressof@PAUWidget@Gluvi@@@std@@YAPAPAUWidget@Gluvi@@AAPAU12@@Z 00449090 f i main.obj
 0002:000210b0       ??$construct@HABH@?$_Wrap_alloc@V?$allocator@H@std@@@std@@QAEXPAHABH@Z 004490b0 f i main.obj
 0002:000210f0       ??$construct@HABH@?$allocator_traits@V?$allocator@H@std@@@std@@SAXAAV?$allocator@H@1@PAHABH@Z 004490f0 f i main.obj
 0002:00021130       ??$construct@PAUWidget@Gluvi@@PAU12@@?$_Wrap_alloc@V?$allocator@PAUWidget@Gluvi@@@std@@@std@@QAEXPAPAUWidget@Gluvi@@$$QAPAU23@@Z 00449130 f i main.obj
 0002:00021170       ??$construct@PAUWidget@Gluvi@@PAU12@@?$allocator@PAUWidget@Gluvi@@@std@@QAEXPAPAUWidget@Gluvi@@$$QAPAU23@@Z 00449170 f i main.obj
 0002:00021220       ??$construct@PAUWidget@Gluvi@@PAU12@@?$allocator_traits@V?$allocator@PAUWidget@Gluvi@@@std@@@std@@SAXAAV?$allocator@PAUWidget@Gluvi@@@1@PAPAUWidget@Gluvi@@$$QAPAU34@@Z 00449220 f i main.obj
 0002:00021260       ??$destroy@H@?$_Wrap_alloc@V?$allocator@H@std@@@std@@QAEXPAH@Z 00449260 f i main.obj
 0002:00021290       ??$destroy@H@?$allocator@H@std@@QAEXPAH@Z 00449290 f i main.obj
 0002:000212b0       ??$destroy@H@?$allocator_traits@V?$allocator@H@std@@@std@@SAXAAV?$allocator@H@1@PAH@Z 004492b0 f i main.obj
 0002:000212e0       ??$forward@ABH@std@@YAABHABH@Z 004492e0 f i main.obj
 0002:00021300       ??$forward@PAUWidget@Gluvi@@@std@@YA$$QAPAUWidget@Gluvi@@AAPAU12@@Z 00449300 f i main.obj
 0002:00021320       ??0?$Array1@D@@QAE@XZ      00449320 f i main.obj
 0002:00021360       ??0?$Array1@M@@QAE@XZ      00449360 f i main.obj
 0002:000213a0       ??0?$Array3@DU?$Array1@D@@@@QAE@XZ 004493a0 f i main.obj
 0002:000213f0       ??0?$Array3@MU?$Array1@M@@@@QAE@XZ 004493f0 f i main.obj
 0002:00021440       ??0?$FixedSparseMatrix@N@@QAE@I@Z 00449440 f i main.obj
 0002:000214f0       ??0?$PCGSolver@N@@QAE@XZ   004494f0 f i main.obj
 0002:00021610       ??0?$SparseColumnLowerFactor@N@@QAE@I@Z 00449610 f i main.obj
 0002:000216f0       ??0?$SparseMatrix@N@@QAE@II@Z 004496f0 f i main.obj
 0002:000217f0       ??0?$_Vector_alloc@$0A@U?$_Vec_base_types@HV?$allocator@H@std@@@std@@@std@@QAE@ABV?$allocator@H@1@@Z 004497f0 f i main.obj
 0002:00021820       ??0?$_Vector_alloc@$0A@U?$_Vec_base_types@V?$vector@IV?$allocator@I@std@@@std@@V?$allocator@V?$vector@IV?$allocator@I@std@@@std@@@2@@std@@@std@@QAE@ABV?$allocator@V?$vector@IV?$allocator@I@std@@@std@@@1@@Z 00449820 f i main.obj
 0002:00021850       ??0?$_Vector_alloc@$0A@U?$_Vec_base_types@V?$vector@NV?$allocator@N@std@@@std@@V?$allocator@V?$vector@NV?$allocator@N@std@@@std@@@2@@std@@@std@@QAE@ABV?$allocator@V?$vector@NV?$allocator@N@std@@@std@@@1@@Z 00449850 f i main.obj
 0002:00021880       ??0?$_Vector_const_iterator@V?$_Vector_val@U?$_Simple_types@H@std@@@std@@@std@@QAE@PAHPBU_Container_base0@1@@Z 00449880 f i main.obj
 0002:000218c0       ??0?$_Vector_val@U?$_Simple_types@H@std@@@std@@QAE@XZ 004498c0 f i main.obj
 0002:00021900       ??0?$_Vector_val@U?$_Simple_types@V?$vector@IV?$allocator@I@std@@@std@@@std@@@std@@QAE@XZ 00449900 f i main.obj
 0002:00021940       ??0?$_Vector_val@U?$_Simple_types@V?$vector@NV?$allocator@N@std@@@std@@@std@@@std@@QAE@XZ 00449940 f i main.obj
 0002:00021980       ??0?$_Wrap_alloc@V?$allocator@H@std@@@std@@QAE@ABV?$allocator@H@1@@Z 00449980 f i main.obj
 0002:000219b0       ??0?$_Wrap_alloc@V?$allocator@H@std@@@std@@QAE@XZ 004499b0 f i main.obj
 0002:000219e0       ??0?$_Wrap_alloc@V?$allocator@PAUWidget@Gluvi@@@std@@@std@@QAE@XZ 004499e0 f i main.obj
 0002:00021a10       ??0?$allocator@H@std@@QAE@ABV01@@Z 00449a10 f i main.obj
 0002:00021a30       ??0?$allocator@H@std@@QAE@XZ 00449a30 f i main.obj
 0002:00021a50       ??0?$allocator@PAUWidget@Gluvi@@@std@@QAE@XZ 00449a50 f i main.obj
 0002:00021a70       ??0?$basic_string@DU?$char_traits@D@std@@V?$allocator@D@2@@std@@QAE@PBDI@Z 00449a70 f i main.obj
 0002:00021ad0       ??0?$basic_stringbuf@DU?$char_traits@D@std@@V?$allocator@D@2@@std@@QAE@H@Z 00449ad0 f i main.obj
 0002:00021b80       ??0?$basic_stringstream@DU?$char_traits@D@std@@V?$allocator@D@2@@std@@QAE@H@Z 00449b80 f i main.obj
 0002:00021c90       ??0?$vector@HV?$allocator@H@std@@@std@@QAE@ABV01@@Z 00449c90 f i main.obj
 0002:00021db0       ??0?$vector@IV?$allocator@I@std@@@std@@QAE@I@Z 00449db0 f i main.obj
 0002:00021e00       ??0?$vector@NV?$allocator@N@std@@@std@@QAE@I@Z 00449e00 f i main.obj
 0002:00021e50       ??0?$vector@V?$vector@IV?$allocator@I@std@@@std@@V?$allocator@V?$vector@IV?$allocator@I@std@@@std@@@2@@std@@QAE@I@Z 00449e50 f i main.obj
 0002:00021ea0       ??0?$vector@V?$vector@NV?$allocator@N@std@@@std@@V?$allocator@V?$vector@NV?$allocator@N@std@@@std@@@2@@std@@QAE@I@Z 00449ea0 f i main.obj
 0002:00021ef0       ??0FluidSim@@QAE@XZ        00449ef0 f i main.obj
 0002:00022120       ??1?$FixedSparseMatrix@N@@QAE@XZ 0044a120 f i main.obj
 0002:00022170       ??1?$PCGSolver@N@@QAE@XZ   0044a170 f i main.obj
 0002:000221e0       ??1?$SparseColumnLowerFactor@N@@QAE@XZ 0044a1e0 f i main.obj
 0002:00022240       ??1?$SparseMatrix@N@@QAE@XZ 0044a240 f i main.obj
 0002:00022280       ??1?$vector@HV?$allocator@H@std@@@std@@QAE@XZ 0044a280 f i main.obj
 0002:000222b0       ??1?$vector@V?$vector@IV?$allocator@I@std@@@std@@V?$allocator@V?$vector@IV?$allocator@I@std@@@std@@@2@@std@@QAE@XZ 0044a2b0 f i main.obj
 0002:000222e0       ??1?$vector@V?$vector@NV?$allocator@N@std@@@std@@V?$allocator@V?$vector@NV?$allocator@N@std@@@std@@@2@@std@@QAE@XZ 0044a2e0 f i main.obj
 0002:00022310       ??1Camera@Gluvi@@UAE@XZ    0044a310 f i main.obj
 0002:00022340       ??1FluidSim@@QAE@XZ        0044a340 f i main.obj
 0002:00022550       ??1StaticText@Gluvi@@UAE@XZ 0044a550 f i main.obj
 0002:00022580       ??1Target3D@Gluvi@@UAE@XZ  0044a580 f i main.obj
 0002:000225b0       ??1Widget@Gluvi@@UAE@XZ    0044a5b0 f i main.obj
 0002:000225e0       ??8?$_Vector_const_iterator@V?$_Vector_val@U?$_Simple_types@H@std@@@std@@@std@@QBE_NABV01@@Z 0044a5e0 f i main.obj
 0002:00022630       ??9?$_Vector_const_iterator@V?$_Vector_val@U?$_Simple_types@H@std@@@std@@@std@@QBE_NABV01@@Z 0044a630 f i main.obj
 0002:00022680       ??A?$vector@HV?$allocator@H@std@@@std@@QAEAAHI@Z 0044a680 f i main.obj
 0002:000226b0       ??A?$vector@U?$Vec@$02M@@V?$allocator@U?$Vec@$02M@@@std@@@std@@QBEABU?$Vec@$02M@@I@Z 0044a6b0 f i main.obj
 0002:000226e0       ??A?$vector@U?$tvec4@M@detail@glm@@V?$allocator@U?$tvec4@M@detail@glm@@@std@@@std@@QAEAAU?$tvec4@M@detail@glm@@I@Z 0044a6e0 f i main.obj
 0002:00022710       ??A?$vector@V?$vector@HV?$allocator@H@std@@@std@@V?$allocator@V?$vector@HV?$allocator@H@std@@@std@@@2@@std@@QAEAAV?$vector@HV?$allocator@H@std@@@1@I@Z 0044a710 f i main.obj
 0002:00022740       ??D?$_Vector_const_iterator@V?$_Vector_val@U?$_Simple_types@H@std@@@std@@@std@@QBEABHXZ 0044a740 f i main.obj
 0002:00022760       ??E?$_Vector_const_iterator@V?$_Vector_val@U?$_Simple_types@H@std@@@std@@@std@@QAEAAV01@XZ 0044a760 f i main.obj
 0002:00022790       ??_ECamera@Gluvi@@UAEPAXI@Z 0044a790 f i main.obj
 0002:00022790       ??_GCamera@Gluvi@@UAEPAXI@Z 0044a790 f i main.obj
 0002:000227e0       ??_GWidget@Gluvi@@UAEPAXI@Z 0044a7e0 f i main.obj
 0002:000227e0       ??_EWidget@Gluvi@@UAEPAXI@Z 0044a7e0 f i main.obj
 0002:00022830       ??_GobjLoader@@QAEPAXI@Z   0044a830 f i main.obj
 0002:00022880       ?_Buy@?$vector@HV?$allocator@H@std@@@std@@IAE_NI@Z 0044a880 f i main.obj
 0002:00022940       ?_Compat@?$_Vector_const_iterator@V?$_Vector_val@U?$_Simple_types@H@std@@@std@@@std@@QBEXABV12@@Z 0044a940 f i main.obj
 0002:00022960       ?_Destroy@?$vector@HV?$allocator@H@std@@@std@@IAEXPAH0@Z 0044a960 f i main.obj
 0002:000229b0       ?_Destroy@?$vector@PAUWidget@Gluvi@@V?$allocator@PAUWidget@Gluvi@@@std@@@std@@IAEXPAPAUWidget@Gluvi@@0@Z 0044a9b0 f i main.obj
 0002:00022a00       ?_Getal@?$_Vector_alloc@$0A@U?$_Vec_base_types@HV?$allocator@H@std@@@std@@@std@@QBE?AU?$_Wrap_alloc@V?$allocator@H@std@@@2@XZ 0044aa00 f i main.obj
 0002:00022a30       ?_Getal@?$_Vector_alloc@$0A@U?$_Vec_base_types@PAUWidget@Gluvi@@V?$allocator@PAUWidget@Gluvi@@@std@@@std@@@std@@QBE?AU?$_Wrap_alloc@V?$allocator@PAUWidget@Gluvi@@@std@@@2@XZ 0044aa30 f i main.obj
 0002:00022a60       ?_Grow_to@?$vector@PAUWidget@Gluvi@@V?$allocator@PAUWidget@Gluvi@@@std@@@std@@IBEII@Z 0044aa60 f i main.obj
 0002:00022ae0       ?_Inside@?$vector@PAUWidget@Gluvi@@V?$allocator@PAUWidget@Gluvi@@@std@@@std@@IBE_NPBQAUWidget@Gluvi@@@Z 0044aae0 f i main.obj
 0002:00022b30       ?_Orphan_range@?$vector@PAUWidget@Gluvi@@V?$allocator@PAUWidget@Gluvi@@@std@@@std@@IBEXPAPAUWidget@Gluvi@@0@Z 0044ab30 f i main.obj
 0002:00022b50       ?_Reallocate@?$vector@PAUWidget@Gluvi@@V?$allocator@PAUWidget@Gluvi@@@std@@@std@@IAEXI@Z 0044ab50 f i main.obj
 0002:00022ce0       ?_Reserve@?$vector@PAUWidget@Gluvi@@V?$allocator@PAUWidget@Gluvi@@@std@@@std@@IAEXI@Z 0044ace0 f i main.obj
 0002:00022d60       ?_Tidy@?$vector@HV?$allocator@H@std@@@std@@IAEXXZ 0044ad60 f i main.obj
 0002:00022e00       ?_Unused_capacity@?$vector@PAUWidget@Gluvi@@V?$allocator@PAUWidget@Gluvi@@@std@@@std@@QBEIXZ 0044ae00 f i main.obj
 0002:00022e30       ?_Xlen@?$vector@HV?$allocator@H@std@@@std@@IBEXXZ 0044ae30 f i main.obj
 0002:00022e60       ?_Xlen@?$vector@PAUWidget@Gluvi@@V?$allocator@PAUWidget@Gluvi@@@std@@@std@@IBEXXZ 0044ae60 f i main.obj
 0002:00022e90       ?allocate@?$_Wrap_alloc@V?$allocator@H@std@@@std@@QAEPAHI@Z 0044ae90 f i main.obj
 0002:00022ec0       ?allocate@?$_Wrap_alloc@V?$allocator@PAUWidget@Gluvi@@@std@@@std@@QAEPAPAUWidget@Gluvi@@I@Z 0044aec0 f i main.obj
 0002:00022ef0       ?allocate@?$allocator@H@std@@QAEPAHI@Z 0044aef0 f i main.obj
 0002:00022f20       ?allocate@?$allocator@PAUWidget@Gluvi@@@std@@QAEPAPAUWidget@Gluvi@@I@Z 0044af20 f i main.obj
 0002:00022f50       ?begin@?$vector@HV?$allocator@H@std@@@std@@QBE?AV?$_Vector_const_iterator@V?$_Vector_val@U?$_Simple_types@H@std@@@std@@@2@XZ 0044af50 f i main.obj
 0002:00022f90       ?boundary_phi@@YAMABU?$Vec@$02M@@@Z 0044af90 f   main.obj
 0002:00022ff0       ?capacity@?$vector@PAUWidget@Gluvi@@V?$allocator@PAUWidget@Gluvi@@@std@@@std@@QBEIXZ 0044aff0 f i main.obj
 0002:00023020       ?click@Widget@Gluvi@@UAE_NHHH@Z 0044b020 f i main.obj
 0002:00023040       ?construct@?$allocator@H@std@@QAEXPAHABH@Z 0044b040 f i main.obj
 0002:000230a0       ?deallocate@?$_Wrap_alloc@V?$allocator@H@std@@@std@@QAEXPAHI@Z 0044b0a0 f i main.obj
 0002:000230d0       ?deallocate@?$_Wrap_alloc@V?$allocator@PAUWidget@Gluvi@@@std@@@std@@QAEXPAPAUWidget@Gluvi@@I@Z 0044b0d0 f i main.obj
 0002:00023100       ?deallocate@?$allocator@H@std@@QAEXPAHI@Z 0044b100 f i main.obj
 0002:00023130       ?deallocate@?$allocator@PAUWidget@Gluvi@@@std@@QAEXPAPAUWidget@Gluvi@@I@Z 0044b130 f i main.obj
 0002:00023160       ?display@@YAXXZ            0044b160 f   main.obj
 0002:00023b50       ?display_screen@Camera@Gluvi@@UAEXXZ 0044bb50 f i main.obj
 0002:00023b70       ?drag@Widget@Gluvi@@UAEXHH@Z 0044bb70 f i main.obj
 0002:00023b90       ?drawSolidBoundary@@YAXXZ  0044bb90 f   main.obj
 0002:00023e20       ?end@?$vector@HV?$allocator@H@std@@@std@@QBE?AV?$_Vector_const_iterator@V?$_Vector_val@U?$_Simple_types@H@std@@@std@@@2@XZ 0044be20 f i main.obj
 0002:00023e60       ?export_particles@@YAXV?$basic_string@DU?$char_traits@D@std@@V?$allocator@D@2@@std@@HABV?$vector@U?$Vec@$02M@@V?$allocator@U?$Vec@$02M@@@std@@@2@M@Z 0044be60 f   main.obj
 0002:00024160       ?keyPress@@YAXEHH@Z        0044c160 f   main.obj
 0002:00024210       ?liquid_phi@@YAMABU?$Vec@$02M@@@Z 0044c210 f   main.obj
 0002:000242a0       ?max_size@?$_Wrap_alloc@V?$allocator@H@std@@@std@@QBEIXZ 0044c2a0 f i main.obj
 0002:000242d0       ?max_size@?$_Wrap_alloc@V?$allocator@PAUWidget@Gluvi@@@std@@@std@@QBEIXZ 0044c2d0 f i main.obj
 0002:00024300       ?max_size@?$allocator@H@std@@QBEIXZ 0044c300 f i main.obj
 0002:00024320       ?max_size@?$allocator@PAUWidget@Gluvi@@@std@@QBEIXZ 0044c320 f i main.obj
 0002:00024340       ?max_size@?$allocator_traits@V?$allocator@H@std@@@std@@SAIABV?$allocator@H@2@@Z 0044c340 f i main.obj
 0002:00024360       ?max_size@?$allocator_traits@V?$allocator@PAUWidget@Gluvi@@@std@@@std@@SAIABV?$allocator@PAUWidget@Gluvi@@@2@@Z 0044c360 f i main.obj
 0002:00024380       ?max_size@?$vector@HV?$allocator@H@std@@@std@@QBEIXZ 0044c380 f i main.obj
 0002:000243b0       ?max_size@?$vector@PAUWidget@Gluvi@@V?$allocator@PAUWidget@Gluvi@@@std@@@std@@QBEIXZ 0044c3b0 f i main.obj
 0002:000243e0       ?push_back@?$vector@PAUWidget@Gluvi@@V?$allocator@PAUWidget@Gluvi@@@std@@@std@@QAEX$$QAPAUWidget@Gluvi@@@Z 0044c3e0 f i main.obj
 0002:00024550       ?reserve@?$vector@IV?$allocator@I@std@@@std@@QAEXI@Z 0044c550 f i main.obj
 0002:000245b0       ?reserve@?$vector@NV?$allocator@N@std@@@std@@QAEXI@Z 0044c5b0 f i main.obj
 0002:00024610       ?select_on_container_copy_construction@?$_Wrap_alloc@V?$allocator@H@std@@@std@@QBE?AU12@XZ 0044c610 f i main.obj
 0002:00024650       ?select_on_container_copy_construction@?$allocator@H@std@@QBE?AV12@XZ 0044c650 f i main.obj
 0002:00024680       ?select_on_container_copy_construction@?$allocator_traits@V?$allocator@H@std@@@std@@SA?AV?$allocator@H@2@ABV32@@Z 0044c680 f i main.obj
 0002:000246b0       ?set_lights_and_material@@YAXH@Z 0044c6b0 f   main.obj
 0002:00024780       ?set_view@@YAXAAUTarget3D@Gluvi@@@Z 0044c780 f   main.obj
 0002:00024810       ?setupDisplay@@YAXHPAPAD@Z 0044c810 f   main.obj
 0002:000249a0       ?simulate_frame@@YAXH@Z    0044c9a0 f   main.obj
 0002:00024b30       ?size@?$vector@HV?$allocator@H@std@@@std@@QBEIXZ 0044cb30 f i main.obj
 0002:00024b60       ?size@?$vector@PAUWidget@Gluvi@@V?$allocator@PAUWidget@Gluvi@@@std@@@std@@QBEIXZ 0044cb60 f i main.obj
 0002:00024b90       ?size@?$vector@V?$vector@HV?$allocator@H@std@@@std@@V?$allocator@V?$vector@HV?$allocator@H@std@@@std@@@2@@std@@QBEIXZ 0044cb90 f i main.obj
 0002:00024bc0       ?sphere_phi@@YAMABU?$Vec@$02M@@0M@Z 0044cbc0 f   main.obj
 0002:00024c10       ?str@?$basic_stringbuf@DU?$char_traits@D@std@@V?$allocator@D@2@@std@@QBE?AV?$basic_string@DU?$char_traits@D@std@@V?$allocator@D@2@@2@XZ 0044cc10 f i main.obj
 0002:00024de0       ?str@?$basic_stringstream@DU?$char_traits@D@std@@V?$allocator@D@2@@std@@QBE?AV?$basic_string@DU?$char_traits@D@std@@V?$allocator@D@2@@2@XZ 0044cde0 f i main.obj
 0002:00024e30       ?timer@@YAXH@Z             0044ce30 f   main.obj
 0002:00024ee0       _main                      0044cee0 f   main.obj
 0002:00025220       ??$assign@$02I@@YAXABU?$Vec@$02I@@AAI11@Z 0044d220 f i makelevelset3.obj
 0002:00025280       ??$clamp@H@@YAHHHH@Z       0044d280 f i makelevelset3.obj
 0002:000252c0       ??$max@N@@YANNNN@Z         0044d2c0 f i makelevelset3.obj
 0002:00025300       ??$max@N@std@@YAABNABN0@Z  0044d300 f i makelevelset3.obj
 0002:00025350       ??$min@M@std@@YAABMABM0@Z  0044d350 f i makelevelset3.obj
 0002:000253a0       ??$min@N@@YANNNN@Z         0044d3a0 f i makelevelset3.obj
 0002:000253e0       ??$min@N@std@@YAABNABN0@Z  0044d3e0 f i makelevelset3.obj
 0002:00025430       ??0?$Array1@H@@QAE@KABH@Z  0044d430 f i makelevelset3.obj
 0002:00025530       ??0?$Array3@HU?$Array1@H@@@@QAE@HHHABH@Z 0044d530 f i makelevelset3.obj
 0002:000255d0       ??1?$Array1@H@@QAE@XZ      0044d5d0 f i makelevelset3.obj
 0002:00025620       ??1?$Array3@HU?$Array1@H@@@@QAE@XZ 0044d620 f i makelevelset3.obj
 0002:00025660       ??A?$Array1@H@@QAEAAHK@Z   0044d660 f i makelevelset3.obj
 0002:00025690       ??A?$vector@U?$Vec@$02I@@V?$allocator@U?$Vec@$02I@@@std@@@std@@QBEABU?$Vec@$02I@@I@Z 0044d690 f i makelevelset3.obj
 0002:000256c0       ??R?$Array3@HU?$Array1@H@@@@QAEAAHHHH@Z 0044d6c0 f i makelevelset3.obj
 0002:000258a0       ?make_level_set3@@YAXABV?$vector@U?$Vec@$02I@@V?$allocator@U?$Vec@$02I@@@std@@@std@@ABV?$vector@U?$Vec@$02M@@V?$allocator@U?$Vec@$02M@@@std@@@2@ABU?$Vec@$02M@@MHHHAAU?$Array3@MU?$Array1@M@@@@H@Z 0044d8a0 f   makelevelset3.obj
 0002:00027730       ??$?0HHH@?$tvec3@M@detail@glm@@QAE@ABH00@Z 0044f730 f i obj.obj
 0002:00027790       ??$?0MMMH@?$tvec4@M@detail@glm@@QAE@ABM00ABH@Z 0044f790 f i obj.obj
 0002:000277f0       ??$?0NNN@?$tvec3@M@detail@glm@@QAE@ABN00@Z 0044f7f0 f i obj.obj
 0002:00027850       ??$?DM@detail@glm@@YA?AU?$tvec3@M@01@ABU201@ABM@Z 0044f850 f i obj.obj
 0002:000278d0       ??$?GM@detail@glm@@YA?AU?$tvec3@M@01@ABU201@0@Z 0044f8d0 f i obj.obj
 0002:00027950       ??$_Allocate@M@std@@YAPAMIPAM@Z 0044f950 f i obj.obj
 0002:000279b0       ??$_Allocate@PAM@std@@YAPAPAMIPAPAM@Z 0044f9b0 f i obj.obj
 0002:00027a10       ??$_Allocate@U?$tvec4@M@detail@glm@@@std@@YAPAU?$tvec4@M@detail@glm@@IPAU123@@Z 0044fa10 f i obj.obj
 0002:00027a70       ??$_Allocate@V?$vector@HV?$allocator@H@std@@@std@@@std@@YAPAV?$vector@HV?$allocator@H@std@@@0@IPAV10@@Z 0044fa70 f i obj.obj
 0002:00027ad0       ??$_Destroy_range@U?$_Wrap_alloc@V?$allocator@M@std@@@std@@@std@@YAXPAM0AAU?$_Wrap_alloc@V?$allocator@M@std@@@0@@Z 0044fad0 f i obj.obj
 0002:00027b20       ??$_Destroy_range@U?$_Wrap_alloc@V?$allocator@M@std@@@std@@@std@@YAXPAM0AAU?$_Wrap_alloc@V?$allocator@M@std@@@0@U_Scalar_ptr_iterator_tag@0@@Z 0044fb20 f i obj.obj
 0002:00027b40       ??$_Destroy_range@U?$_Wrap_alloc@V?$allocator@PAM@std@@@std@@@std@@YAXPAPAM0AAU?$_Wrap_alloc@V?$allocator@PAM@std@@@0@@Z 0044fb40 f i obj.obj
 0002:00027b90       ??$_Destroy_range@U?$_Wrap_alloc@V?$allocator@PAM@std@@@std@@@std@@YAXPAPAM0AAU?$_Wrap_alloc@V?$allocator@PAM@std@@@0@U_Scalar_ptr_iterator_tag@0@@Z 0044fb90 f i obj.obj
 0002:00027bb0       ??$_Destroy_range@U?$_Wrap_alloc@V?$allocator@U?$tvec4@M@detail@glm@@@std@@@std@@@std@@YAXPAU?$tvec4@M@detail@glm@@0AAU?$_Wrap_alloc@V?$allocator@U?$tvec4@M@detail@glm@@@std@@@0@@Z 0044fbb0 f i obj.obj
 0002:00027c00       ??$_Destroy_range@U?$_Wrap_alloc@V?$allocator@U?$tvec4@M@detail@glm@@@std@@@std@@@std@@YAXPAU?$tvec4@M@detail@glm@@0AAU?$_Wrap_alloc@V?$allocator@U?$tvec4@M@detail@glm@@@std@@@0@U_Nonscalar_ptr_iterator_tag@0@@Z 0044fc00 f i obj.obj
 0002:00027c40       ??$_Destroy_range@U?$_Wrap_alloc@V?$allocator@V?$vector@HV?$allocator@H@std@@@std@@@std@@@std@@@std@@YAXPAV?$vector@HV?$allocator@H@std@@@0@0AAU?$_Wrap_alloc@V?$allocator@V?$vector@HV?$allocator@H@std@@@std@@@std@@@0@@Z 0044fc40 f i obj.obj
 0002:00027c90       ??$_Destroy_range@U?$_Wrap_alloc@V?$allocator@V?$vector@HV?$allocator@H@std@@@std@@@std@@@std@@@std@@YAXPAV?$vector@HV?$allocator@H@std@@@0@0AAU?$_Wrap_alloc@V?$allocator@V?$vector@HV?$allocator@H@std@@@std@@@std@@@0@U_Nonscalar_ptr_iterator_tag@0@@Z 0044fc90 f i obj.obj
 0002:00027cd0       ??$_Ptr_cat@MM@std@@YA?AU_Scalar_ptr_iterator_tag@0@PAM0@Z 0044fcd0 f i obj.obj
 0002:00027cf0       ??$_Ptr_cat@PAMPAM@std@@YA?AU_Scalar_ptr_iterator_tag@0@PAPAM0@Z 0044fcf0 f i obj.obj
 0002:00027d10       ??$_Ptr_cat@U?$tvec4@M@detail@glm@@U123@@std@@YA?AU_Nonscalar_ptr_iterator_tag@0@PAU?$tvec4@M@detail@glm@@0@Z 0044fd10 f i obj.obj
 0002:00027d30       ??$_Ptr_cat@V?$vector@HV?$allocator@H@std@@@std@@V12@@std@@YA?AU_Nonscalar_ptr_iterator_tag@0@PAV?$vector@HV?$allocator@H@std@@@0@0@Z 0044fd30 f i obj.obj
 0002:00027d50       ??$_Umove@PAH@?$vector@HV?$allocator@H@std@@@std@@IAEPAHPAH00@Z 0044fd50 f i obj.obj
 0002:00027da0       ??$_Umove@PAM@?$vector@MV?$allocator@M@std@@@std@@IAEPAMPAM00@Z 0044fda0 f i obj.obj
 0002:00027df0       ??$_Umove@PAPAM@?$vector@PAMV?$allocator@PAM@std@@@std@@IAEPAPAMPAPAM00@Z 0044fdf0 f i obj.obj
 0002:00027e40       ??$_Umove@PAU?$tvec4@M@detail@glm@@@?$vector@U?$tvec4@M@detail@glm@@V?$allocator@U?$tvec4@M@detail@glm@@@std@@@std@@IAEPAU?$tvec4@M@detail@glm@@PAU234@00@Z 0044fe40 f i obj.obj
 0002:00027e90       ??$_Umove@PAV?$vector@HV?$allocator@H@std@@@std@@@?$vector@V?$vector@HV?$allocator@H@std@@@std@@V?$allocator@V?$vector@HV?$allocator@H@std@@@std@@@2@@std@@IAEPAV?$vector@HV?$allocator@H@std@@@1@PAV21@00@Z 0044fe90 f i obj.obj
 0002:00027ee0       ??$_Uninit_move@HHH@std@@YAPAHPAH00AAU?$_Wrap_alloc@V?$allocator@H@std@@@0@0U_Scalar_ptr_iterator_tag@0@@Z 0044fee0 f i obj.obj
 0002:00027f30       ??$_Uninit_move@MMM@std@@YAPAMPAM00AAU?$_Wrap_alloc@V?$allocator@M@std@@@0@0U_Scalar_ptr_iterator_tag@0@@Z 0044ff30 f i obj.obj
 0002:00027f80       ??$_Uninit_move@PAMPAMPAM@std@@YAPAPAMPAPAM00AAU?$_Wrap_alloc@V?$allocator@PAM@std@@@0@0U_Scalar_ptr_iterator_tag@0@@Z 0044ff80 f i obj.obj
 0002:00027fd0       ??$_Uninit_move@PAU?$tvec4@M@detail@glm@@PAU123@V?$allocator@U?$tvec4@M@detail@glm@@@std@@U123@@std@@YAPAU?$tvec4@M@detail@glm@@PAU123@00AAU?$_Wrap_alloc@V?$allocator@U?$tvec4@M@detail@glm@@@std@@@0@0U_Nonscalar_ptr_iterator_tag@0@@Z 0044ffd0 f i obj.obj
 0002:000280c0       ??$_Uninit_move@PAV?$vector@HV?$allocator@H@std@@@std@@PAV12@V?$allocator@V?$vector@HV?$allocator@H@std@@@std@@@2@V12@@std@@YAPAV?$vector@HV?$allocator@H@std@@@0@PAV10@00AAU?$_Wrap_alloc@V?$allocator@V?$vector@HV?$allocator@H@std@@@std@@@std@@@0@0U_Nonscalar_ptr_iterator_tag@0@@Z 004500c0 f i obj.obj
 0002:000281b0       ??$_Uninitialized_move@PAHPAHU?$_Wrap_alloc@V?$allocator@H@std@@@std@@@std@@YAPAHPAH00AAU?$_Wrap_alloc@V?$allocator@H@std@@@0@@Z 004501b0 f i obj.obj
 0002:00028210       ??$_Uninitialized_move@PAMPAMU?$_Wrap_alloc@V?$allocator@M@std@@@std@@@std@@YAPAMPAM00AAU?$_Wrap_alloc@V?$allocator@M@std@@@0@@Z 00450210 f i obj.obj
 0002:00028270       ??$_Uninitialized_move@PAPAMPAPAMU?$_Wrap_alloc@V?$allocator@PAM@std@@@std@@@std@@YAPAPAMPAPAM00AAU?$_Wrap_alloc@V?$allocator@PAM@std@@@0@@Z 00450270 f i obj.obj
 0002:000282d0       ??$_Uninitialized_move@PAU?$tvec4@M@detail@glm@@PAU123@U?$_Wrap_alloc@V?$allocator@U?$tvec4@M@detail@glm@@@std@@@std@@@std@@YAPAU?$tvec4@M@detail@glm@@PAU123@00AAU?$_Wrap_alloc@V?$allocator@U?$tvec4@M@detail@glm@@@std@@@0@@Z 004502d0 f i obj.obj
 0002:00028330       ??$_Uninitialized_move@PAV?$vector@HV?$allocator@H@std@@@std@@PAV12@U?$_Wrap_alloc@V?$allocator@V?$vector@HV?$allocator@H@std@@@std@@@std@@@2@@std@@YAPAV?$vector@HV?$allocator@H@std@@@0@PAV10@00AAU?$_Wrap_alloc@V?$allocator@V?$vector@HV?$allocator@H@std@@@std@@@std@@@0@@Z 00450330 f i obj.obj
 0002:00028390       ??$_Val_type@PAH@std@@YAPAHPAH@Z 00450390 f i obj.obj
 0002:000283b0       ??$_Val_type@PAM@std@@YAPAMPAM@Z 004503b0 f i obj.obj
 0002:000283d0       ??$_Val_type@PAPAM@std@@YAPAPAMPAPAM@Z 004503d0 f i obj.obj
 0002:000283f0       ??$_Val_type@PAU?$tvec4@M@detail@glm@@@std@@YAPAU?$tvec4@M@detail@glm@@PAU123@@Z 004503f0 f i obj.obj
 0002:00028410       ??$_Val_type@PAV?$vector@HV?$allocator@H@std@@@std@@@std@@YAPAV?$vector@HV?$allocator@H@std@@@0@PAV10@@Z 00450410 f i obj.obj
 0002:00028430       ??$addressof@$$CBM@std@@YAPBMABM@Z 00450430 f i obj.obj
 0002:00028450       ??$addressof@$$CBV?$vector@HV?$allocator@H@std@@@std@@@std@@YAPBV?$vector@HV?$allocator@H@std@@@0@ABV10@@Z 00450450 f i obj.obj
 0002:00028470       ??$addressof@H@std@@YAPAHAAH@Z 00450470 f i obj.obj
 0002:00028490       ??$addressof@QAM@std@@YAPBQAMABQAM@Z 00450490 f i obj.obj
 0002:000284b0       ??$addressof@U?$tvec4@M@detail@glm@@@std@@YAPAU?$tvec4@M@detail@glm@@AAU123@@Z 004504b0 f i obj.obj
 0002:000284d0       ??$construct@HH@?$_Wrap_alloc@V?$allocator@H@std@@@std@@QAEXPAH$$QAH@Z 004504d0 f i obj.obj
 0002:00028510       ??$construct@HH@?$allocator@H@std@@QAEXPAH$$QAH@Z 00450510 f i obj.obj
 0002:000285c0       ??$construct@HH@?$allocator_traits@V?$allocator@H@std@@@std@@SAXAAV?$allocator@H@1@PAH$$QAH@Z 004505c0 f i obj.obj
 0002:00028600       ??$construct@MAAM@?$_Wrap_alloc@V?$allocator@M@std@@@std@@QAEXPAMAAM@Z 00450600 f i obj.obj
 0002:00028640       ??$construct@MAAM@?$allocator@M@std@@QAEXPAMAAM@Z 00450640 f i obj.obj
 0002:000286f0       ??$construct@MAAM@?$allocator_traits@V?$allocator@M@std@@@std@@SAXAAV?$allocator@M@1@PAMAAM@Z 004506f0 f i obj.obj
 0002:00028730       ??$construct@MABM@?$_Wrap_alloc@V?$allocator@M@std@@@std@@QAEXPAMABM@Z 00450730 f i obj.obj
 0002:00028770       ??$construct@MABM@?$allocator_traits@V?$allocator@M@std@@@std@@SAXAAV?$allocator@M@1@PAMABM@Z 00450770 f i obj.obj
 0002:000287b0       ??$construct@PAMAAPAM@?$_Wrap_alloc@V?$allocator@PAM@std@@@std@@QAEXPAPAMAAPAM@Z 004507b0 f i obj.obj
 0002:000287f0       ??$construct@PAMAAPAM@?$allocator@PAM@std@@QAEXPAPAMAAPAM@Z 004507f0 f i obj.obj
 0002:000288a0       ??$construct@PAMAAPAM@?$allocator_traits@V?$allocator@PAM@std@@@std@@SAXAAV?$allocator@PAM@1@PAPAMAAPAM@Z 004508a0 f i obj.obj
 0002:000288e0       ??$construct@PAMABQAM@?$_Wrap_alloc@V?$allocator@PAM@std@@@std@@QAEXPAPAMABQAM@Z 004508e0 f i obj.obj
 0002:00028920       ??$construct@PAMABQAM@?$allocator_traits@V?$allocator@PAM@std@@@std@@SAXAAV?$allocator@PAM@1@PAPAMABQAM@Z 00450920 f i obj.obj
 0002:00028960       ??$construct@U?$tvec4@M@detail@glm@@U123@@?$_Wrap_alloc@V?$allocator@U?$tvec4@M@detail@glm@@@std@@@std@@QAEXPAU?$tvec4@M@detail@glm@@$$QAU234@@Z 00450960 f i obj.obj
 0002:000289a0       ??$construct@U?$tvec4@M@detail@glm@@U123@@?$allocator@U?$tvec4@M@detail@glm@@@std@@QAEXPAU?$tvec4@M@detail@glm@@$$QAU234@@Z 004509a0 f i obj.obj
 0002:00028a50       ??$construct@U?$tvec4@M@detail@glm@@U123@@?$allocator_traits@V?$allocator@U?$tvec4@M@detail@glm@@@std@@@std@@SAXAAV?$allocator@U?$tvec4@M@detail@glm@@@1@PAU?$tvec4@M@detail@glm@@$$QAU345@@Z 00450a50 f i obj.obj
 0002:00028a90       ??$construct@V?$vector@HV?$allocator@H@std@@@std@@AAV12@@?$_Wrap_alloc@V?$allocator@V?$vector@HV?$allocator@H@std@@@std@@@std@@@std@@QAEXPAV?$vector@HV?$allocator@H@std@@@1@AAV21@@Z 00450a90 f i obj.obj
 0002:00028ad0       ??$construct@V?$vector@HV?$allocator@H@std@@@std@@AAV12@@?$allocator@V?$vector@HV?$allocator@H@std@@@std@@@std@@QAEXPAV?$vector@HV?$allocator@H@std@@@1@AAV21@@Z 00450ad0 f i obj.obj
 0002:00028b80       ??$construct@V?$vector@HV?$allocator@H@std@@@std@@AAV12@@?$allocator_traits@V?$allocator@V?$vector@HV?$allocator@H@std@@@std@@@std@@@std@@SAXAAV?$allocator@V?$vector@HV?$allocator@H@std@@@std@@@1@PAV?$vector@HV?$allocator@H@std@@@1@AAV31@@Z 00450b80 f i obj.obj
 0002:00028bc0       ??$construct@V?$vector@HV?$allocator@H@std@@@std@@ABV12@@?$_Wrap_alloc@V?$allocator@V?$vector@HV?$allocator@H@std@@@std@@@std@@@std@@QAEXPAV?$vector@HV?$allocator@H@std@@@1@ABV21@@Z 00450bc0 f i obj.obj
 0002:00028c00       ??$construct@V?$vector@HV?$allocator@H@std@@@std@@ABV12@@?$allocator_traits@V?$allocator@V?$vector@HV?$allocator@H@std@@@std@@@std@@@std@@SAXAAV?$allocator@V?$vector@HV?$allocator@H@std@@@std@@@1@PAV?$vector@HV?$allocator@H@std@@@1@ABV31@@Z 00450c00 f i obj.obj
 0002:00028c40       ??$construct@V?$vector@HV?$allocator@H@std@@@std@@V12@@?$_Wrap_alloc@V?$allocator@V?$vector@HV?$allocator@H@std@@@std@@@std@@@std@@QAEXPAV?$vector@HV?$allocator@H@std@@@1@$$QAV21@@Z 00450c40 f i obj.obj
 0002:00028c80       ??$construct@V?$vector@HV?$allocator@H@std@@@std@@V12@@?$allocator@V?$vector@HV?$allocator@H@std@@@std@@@std@@QAEXPAV?$vector@HV?$allocator@H@std@@@1@$$QAV21@@Z 00450c80 f i obj.obj
 0002:00028d30       ??$construct@V?$vector@HV?$allocator@H@std@@@std@@V12@@?$allocator_traits@V?$allocator@V?$vector@HV?$allocator@H@std@@@std@@@std@@@std@@SAXAAV?$allocator@V?$vector@HV?$allocator@H@std@@@std@@@1@PAV?$vector@HV?$allocator@H@std@@@1@$$QAV31@@Z 00450d30 f i obj.obj
 0002:00028d70       ??$cross@M@glm@@YA?AU?$tvec3@M@detail@0@ABU120@0@Z 00450d70 f i obj.obj
 0002:00028e40       ??$destroy@U?$tvec4@M@detail@glm@@@?$_Wrap_alloc@V?$allocator@U?$tvec4@M@detail@glm@@@std@@@std@@QAEXPAU?$tvec4@M@detail@glm@@@Z 00450e40 f i obj.obj
 0002:00028e70       ??$destroy@U?$tvec4@M@detail@glm@@@?$allocator@U?$tvec4@M@detail@glm@@@std@@QAEXPAU?$tvec4@M@detail@glm@@@Z 00450e70 f i obj.obj
 0002:00028e90       ??$destroy@U?$tvec4@M@detail@glm@@@?$allocator_traits@V?$allocator@U?$tvec4@M@detail@glm@@@std@@@std@@SAXAAV?$allocator@U?$tvec4@M@detail@glm@@@1@PAU?$tvec4@M@detail@glm@@@Z 00450e90 f i obj.obj
 0002:00028ec0       ??$destroy@V?$vector@HV?$allocator@H@std@@@std@@@?$_Wrap_alloc@V?$allocator@V?$vector@HV?$allocator@H@std@@@std@@@std@@@std@@QAEXPAV?$vector@HV?$allocator@H@std@@@1@@Z 00450ec0 f i obj.obj
 0002:00028ef0       ??$destroy@V?$vector@HV?$allocator@H@std@@@std@@@?$allocator@V?$vector@HV?$allocator@H@std@@@std@@@std@@QAEXPAV?$vector@HV?$allocator@H@std@@@1@@Z 00450ef0 f i obj.obj
 0002:00028f20       ??$destroy@V?$vector@HV?$allocator@H@std@@@std@@@?$allocator_traits@V?$allocator@V?$vector@HV?$allocator@H@std@@@std@@@std@@@std@@SAXAAV?$allocator@V?$vector@HV?$allocator@H@std@@@std@@@1@PAV?$vector@HV?$allocator@H@std@@@1@@Z 00450f20 f i obj.obj
 0002:00028f50       ??$forward@AAM@std@@YAAAMAAM@Z 00450f50 f i obj.obj
 0002:00028f70       ??$forward@AAPAM@std@@YAAAPAMAAPAM@Z 00450f70 f i obj.obj
 0002:00028f90       ??$forward@AAV?$vector@HV?$allocator@H@std@@@std@@@std@@YAAAV?$vector@HV?$allocator@H@std@@@0@AAV10@@Z 00450f90 f i obj.obj
 0002:00028fb0       ??$forward@ABM@std@@YAABMABM@Z 00450fb0 f i obj.obj
 0002:00028fd0       ??$forward@ABQAM@std@@YAABQAMABQAM@Z 00450fd0 f i obj.obj
 0002:00028ff0       ??$forward@ABV?$vector@HV?$allocator@H@std@@@std@@@std@@YAABV?$vector@HV?$allocator@H@std@@@0@ABV10@@Z 00450ff0 f i obj.obj
 0002:00029010       ??$forward@H@std@@YA$$QAHAAH@Z 00451010 f i obj.obj
 0002:00029030       ??$forward@U?$tvec4@M@detail@glm@@@std@@YA$$QAU?$tvec4@M@detail@glm@@AAU123@@Z 00451030 f i obj.obj
 0002:00029050       ??$forward@V?$vector@HV?$allocator@H@std@@@std@@@std@@YA$$QAV?$vector@HV?$allocator@H@std@@@0@AAV10@@Z 00451050 f i obj.obj
 0002:00029070       ??$inversesqrt@M@glm@@YAMABM@Z 00451070 f i obj.obj
 0002:000290c0       ??$normalize@M@glm@@YA?AU?$tvec3@M@detail@0@ABU120@@Z 004510c0 f i obj.obj
 0002:00029150       ??0?$_Vector_alloc@$0A@U?$_Vec_base_types@MV?$allocator@M@std@@@std@@@std@@QAE@ABV?$allocator@M@1@@Z 00451150 f i obj.obj
 0002:00029180       ??0?$_Vector_alloc@$0A@U?$_Vec_base_types@PAMV?$allocator@PAM@std@@@std@@@std@@QAE@ABV?$allocator@PAM@1@@Z 00451180 f i obj.obj
 0002:000291b0       ??0?$_Vector_alloc@$0A@U?$_Vec_base_types@U?$tvec4@M@detail@glm@@V?$allocator@U?$tvec4@M@detail@glm@@@std@@@std@@@std@@QAE@ABV?$allocator@U?$tvec4@M@detail@glm@@@1@@Z 004511b0 f i obj.obj
 0002:000291e0       ??0?$_Vector_alloc@$0A@U?$_Vec_base_types@V?$vector@HV?$allocator@H@std@@@std@@V?$allocator@V?$vector@HV?$allocator@H@std@@@std@@@2@@std@@@std@@QAE@ABV?$allocator@V?$vector@HV?$allocator@H@std@@@std@@@1@@Z 004511e0 f i obj.obj
 0002:00029210       ??0?$_Vector_val@U?$_Simple_types@M@std@@@std@@QAE@XZ 00451210 f i obj.obj
 0002:00029250       ??0?$_Vector_val@U?$_Simple_types@PAM@std@@@std@@QAE@XZ 00451250 f i obj.obj
 0002:00029290       ??0?$_Vector_val@U?$_Simple_types@U?$tvec4@M@detail@glm@@@std@@@std@@QAE@XZ 00451290 f i obj.obj
 0002:000292d0       ??0?$_Vector_val@U?$_Simple_types@V?$vector@HV?$allocator@H@std@@@std@@@std@@@std@@QAE@XZ 004512d0 f i obj.obj
 0002:00029310       ??0?$_Wrap_alloc@V?$allocator@M@std@@@std@@QAE@XZ 00451310 f i obj.obj
 0002:00029340       ??0?$_Wrap_alloc@V?$allocator@PAM@std@@@std@@QAE@XZ 00451340 f i obj.obj
 0002:00029370       ??0?$_Wrap_alloc@V?$allocator@U?$tvec4@M@detail@glm@@@std@@@std@@QAE@XZ 00451370 f i obj.obj
 0002:000293a0       ??0?$_Wrap_alloc@V?$allocator@V?$vector@HV?$allocator@H@std@@@std@@@std@@@std@@QAE@XZ 004513a0 f i obj.obj
 0002:000293d0       ??0?$allocator@M@std@@QAE@XZ 004513d0 f i obj.obj
 0002:000293f0       ??0?$allocator@PAM@std@@QAE@XZ 004513f0 f i obj.obj
 0002:00029410       ??0?$allocator@U?$tvec4@M@detail@glm@@@std@@QAE@XZ 00451410 f i obj.obj
 0002:00029430       ??0?$allocator@V?$vector@HV?$allocator@H@std@@@std@@@std@@QAE@XZ 00451430 f i obj.obj
 0002:00029450       ??0?$tvec3@M@detail@glm@@QAE@ABM00@Z 00451450 f i obj.obj
 0002:000294a0       ??0?$tvec3@M@detail@glm@@QAE@ABU012@@Z 004514a0 f i obj.obj
 0002:000294f0       ??0?$tvec3@M@detail@glm@@QAE@XZ 004514f0 f i obj.obj
 0002:00029550       ??0?$tvec4@M@detail@glm@@QAE@ABU012@@Z 00451550 f i obj.obj
 0002:000295b0       ??0?$vector@HV?$allocator@H@std@@@std@@QAE@$$QAV01@@Z 004515b0 f i obj.obj
 0002:00029610       ??0?$vector@HV?$allocator@H@std@@@std@@QAE@XZ 00451610 f i obj.obj
 0002:00029640       ??0?$vector@MV?$allocator@M@std@@@std@@QAE@XZ 00451640 f i obj.obj
 0002:00029670       ??0?$vector@PAMV?$allocator@PAM@std@@@std@@QAE@XZ 00451670 f i obj.obj
 0002:000296a0       ??0?$vector@U?$tvec4@M@detail@glm@@V?$allocator@U?$tvec4@M@detail@glm@@@std@@@std@@QAE@XZ 004516a0 f i obj.obj
 0002:000296d0       ??0?$vector@V?$vector@HV?$allocator@H@std@@@std@@V?$allocator@V?$vector@HV?$allocator@H@std@@@std@@@2@@std@@QAE@XZ 004516d0 f i obj.obj
 0002:00029700       ??0obj@@QAE@XZ             00451700 f   obj.obj
 0002:00029930       ??1?$vector@MV?$allocator@M@std@@@std@@QAE@XZ 00451930 f i obj.obj
 0002:00029960       ??1?$vector@PAMV?$allocator@PAM@std@@@std@@QAE@XZ 00451960 f i obj.obj
 0002:00029990       ??1?$vector@U?$tvec4@M@detail@glm@@V?$allocator@U?$tvec4@M@detail@glm@@@std@@@std@@QAE@XZ 00451990 f i obj.obj
 0002:000299c0       ??1?$vector@V?$vector@HV?$allocator@H@std@@@std@@V?$allocator@V?$vector@HV?$allocator@H@std@@@std@@@2@@std@@QAE@XZ 004519c0 f i obj.obj
 0002:000299f0       ??1obj@@QAE@XZ             004519f0 f   obj.obj
 0002:00029b40       ??4?$tvec3@M@detail@glm@@QAEAAU012@ABU012@@Z 00451b40 f i obj.obj
 0002:00029b90       ??A?$tvec3@M@detail@glm@@QAEAAMI@Z 00451b90 f i obj.obj
 0002:00029be0       ??A?$tvec4@M@detail@glm@@QAEAAMI@Z 00451be0 f i obj.obj
 0002:00029c30       ??A?$vector@MV?$allocator@M@std@@@std@@QAEAAMI@Z 00451c30 f i obj.obj
 0002:00029c60       ??A?$vector@PAMV?$allocator@PAM@std@@@std@@QAEAAPAMI@Z 00451c60 f i obj.obj
 0002:00029c90       ??_G?$vector@HV?$allocator@H@std@@@std@@QAEPAXI@Z 00451c90 f i obj.obj
 0002:00029ce0       ?_Assign_rv@?$vector@HV?$allocator@H@std@@@std@@QAEX$$QAV12@@Z 00451ce0 f i obj.obj
 0002:00029d60       ?_Destroy@?$vector@MV?$allocator@M@std@@@std@@IAEXPAM0@Z 00451d60 f i obj.obj
 0002:00029db0       ?_Destroy@?$vector@PAMV?$allocator@PAM@std@@@std@@IAEXPAPAM0@Z 00451db0 f i obj.obj
 0002:00029e00       ?_Destroy@?$vector@U?$tvec4@M@detail@glm@@V?$allocator@U?$tvec4@M@detail@glm@@@std@@@std@@IAEXPAU?$tvec4@M@detail@glm@@0@Z 00451e00 f i obj.obj
 0002:00029e50       ?_Destroy@?$vector@V?$vector@HV?$allocator@H@std@@@std@@V?$allocator@V?$vector@HV?$allocator@H@std@@@std@@@2@@std@@IAEXPAV?$vector@HV?$allocator@H@std@@@2@0@Z 00451e50 f i obj.obj
 0002:00029ea0       ?_Getal@?$_Vector_alloc@$0A@U?$_Vec_base_types@MV?$allocator@M@std@@@std@@@std@@QBE?AU?$_Wrap_alloc@V?$allocator@M@std@@@2@XZ 00451ea0 f i obj.obj
 0002:00029ed0       ?_Getal@?$_Vector_alloc@$0A@U?$_Vec_base_types@PAMV?$allocator@PAM@std@@@std@@@std@@QBE?AU?$_Wrap_alloc@V?$allocator@PAM@std@@@2@XZ 00451ed0 f i obj.obj
 0002:00029f00       ?_Getal@?$_Vector_alloc@$0A@U?$_Vec_base_types@U?$tvec4@M@detail@glm@@V?$allocator@U?$tvec4@M@detail@glm@@@std@@@std@@@std@@QBE?AU?$_Wrap_alloc@V?$allocator@U?$tvec4@M@detail@glm@@@std@@@2@XZ 00451f00 f i obj.obj
 0002:00029f30       ?_Getal@?$_Vector_alloc@$0A@U?$_Vec_base_types@V?$vector@HV?$allocator@H@std@@@std@@V?$allocator@V?$vector@HV?$allocator@H@std@@@std@@@2@@std@@@std@@QBE?AU?$_Wrap_alloc@V?$allocator@V?$vector@HV?$allocator@H@std@@@std@@@std@@@2@XZ 00451f30 f i obj.obj
 0002:00029f60       ?_Grow_to@?$vector@HV?$allocator@H@std@@@std@@IBEII@Z 00451f60 f i obj.obj
 0002:00029fe0       ?_Grow_to@?$vector@MV?$allocator@M@std@@@std@@IBEII@Z 00451fe0 f i obj.obj
 0002:0002a060       ?_Grow_to@?$vector@PAMV?$allocator@PAM@std@@@std@@IBEII@Z 00452060 f i obj.obj
 0002:0002a0e0       ?_Grow_to@?$vector@U?$tvec4@M@detail@glm@@V?$allocator@U?$tvec4@M@detail@glm@@@std@@@std@@IBEII@Z 004520e0 f i obj.obj
 0002:0002a160       ?_Grow_to@?$vector@V?$vector@HV?$allocator@H@std@@@std@@V?$allocator@V?$vector@HV?$allocator@H@std@@@std@@@2@@std@@IBEII@Z 00452160 f i obj.obj
 0002:0002a1e0       ?_Inside@?$vector@HV?$allocator@H@std@@@std@@IBE_NPBH@Z 004521e0 f i obj.obj
 0002:0002a230       ?_Inside@?$vector@MV?$allocator@M@std@@@std@@IBE_NPBM@Z 00452230 f i obj.obj
 0002:0002a280       ?_Inside@?$vector@PAMV?$allocator@PAM@std@@@std@@IBE_NPBQAM@Z 00452280 f i obj.obj
 0002:0002a2d0       ?_Inside@?$vector@U?$tvec4@M@detail@glm@@V?$allocator@U?$tvec4@M@detail@glm@@@std@@@std@@IBE_NPBU?$tvec4@M@detail@glm@@@Z 004522d0 f i obj.obj
 0002:0002a320       ?_Inside@?$vector@V?$vector@HV?$allocator@H@std@@@std@@V?$allocator@V?$vector@HV?$allocator@H@std@@@std@@@2@@std@@IBE_NPBV?$vector@HV?$allocator@H@std@@@2@@Z 00452320 f i obj.obj
 0002:0002a370       ?_Orphan_range@?$vector@HV?$allocator@H@std@@@std@@IBEXPAH0@Z 00452370 f i obj.obj
 0002:0002a390       ?_Orphan_range@?$vector@MV?$allocator@M@std@@@std@@IBEXPAM0@Z 00452390 f i obj.obj
 0002:0002a3b0       ?_Orphan_range@?$vector@PAMV?$allocator@PAM@std@@@std@@IBEXPAPAM0@Z 004523b0 f i obj.obj
 0002:0002a3d0       ?_Orphan_range@?$vector@U?$tvec4@M@detail@glm@@V?$allocator@U?$tvec4@M@detail@glm@@@std@@@std@@IBEXPAU?$tvec4@M@detail@glm@@0@Z 004523d0 f i obj.obj
 0002:0002a3f0       ?_Orphan_range@?$vector@V?$vector@HV?$allocator@H@std@@@std@@V?$allocator@V?$vector@HV?$allocator@H@std@@@std@@@2@@std@@IBEXPAV?$vector@HV?$allocator@H@std@@@2@0@Z 004523f0 f i obj.obj
 0002:0002a410       ?_Reallocate@?$vector@HV?$allocator@H@std@@@std@@IAEXI@Z 00452410 f i obj.obj
 0002:0002a5a0       ?_Reallocate@?$vector@MV?$allocator@M@std@@@std@@IAEXI@Z 004525a0 f i obj.obj
 0002:0002a730       ?_Reallocate@?$vector@PAMV?$allocator@PAM@std@@@std@@IAEXI@Z 00452730 f i obj.obj
 0002:0002a8c0       ?_Reallocate@?$vector@U?$tvec4@M@detail@glm@@V?$allocator@U?$tvec4@M@detail@glm@@@std@@@std@@IAEXI@Z 004528c0 f i obj.obj
 0002:0002aa50       ?_Reallocate@?$vector@V?$vector@HV?$allocator@H@std@@@std@@V?$allocator@V?$vector@HV?$allocator@H@std@@@std@@@2@@std@@IAEXI@Z 00452a50 f i obj.obj
 0002:0002abe0       ?_Reserve@?$vector@HV?$allocator@H@std@@@std@@IAEXI@Z 00452be0 f i obj.obj
 0002:0002ac60       ?_Reserve@?$vector@MV?$allocator@M@std@@@std@@IAEXI@Z 00452c60 f i obj.obj
 0002:0002ace0       ?_Reserve@?$vector@PAMV?$allocator@PAM@std@@@std@@IAEXI@Z 00452ce0 f i obj.obj
 0002:0002ad60       ?_Reserve@?$vector@U?$tvec4@M@detail@glm@@V?$allocator@U?$tvec4@M@detail@glm@@@std@@@std@@IAEXI@Z 00452d60 f i obj.obj
 0002:0002ade0       ?_Reserve@?$vector@V?$vector@HV?$allocator@H@std@@@std@@V?$allocator@V?$vector@HV?$allocator@H@std@@@std@@@2@@std@@IAEXI@Z 00452de0 f i obj.obj
 0002:0002ae60       ?_Tidy@?$vector@MV?$allocator@M@std@@@std@@IAEXXZ 00452e60 f i obj.obj
 0002:0002af00       ?_Tidy@?$vector@PAMV?$allocator@PAM@std@@@std@@IAEXXZ 00452f00 f i obj.obj
 0002:0002afa0       ?_Tidy@?$vector@U?$tvec4@M@detail@glm@@V?$allocator@U?$tvec4@M@detail@glm@@@std@@@std@@IAEXXZ 00452fa0 f i obj.obj
 0002:0002b040       ?_Tidy@?$vector@V?$vector@HV?$allocator@H@std@@@std@@V?$allocator@V?$vector@HV?$allocator@H@std@@@std@@@2@@std@@IAEXXZ 00453040 f i obj.obj
 0002:0002b0f0       ?_Unused_capacity@?$vector@HV?$allocator@H@std@@@std@@QBEIXZ 004530f0 f i obj.obj
 0002:0002b120       ?_Unused_capacity@?$vector@MV?$allocator@M@std@@@std@@QBEIXZ 00453120 f i obj.obj
 0002:0002b150       ?_Unused_capacity@?$vector@PAMV?$allocator@PAM@std@@@std@@QBEIXZ 00453150 f i obj.obj
 0002:0002b180       ?_Unused_capacity@?$vector@U?$tvec4@M@detail@glm@@V?$allocator@U?$tvec4@M@detail@glm@@@std@@@std@@QBEIXZ 00453180 f i obj.obj
 0002:0002b1b0       ?_Unused_capacity@?$vector@V?$vector@HV?$allocator@H@std@@@std@@V?$allocator@V?$vector@HV?$allocator@H@std@@@std@@@2@@std@@QBEIXZ 004531b0 f i obj.obj
 0002:0002b1e0       ?_Xlen@?$vector@MV?$allocator@M@std@@@std@@IBEXXZ 004531e0 f i obj.obj
 0002:0002b210       ?_Xlen@?$vector@PAMV?$allocator@PAM@std@@@std@@IBEXXZ 00453210 f i obj.obj
 0002:0002b240       ?_Xlen@?$vector@U?$tvec4@M@detail@glm@@V?$allocator@U?$tvec4@M@detail@glm@@@std@@@std@@IBEXXZ 00453240 f i obj.obj
 0002:0002b270       ?_Xlen@?$vector@V?$vector@HV?$allocator@H@std@@@std@@V?$allocator@V?$vector@HV?$allocator@H@std@@@std@@@2@@std@@IBEXXZ 00453270 f i obj.obj
 0002:0002b2a0       ?abs@@YAMM@Z               004532a0 f i obj.obj
 0002:0002b2d0       ?addFace@obj@@QAEXV?$vector@HV?$allocator@H@std@@@std@@@Z 004532d0 f   obj.obj
 0002:0002bb30       ?addFaceNormal@obj@@QAEXV?$vector@HV?$allocator@H@std@@@std@@@Z 00453b30 f   obj.obj
 0002:0002bbb0       ?addFaceTexture@obj@@QAEXV?$vector@HV?$allocator@H@std@@@std@@@Z 00453bb0 f   obj.obj
 0002:0002bc30       ?addNormal@obj@@QAEXU?$tvec3@M@detail@glm@@@Z 00453c30 f   obj.obj
 0002:0002bca0       ?addPoint@obj@@QAEXU?$tvec3@M@detail@glm@@@Z 00453ca0 f   obj.obj
 0002:0002be10       ?addTextureCoord@obj@@QAEXU?$tvec3@M@detail@glm@@@Z 00453e10 f   obj.obj
 0002:0002be80       ?allocate@?$_Wrap_alloc@V?$allocator@M@std@@@std@@QAEPAMI@Z 00453e80 f i obj.obj
 0002:0002beb0       ?allocate@?$_Wrap_alloc@V?$allocator@PAM@std@@@std@@QAEPAPAMI@Z 00453eb0 f i obj.obj
 0002:0002bee0       ?allocate@?$_Wrap_alloc@V?$allocator@U?$tvec4@M@detail@glm@@@std@@@std@@QAEPAU?$tvec4@M@detail@glm@@I@Z 00453ee0 f i obj.obj
 0002:0002bf10       ?allocate@?$_Wrap_alloc@V?$allocator@V?$vector@HV?$allocator@H@std@@@std@@@std@@@std@@QAEPAV?$vector@HV?$allocator@H@std@@@2@I@Z 00453f10 f i obj.obj
 0002:0002bf40       ?allocate@?$allocator@M@std@@QAEPAMI@Z 00453f40 f i obj.obj
 0002:0002bf70       ?allocate@?$allocator@PAM@std@@QAEPAPAMI@Z 00453f70 f i obj.obj
 0002:0002bfa0       ?allocate@?$allocator@U?$tvec4@M@detail@glm@@@std@@QAEPAU?$tvec4@M@detail@glm@@I@Z 00453fa0 f i obj.obj
 0002:0002bfd0       ?allocate@?$allocator@V?$vector@HV?$allocator@H@std@@@std@@@std@@QAEPAV?$vector@HV?$allocator@H@std@@@2@I@Z 00453fd0 f i obj.obj
 0002:0002c000       ?buildVBOs@obj@@QAEXXZ     00454000 f   obj.obj
 0002:0002caf0       ?capacity@?$vector@HV?$allocator@H@std@@@std@@QBEIXZ 00454af0 f i obj.obj
 0002:0002cb20       ?capacity@?$vector@MV?$allocator@M@std@@@std@@QBEIXZ 00454b20 f i obj.obj
 0002:0002cb50       ?capacity@?$vector@PAMV?$allocator@PAM@std@@@std@@QBEIXZ 00454b50 f i obj.obj
 0002:0002cb80       ?capacity@?$vector@U?$tvec4@M@detail@glm@@V?$allocator@U?$tvec4@M@detail@glm@@@std@@@std@@QBEIXZ 00454b80 f i obj.obj
 0002:0002cbb0       ?capacity@?$vector@V?$vector@HV?$allocator@H@std@@@std@@V?$allocator@V?$vector@HV?$allocator@H@std@@@std@@@2@@std@@QBEIXZ 00454bb0 f i obj.obj
 0002:0002cbe0       ?compareMaxMin@obj@@QAEXMMM@Z 00454be0 f   obj.obj
 0002:0002d160       ?construct@?$allocator@M@std@@QAEXPAMABM@Z 00455160 f i obj.obj
 0002:0002d1c0       ?construct@?$allocator@PAM@std@@QAEXPAPAMABQAM@Z 004551c0 f i obj.obj
 0002:0002d220       ?construct@?$allocator@V?$vector@HV?$allocator@H@std@@@std@@@std@@QAEXPAV?$vector@HV?$allocator@H@std@@@2@ABV32@@Z 00455220 f i obj.obj
 0002:0002d2d0       ?deallocate@?$_Wrap_alloc@V?$allocator@M@std@@@std@@QAEXPAMI@Z 004552d0 f i obj.obj
 0002:0002d300       ?deallocate@?$_Wrap_alloc@V?$allocator@PAM@std@@@std@@QAEXPAPAMI@Z 00455300 f i obj.obj
 0002:0002d330       ?deallocate@?$_Wrap_alloc@V?$allocator@U?$tvec4@M@detail@glm@@@std@@@std@@QAEXPAU?$tvec4@M@detail@glm@@I@Z 00455330 f i obj.obj
 0002:0002d360       ?deallocate@?$_Wrap_alloc@V?$allocator@V?$vector@HV?$allocator@H@std@@@std@@@std@@@std@@QAEXPAV?$vector@HV?$allocator@H@std@@@2@I@Z 00455360 f i obj.obj
 0002:0002d390       ?deallocate@?$allocator@M@std@@QAEXPAMI@Z 00455390 f i obj.obj
 0002:0002d3c0       ?deallocate@?$allocator@PAM@std@@QAEXPAPAMI@Z 004553c0 f i obj.obj
 0002:0002d3f0       ?deallocate@?$allocator@U?$tvec4@M@detail@glm@@@std@@QAEXPAU?$tvec4@M@detail@glm@@I@Z 004553f0 f i obj.obj
 0002:0002d420       ?deallocate@?$allocator@V?$vector@HV?$allocator@H@std@@@std@@@std@@QAEXPAV?$vector@HV?$allocator@H@std@@@2@I@Z 00455420 f i obj.obj
 0002:0002d450       ?epsilon@?$numeric_limits@N@std@@SANXZ 00455450 f i obj.obj
 0002:0002d470       ?getBoundingBox@obj@@QAEPAMXZ 00455470 f   obj.obj
 0002:0002d490       ?getCBO@obj@@QAEPAMXZ      00455490 f   obj.obj
 0002:0002d4b0       ?getCBOsize@obj@@QAEHXZ    004554b0 f   obj.obj
 0002:0002d4d0       ?getColor@obj@@QAE?AU?$tvec3@M@detail@glm@@XZ 004554d0 f   obj.obj
 0002:0002d500       ?getFaceBoxes@obj@@QAEPAV?$vector@PAMV?$allocator@PAM@std@@@std@@XZ 00455500 f   obj.obj
 0002:0002d520       ?getFaceNormals@obj@@QAEPAV?$vector@V?$vector@HV?$allocator@H@std@@@std@@V?$allocator@V?$vector@HV?$allocator@H@std@@@std@@@2@@std@@XZ 00455520 f   obj.obj
 0002:0002d540       ?getFaceTextures@obj@@QAEPAV?$vector@V?$vector@HV?$allocator@H@std@@@std@@V?$allocator@V?$vector@HV?$allocator@H@std@@@std@@@2@@std@@XZ 00455540 f   obj.obj
 0002:0002d560       ?getFaces@obj@@QAEPAV?$vector@V?$vector@HV?$allocator@H@std@@@std@@V?$allocator@V?$vector@HV?$allocator@H@std@@@std@@@2@@std@@XZ 00455560 f   obj.obj
 0002:0002d590       ?getIBO@obj@@QAEPAHXZ      00455590 f   obj.obj
 0002:0002d5b0       ?getIBOsize@obj@@QAEHXZ    004555b0 f   obj.obj
 0002:0002d5d0       ?getNBO@obj@@QAEPAMXZ      004555d0 f   obj.obj
 0002:0002d5f0       ?getNBOsize@obj@@QAEHXZ    004555f0 f   obj.obj
 0002:0002d610       ?getNormals@obj@@QAEPAV?$vector@U?$tvec4@M@detail@glm@@V?$allocator@U?$tvec4@M@detail@glm@@@std@@@std@@XZ 00455610 f   obj.obj
 0002:0002d630       ?getPoints@obj@@QAEPAV?$vector@U?$tvec4@M@detail@glm@@V?$allocator@U?$tvec4@M@detail@glm@@@std@@@std@@XZ 00455630 f   obj.obj
 0002:0002d660       ?getTextureCoords@obj@@QAEPAV?$vector@U?$tvec4@M@detail@glm@@V?$allocator@U?$tvec4@M@detail@glm@@@std@@@std@@XZ 00455660 f   obj.obj
 0002:0002d680       ?getTop@obj@@QAEMXZ        00455680 f   obj.obj
 0002:0002d6a0       ?getVBO@obj@@QAEPAMXZ      004556a0 f   obj.obj
 0002:0002d6c0       ?getVBOsize@obj@@QAEHXZ    004556c0 f   obj.obj
 0002:0002d6e0       ?isConvex@obj@@QAE_NV?$vector@HV?$allocator@H@std@@@std@@@Z 004556e0 f   obj.obj
 0002:0002e3b0       ?length@?$tvec3@M@detail@glm@@QBEIXZ 004563b0 f i obj.obj
 0002:0002e3d0       ?length@?$tvec4@M@detail@glm@@QBEIXZ 004563d0 f i obj.obj
 0002:0002e3f0       ?max_size@?$_Wrap_alloc@V?$allocator@M@std@@@std@@QBEIXZ 004563f0 f i obj.obj
 0002:0002e420       ?max_size@?$_Wrap_alloc@V?$allocator@PAM@std@@@std@@QBEIXZ 00456420 f i obj.obj
 0002:0002e450       ?max_size@?$_Wrap_alloc@V?$allocator@U?$tvec4@M@detail@glm@@@std@@@std@@QBEIXZ 00456450 f i obj.obj
 0002:0002e480       ?max_size@?$_Wrap_alloc@V?$allocator@V?$vector@HV?$allocator@H@std@@@std@@@std@@@std@@QBEIXZ 00456480 f i obj.obj
 0002:0002e4b0       ?max_size@?$allocator@M@std@@QBEIXZ 004564b0 f i obj.obj
 0002:0002e4d0       ?max_size@?$allocator@PAM@std@@QBEIXZ 004564d0 f i obj.obj
 0002:0002e4f0       ?max_size@?$allocator@U?$tvec4@M@detail@glm@@@std@@QBEIXZ 004564f0 f i obj.obj
 0002:0002e510       ?max_size@?$allocator@V?$vector@HV?$allocator@H@std@@@std@@@std@@QBEIXZ 00456510 f i obj.obj
 0002:0002e530       ?max_size@?$allocator_traits@V?$allocator@M@std@@@std@@SAIABV?$allocator@M@2@@Z 00456530 f i obj.obj
 0002:0002e550       ?max_size@?$allocator_traits@V?$allocator@PAM@std@@@std@@SAIABV?$allocator@PAM@2@@Z 00456550 f i obj.obj
 0002:0002e570       ?max_size@?$allocator_traits@V?$allocator@U?$tvec4@M@detail@glm@@@std@@@std@@SAIABV?$allocator@U?$tvec4@M@detail@glm@@@2@@Z 00456570 f i obj.obj
 0002:0002e590       ?max_size@?$allocator_traits@V?$allocator@V?$vector@HV?$allocator@H@std@@@std@@@std@@@std@@SAIABV?$allocator@V?$vector@HV?$allocator@H@std@@@std@@@2@@Z 00456590 f i obj.obj
 0002:0002e5b0       ?max_size@?$vector@MV?$allocator@M@std@@@std@@QBEIXZ 004565b0 f i obj.obj
 0002:0002e5e0       ?max_size@?$vector@PAMV?$allocator@PAM@std@@@std@@QBEIXZ 004565e0 f i obj.obj
 0002:0002e610       ?max_size@?$vector@U?$tvec4@M@detail@glm@@V?$allocator@U?$tvec4@M@detail@glm@@@std@@@std@@QBEIXZ 00456610 f i obj.obj
 0002:0002e640       ?max_size@?$vector@V?$vector@HV?$allocator@H@std@@@std@@V?$allocator@V?$vector@HV?$allocator@H@std@@@std@@@2@@std@@QBEIXZ 00456640 f i obj.obj
 0002:0002e670       ?push_back@?$vector@HV?$allocator@H@std@@@std@@QAEX$$QAH@Z 00456670 f i obj.obj
 0002:0002e7e0       ?push_back@?$vector@MV?$allocator@M@std@@@std@@QAEXABM@Z 004567e0 f i obj.obj
 0002:0002e930       ?push_back@?$vector@PAMV?$allocator@PAM@std@@@std@@QAEXABQAM@Z 00456930 f i obj.obj
 0002:0002ea80       ?push_back@?$vector@U?$tvec4@M@detail@glm@@V?$allocator@U?$tvec4@M@detail@glm@@@std@@@std@@QAEX$$QAU?$tvec4@M@detail@glm@@@Z 00456a80 f i obj.obj
 0002:0002ebf0       ?push_back@?$vector@V?$vector@HV?$allocator@H@std@@@std@@V?$allocator@V?$vector@HV?$allocator@H@std@@@std@@@2@@std@@QAEXABV?$vector@HV?$allocator@H@std@@@2@@Z 00456bf0 f i obj.obj
 0002:0002ed50       ?recenter@obj@@QAEXXZ      00456d50 f   obj.obj
 0002:0002fc50       ?setColor@obj@@QAEXU?$tvec3@M@detail@glm@@@Z 00457c50 f   obj.obj
 0002:0002fd60       ?size@?$vector@MV?$allocator@M@std@@@std@@QBEIXZ 00457d60 f i obj.obj
 0002:0002fd90       ?size@?$vector@PAMV?$allocator@PAM@std@@@std@@QBEIXZ 00457d90 f i obj.obj
 0002:0002fdc0       ?size@?$vector@U?$tvec4@M@detail@glm@@V?$allocator@U?$tvec4@M@detail@glm@@@std@@@std@@QBEIXZ 00457dc0 f i obj.obj
 0002:0002fdf0       ??$getline@DU?$char_traits@D@std@@V?$allocator@D@2@@std@@YAAAV?$basic_istream@DU?$char_traits@D@std@@@0@AAV10@AAV?$basic_string@DU?$char_traits@D@std@@V?$allocator@D@2@@0@D@Z 00457df0 f i objloader.obj
 0002:0002fe30       ??0?$basic_ifstream@DU?$char_traits@D@std@@@std@@QAE@XZ 00457e30 f i objloader.obj
 0002:0002ff40       ??0?$basic_istringstream@DU?$char_traits@D@std@@V?$allocator@D@2@@std@@QAE@ABV?$basic_string@DU?$char_traits@D@std@@V?$allocator@D@2@@1@H@Z 00457f40 f i objloader.obj
 0002:00030050       ??0objLoader@@QAE@V?$basic_string@DU?$char_traits@D@std@@V?$allocator@D@2@@std@@PAVobj@@@Z 00458050 f   objloader.obj
 0002:000310f0       ??1?$basic_istringstream@DU?$char_traits@D@std@@V?$allocator@D@2@@std@@UAE@XZ 004590f0 f i objloader.obj
 0002:00031160       ??1objLoader@@QAE@XZ       00459160 f   objloader.obj
 0002:00031180       ??A?$basic_string@DU?$char_traits@D@std@@V?$allocator@D@2@@std@@QAEAADI@Z 00459180 f i objloader.obj
 0002:000311b0       ??_D?$basic_istringstream@DU?$char_traits@D@std@@V?$allocator@D@2@@std@@QAEXXZ 004591b0 f i objloader.obj
 0002:000311e4       ??_E?$basic_istringstream@DU?$char_traits@D@std@@V?$allocator@D@2@@std@@$4PPPPPPPM@A@AEPAXI@Z 004591e4 f i objloader.obj
 0002:000311f0       ??_E?$basic_istringstream@DU?$char_traits@D@std@@V?$allocator@D@2@@std@@UAEPAXI@Z 004591f0 f i objloader.obj
 0002:000311f0       ??_G?$basic_istringstream@DU?$char_traits@D@std@@V?$allocator@D@2@@std@@UAEPAXI@Z 004591f0 f i objloader.obj
 0002:0003123c       ?_Add_vtordisp1@?$basic_istream@DU?$char_traits@D@std@@@std@@$4PPPPPPPM@EI@AEXXZ 0045923c f i objloader.obj
 0002:00031250       ?empty@?$basic_string@DU?$char_traits@D@std@@V?$allocator@D@2@@std@@QBE_NXZ 00459250 f i objloader.obj
 0002:00031290       ?find@?$basic_string@DU?$char_traits@D@std@@V?$allocator@D@2@@std@@QBEIPBDI@Z 00459290 f i objloader.obj
 0002:000312d0       ?find@?$basic_string@DU?$char_traits@D@std@@V?$allocator@D@2@@std@@QBEIPBDII@Z 004592d0 f i objloader.obj
 0002:000313e0       ?find@?$char_traits@D@std@@SAPBDPBDIABD@Z 004593e0 f i objloader.obj
 0002:00031430       ?getMesh@objLoader@@QAEPAVobj@@XZ 00459430 f   objloader.obj
 0002:00031450       ?is_open@?$basic_filebuf@DU?$char_traits@D@std@@@std@@QBE_NXZ 00459450 f i objloader.obj
 0002:00031490       ?is_open@?$basic_ifstream@DU?$char_traits@D@std@@@std@@QBE_NXZ 00459490 f i objloader.obj
 0002:000314c0       ?open@?$basic_ifstream@DU?$char_traits@D@std@@@std@@QAEXPBDHH@Z 004594c0 f i objloader.obj
 0002:0003d840       _stbi_convert_iphone_png_to_rgb 00465840 f   stb_image.obj
 0002:0003db20       _stbi_failure_reason       00465b20 f   stb_image.obj
 0002:0003ea30       _stbi_hdr_to_ldr_gamma     00466a30 f   stb_image.obj
 0002:0003ea60       _stbi_hdr_to_ldr_scale     00466a60 f   stb_image.obj
 0002:0003ea90       _stbi_image_free           00466a90 f   stb_image.obj
 0002:0003eac0       _stbi_info                 00466ac0 f   stb_image.obj
 0002:0003eb40       _stbi_info_from_callbacks  00466b40 f   stb_image.obj
 0002:0003ebb0       _stbi_info_from_file       00466bb0 f   stb_image.obj
 0002:0003ec60       _stbi_info_from_memory     00466c60 f   stb_image.obj
 0002:0003ee70       _stbi_is_hdr               00466e70 f   stb_image.obj
 0002:0003eee0       _stbi_is_hdr_from_callbacks 00466ee0 f   stb_image.obj
 0002:0003ef40       _stbi_is_hdr_from_file     00466f40 f   stb_image.obj
 0002:0003efa0       _stbi_is_hdr_from_memory   00466fa0 f   stb_image.obj
 0002:0003f1e0       _stbi_ldr_to_hdr_gamma     004671e0 f   stb_image.obj
 0002:0003f210       _stbi_ldr_to_hdr_scale     00467210 f   stb_image.obj
 0002:0003f240       _stbi_load                 00467240 f   stb_image.obj
 0002:0003f2e0       _stbi_load_from_callbacks  004672e0 f   stb_image.obj
 0002:0003f360       _stbi_load_from_file       00467360 f   stb_image.obj
 0002:0003f3d0       _stbi_load_from_memory     004673d0 f   stb_image.obj
 0002:0003f6c0       _stbi_loadf                004676c0 f   stb_image.obj
 0002:0003f760       _stbi_loadf_from_callbacks 00467760 f   stb_image.obj
 0002:0003f7e0       _stbi_loadf_from_file      004677e0 f   stb_image.obj
 0002:0003f850       _stbi_loadf_from_memory    00467850 f   stb_image.obj
 0002:0003f8d0       _stbi_loadf_main           004678d0 f   stb_image.obj
 0002:00040620       _stbi_set_unpremultiply_on_load 00468620 f   stb_image.obj
 0002:00040700       _stbi_zlib_decode_buffer   00468700 f   stb_image.obj
 0002:00040790       _stbi_zlib_decode_malloc   00468790 f   stb_image.obj
 0002:000407d0       _stbi_zlib_decode_malloc_guesssize 004687d0 f   stb_image.obj
 0002:000408c0       _stbi_zlib_decode_malloc_guesssize_headerflag 004688c0 f   stb_image.obj
 0002:000409b0       _stbi_zlib_decode_noheader_buffer 004689b0 f   stb_image.obj
 0002:00040a40       _stbi_zlib_decode_noheader_malloc 00468a40 f   stb_image.obj
 0002:00042060       _stbi__crc32               0046a060 f   stb_image_write.obj
 0002:00042690       _stbi_write_bmp            0046a690 f   stb_image_write.obj
 0002:00042730       _stbi_write_png            0046a730 f   stb_image_write.obj
 0002:00042800       _stbi_write_png_to_mem     0046a800 f   stb_image_write.obj
 0002:000433b0       _stbi_write_tga            0046b3b0 f   stb_image_write.obj
 0002:00043460       _stbi_zlib_compress        0046b460 f   stb_image_write.obj
 0002:00044af0       ??$?D$01M@@YA?AU?$Vec@$01M@@MABU0@@Z 0046caf0 f i gluvi.obj
 0002:00044b60       ??$_Pow_int@N@@YANNH@Z     0046cb60 f i gluvi.obj
 0002:00044c20       ??$cross@M@@YA?AU?$Vec@$02M@@ABU0@0@Z 0046cc20 f i gluvi.obj
 0002:00044d60       ??$mag2@$01M@@YAMABU?$Vec@$01M@@@Z 0046cd60 f i gluvi.obj
 0002:00044df0       ??$mag@$01M@@YAMABU?$Vec@$01M@@@Z 0046cdf0 f i gluvi.obj
 0002:00044e20       ??0?$Vec@$01M@@QAE@MM@Z    0046ce20 f i gluvi.obj
 0002:00044e80       ??0?$Vec@$01M@@QAE@XZ      0046ce80 f i gluvi.obj
 0002:00044ea0       ??0?$_Vector_alloc@$0A@U?$_Vec_base_types@PAUWidget@Gluvi@@V?$allocator@PAUWidget@Gluvi@@@std@@@std@@@std@@QAE@ABV?$allocator@PAUWidget@Gluvi@@@1@@Z 0046cea0 f i gluvi.obj
 0002:00044ed0       ??0?$_Vector_val@U?$_Simple_types@PAUWidget@Gluvi@@@std@@@std@@QAE@XZ 0046ced0 f i gluvi.obj
 0002:00044f10       ??0?$vector@PAUWidget@Gluvi@@V?$allocator@PAUWidget@Gluvi@@@std@@@std@@QAE@XZ 0046cf10 f i gluvi.obj
 0002:00044f40       ??0Button@Gluvi@@QAE@PBDH@Z 0046cf40 f   gluvi.obj
 0002:00044fa0       ??0Camera@Gluvi@@QAE@XZ    0046cfa0 f i gluvi.obj
 0002:00044fd0       ??0PanZoom2D@Gluvi@@QAE@MMM@Z 0046cfd0 f   gluvi.obj
 0002:00045070       ??0Slider@Gluvi@@QAE@PBDHHH@Z 0046d070 f   gluvi.obj
 0002:000450e0       ??0StaticText@Gluvi@@QAE@PBD@Z 0046d0e0 f   gluvi.obj
 0002:00045120       ??0Target3D@Gluvi@@QAE@QAMMMMMMM@Z 0046d120 f   gluvi.obj
 0002:00045330       ??0TargetOrtho3D@Gluvi@@QAE@QAMMMMMMM@Z 0046d330 f   gluvi.obj
 0002:00045540       ??0Widget@Gluvi@@QAE@XZ    0046d540 f i gluvi.obj
 0002:00045570       ??0WidgetList@Gluvi@@QAE@H_N@Z 0046d570 f   gluvi.obj
 0002:00045620       ??1?$vector@PAUWidget@Gluvi@@V?$allocator@PAUWidget@Gluvi@@@std@@@std@@QAE@XZ 0046d620 f i gluvi.obj
 0002:00045650       ??1Button@Gluvi@@UAE@XZ    0046d650 f i gluvi.obj
 0002:00045680       ??1PanZoom2D@Gluvi@@UAE@XZ 0046d680 f i gluvi.obj
 0002:000456b0       ??1Slider@Gluvi@@UAE@XZ    0046d6b0 f i gluvi.obj
 0002:000456e0       ??1TargetOrtho3D@Gluvi@@UAE@XZ 0046d6e0 f i gluvi.obj
 0002:00045710       ??1WidgetList@Gluvi@@UAE@XZ 0046d710 f i gluvi.obj
 0002:00045740       ??A?$Vec@$01M@@QAEAAMH@Z   0046d740 f i gluvi.obj
 0002:00045790       ??A?$Vec@$01M@@QBEABMH@Z   0046d790 f i gluvi.obj
 0002:000457e0       ??A?$vector@PAUWidget@Gluvi@@V?$allocator@PAUWidget@Gluvi@@@std@@@std@@QAEAAPAUWidget@Gluvi@@I@Z 0046d7e0 f i gluvi.obj
 0002:00045810       ??G?$Vec@$01M@@QBE?AU0@ABU0@@Z 0046d810 f i gluvi.obj
 0002:00045880       ??H?$Vec@$01M@@QBE?AU0@ABU0@@Z 0046d880 f i gluvi.obj
 0002:000458f0       ??K?$Vec@$01M@@QBE?AU0@M@Z 0046d8f0 f i gluvi.obj
 0002:00045970       ??X?$Vec@$01M@@QAE?AU0@M@Z 0046d970 f i gluvi.obj
 0002:000459f0       ??Y?$Vec@$01M@@QAE?AU0@ABU0@@Z 0046d9f0 f i gluvi.obj
 0002:00045a80       ??Z?$Vec@$01M@@QAE?AU0@ABU0@@Z 0046da80 f i gluvi.obj
 0002:00045b10       ??_0?$Vec@$01M@@QAE?AU0@M@Z 0046db10 f i gluvi.obj
 0002:00045b90       ??_GButton@Gluvi@@UAEPAXI@Z 0046db90 f i gluvi.obj
 0002:00045b90       ??_EButton@Gluvi@@UAEPAXI@Z 0046db90 f i gluvi.obj
 0002:00045be0       ??_GPanZoom2D@Gluvi@@UAEPAXI@Z 0046dbe0 f i gluvi.obj
 0002:00045be0       ??_EPanZoom2D@Gluvi@@UAEPAXI@Z 0046dbe0 f i gluvi.obj
 0002:00045c30       ??_ESlider@Gluvi@@UAEPAXI@Z 0046dc30 f i gluvi.obj
 0002:00045c30       ??_GSlider@Gluvi@@UAEPAXI@Z 0046dc30 f i gluvi.obj
 0002:00045c80       ??_GStaticText@Gluvi@@UAEPAXI@Z 0046dc80 f i gluvi.obj
 0002:00045c80       ??_EStaticText@Gluvi@@UAEPAXI@Z 0046dc80 f i gluvi.obj
 0002:00045cd0       ??_ETarget3D@Gluvi@@UAEPAXI@Z 0046dcd0 f i gluvi.obj
 0002:00045cd0       ??_GTarget3D@Gluvi@@UAEPAXI@Z 0046dcd0 f i gluvi.obj
 0002:00045d20       ??_GTargetOrtho3D@Gluvi@@UAEPAXI@Z 0046dd20 f i gluvi.obj
 0002:00045d20       ??_ETargetOrtho3D@Gluvi@@UAEPAXI@Z 0046dd20 f i gluvi.obj
 0002:00045d70       ??_GWidgetList@Gluvi@@UAEPAXI@Z 0046dd70 f i gluvi.obj
 0002:00045d70       ??_EWidgetList@Gluvi@@UAEPAXI@Z 0046dd70 f i gluvi.obj
 0002:00045dc0       ?_Tidy@?$vector@PAUWidget@Gluvi@@V?$allocator@PAUWidget@Gluvi@@@std@@@std@@IAEXXZ 0046ddc0 f i gluvi.obj
 0002:00045e60       ?action@Button@Gluvi@@UAEXXZ 0046de60 f i gluvi.obj
 0002:00045e80       ?action@Slider@Gluvi@@UAEXXZ 0046de80 f i gluvi.obj
 0002:00045ea0       ?click@Button@Gluvi@@UAE_NHHH@Z 0046dea0 f   gluvi.obj
 0002:00045fb0       ?click@PanZoom2D@Gluvi@@UAEXHHHH@Z 0046dfb0 f   gluvi.obj
 0002:00046550       ?click@Slider@Gluvi@@UAE_NHHH@Z 0046e550 f   gluvi.obj
 0002:00046620       ?click@Target3D@Gluvi@@UAEXHHHH@Z 0046e620 f   gluvi.obj
 0002:000466b0       ?click@TargetOrtho3D@Gluvi@@UAEXHHHH@Z 0046e6b0 f   gluvi.obj
 0002:00046740       ?click@WidgetList@Gluvi@@UAE_NHHH@Z 0046e740 f   gluvi.obj
 0002:00046840       ?cos@@YAMM@Z               0046e840 f i gluvi.obj
 0002:00046870       ?display@Button@Gluvi@@UAEXHH@Z 0046e870 f   gluvi.obj
 0002:00046c80       ?display@Slider@Gluvi@@UAEXHH@Z 0046ec80 f   gluvi.obj
 0002:00047300       ?display@StaticText@Gluvi@@UAEXHH@Z 0046f300 f   gluvi.obj
 0002:000474a0       ?display@WidgetList@Gluvi@@UAEXHH@Z 0046f4a0 f   gluvi.obj
 0002:00047620       ?display_screen@PanZoom2D@Gluvi@@UAEXXZ 0046f620 f   gluvi.obj
 0002:00047750       ?drag@Button@Gluvi@@UAEXHH@Z 0046f750 f   gluvi.obj
 0002:00047840       ?drag@PanZoom2D@Gluvi@@UAEXHH@Z 0046f840 f   gluvi.obj
 0002:00047940       ?drag@Slider@Gluvi@@UAEXHH@Z 0046f940 f   gluvi.obj
 0002:00047a20       ?drag@Target3D@Gluvi@@UAEXHH@Z 0046fa20 f   gluvi.obj
 0002:00047dc0       ?drag@TargetOrtho3D@Gluvi@@UAEXHH@Z 0046fdc0 f   gluvi.obj
 0002:00048160       ?drag@WidgetList@Gluvi@@UAEXHH@Z 00470160 f   gluvi.obj
 0002:000481c0       ?draw_2d_arrow@Gluvi@@YAXU?$Vec@$01M@@0M@Z 004701c0 f   gluvi.obj
 0002:00048620       ?draw_3d_arrow@Gluvi@@YAXQBM0M@Z 00470620 f   gluvi.obj
 0002:00048e00       ?draw_coordinate_grid@Gluvi@@YAXMH@Z 00470e00 f   gluvi.obj
 0002:00049250       ?draw_text@Gluvi@@YAXQBMPBDH@Z 00471250 f   gluvi.obj
 0002:00049270       ?export_rib@PanZoom2D@Gluvi@@UAEXAAV?$basic_ostream@DU?$char_traits@D@std@@@std@@@Z 00471270 f   gluvi.obj
 0002:000494e0       ?export_rib@Target3D@Gluvi@@UAEXAAV?$basic_ostream@DU?$char_traits@D@std@@@std@@@Z 004714e0 f   gluvi.obj
 0002:000497f0       ?export_rib@TargetOrtho3D@Gluvi@@UAEXAAV?$basic_ostream@DU?$char_traits@D@std@@@std@@@Z 004717f0 f   gluvi.obj
 0002:00049ae0       ?get_viewing_direction@Target3D@Gluvi@@QAEXQAM@Z 00471ae0 f   gluvi.obj
 0002:00049bf0       ?get_viewing_direction@TargetOrtho3D@Gluvi@@QAEXQAM@Z 00471bf0 f   gluvi.obj
 0002:00049d00       ?gl_transform@PanZoom2D@Gluvi@@UAEXXZ 00471d00 f   gluvi.obj
 0002:00049e20       ?gl_transform@Target3D@Gluvi@@UAEXXZ 00471e20 f   gluvi.obj
 0002:0004a200       ?gl_transform@TargetOrtho3D@Gluvi@@UAEXXZ 00472200 f   gluvi.obj
 0002:0004aa40       ?init@Gluvi@@YAXPBDPAHPAPAD@Z 00472a40 f   gluvi.obj
 0002:0004ab60       ?pow@@YANNH@Z              00472b60 f i gluvi.obj
 0002:0004aba0       ?ppm_screenshot@Gluvi@@YAXPBDZZ 00472ba0 f   gluvi.obj
 0002:0004ae20       ?return_to_default@PanZoom2D@Gluvi@@UAEXXZ 00472e20 f   gluvi.obj
 0002:0004ae70       ?return_to_default@Target3D@Gluvi@@UAEXXZ 00472e70 f   gluvi.obj
 0002:0004af30       ?return_to_default@TargetOrtho3D@Gluvi@@UAEXXZ 00472f30 f   gluvi.obj
 0002:0004aff0       ?run@Gluvi@@YAXXZ          00472ff0 f   gluvi.obj
 0002:0004b010       ?set_generic_lights@Gluvi@@YAXXZ 00473010 f   gluvi.obj
 0002:0004b230       ?set_generic_material@Gluvi@@YAXMMMI@Z 00473230 f   gluvi.obj
 0002:0004b4b0       ?set_matte_material@Gluvi@@YAXMMMI@Z 004734b0 f   gluvi.obj
 0002:0004b6d0       ?sgi_screenshot@Gluvi@@YAXPBDZZ 004736d0 f   gluvi.obj
 0002:0004bb30       ?sin@@YAMM@Z               00473b30 f i gluvi.obj
 0002:0004bb60       ?tan@@YAMM@Z               00473b60 f i gluvi.obj
 0002:0004bb90       ?transform_mouse@PanZoom2D@Gluvi@@QAEXHHQAM@Z 00473b90 f   gluvi.obj
 0002:0004bc30       ?transform_mouse@Target3D@Gluvi@@QAEXHHQAM0@Z 00473c30 f   gluvi.obj
 0002:0004c140       ?transform_mouse@TargetOrtho3D@Gluvi@@QAEXHHQAM0@Z 00474140 f   gluvi.obj
 0002:0004c250       _cosf                      00474250 f i gluvi.obj
 0002:0004c2a0       _sinf                      004742a0 f i gluvi.obj
 0002:0004c2f0       _tanf                      004742f0 f i gluvi.obj
 0002:0004c338       _glBegin@4                 00474338 f   opengl32:OPENGL32.dll
 0002:0004c33e       _glBlendFunc@8             0047433e f   opengl32:OPENGL32.dll
 0002:0004c344       _glClearColor@16           00474344 f   opengl32:OPENGL32.dll
 0002:0004c34a       _glColor3f@12              0047434a f   opengl32:OPENGL32.dll
 0002:0004c350       _glColor4f@16              00474350 f   opengl32:OPENGL32.dll
 0002:0004c356       _glDepthFunc@4             00474356 f   opengl32:OPENGL32.dll
 0002:0004c35c       _glDisable@4               0047435c f   opengl32:OPENGL32.dll
 0002:0004c362       _glEnable@4                00474362 f   opengl32:OPENGL32.dll
 0002:0004c368       _glEnd@0                   00474368 f   opengl32:OPENGL32.dll
 0002:0004c36e       _glPolygonMode@8           0047436e f   opengl32:OPENGL32.dll
 0002:0004c374       _glPopMatrix@0             00474374 f   opengl32:OPENGL32.dll
 0002:0004c37a       _glPushMatrix@0            0047437a f   opengl32:OPENGL32.dll
 0002:0004c380       _glReadPixels@28           00474380 f   opengl32:OPENGL32.dll
 0002:0004c386       _glShadeModel@4            00474386 f   opengl32:OPENGL32.dll
 0002:0004c38c       _glTranslatef@12           0047438c f   opengl32:OPENGL32.dll
 0002:0004c392       _glVertex3f@12             00474392 f   opengl32:OPENGL32.dll
 0002:0004c398       _glClear@4                 00474398 f   opengl32:OPENGL32.dll
 0002:0004c39e       _glClearDepth@8            0047439e f   opengl32:OPENGL32.dll
 0002:0004c3a4       _glLightModelfv@8          004743a4 f   opengl32:OPENGL32.dll
 0002:0004c3aa       _glLightfv@12              004743aa f   opengl32:OPENGL32.dll
 0002:0004c3b0       _glLineWidth@4             004743b0 f   opengl32:OPENGL32.dll
 0002:0004c3b6       _glLoadIdentity@0          004743b6 f   opengl32:OPENGL32.dll
 0002:0004c3bc       _glMaterialf@12            004743bc f   opengl32:OPENGL32.dll
 0002:0004c3c2       _glMaterialfv@12           004743c2 f   opengl32:OPENGL32.dll
 0002:0004c3c8       _glMatrixMode@4            004743c8 f   opengl32:OPENGL32.dll
 0002:0004c3ce       _glOrtho@48                004743ce f   opengl32:OPENGL32.dll
 0002:0004c3d4       _glPixelStorei@8           004743d4 f   opengl32:OPENGL32.dll
 0002:0004c3da       _glPopAttrib@0             004743da f   opengl32:OPENGL32.dll
 0002:0004c3e0       _glPushAttrib@4            004743e0 f   opengl32:OPENGL32.dll
 0002:0004c3e6       _glRasterPos2i@8           004743e6 f   opengl32:OPENGL32.dll
 0002:0004c3ec       _glReadBuffer@4            004743ec f   opengl32:OPENGL32.dll
 0002:0004c3f2       _glRotatef@16              004743f2 f   opengl32:OPENGL32.dll
 0002:0004c3f8       _glVertex2f@8              004743f8 f   opengl32:OPENGL32.dll
 0002:0004c3fe       _glVertex2i@8              004743fe f   opengl32:OPENGL32.dll
 0002:0004c404       _glViewport@16             00474404 f   opengl32:OPENGL32.dll
 0002:0004c40a       _gluNewQuadric@0           0047440a f   glu32:GLU32.dll
 0002:0004c410       _gluQuadricDrawStyle@8     00474410 f   glu32:GLU32.dll
 0002:0004c416       _gluSphere@20              00474416 f   glu32:GLU32.dll
 0002:0004c41c       _gluOrtho2D@32             0047441c f   glu32:GLU32.dll
 0002:0004c422       _gluPerspective@32         00474422 f   glu32:GLU32.dll
 0002:0004c428       _glutPostRedisplay@0       00474428 f   glut32:glut32.dll
 0002:0004c42e       _glutKeyboardFunc@4        0047442e f   glut32:glut32.dll
 0002:0004c434       _glutTimerFunc@12          00474434 f   glut32:glut32.dll
 0002:0004c43a       _glutInit@8                0047443a f   glut32:glut32.dll
 0002:0004c440       _glutInitDisplayMode@4     00474440 f   glut32:glut32.dll
 0002:0004c446       _glutInitWindowSize@8      00474446 f   glut32:glut32.dll
 0002:0004c44c       _glutMainLoop@0            0047444c f   glut32:glut32.dll
 0002:0004c452       _glutCreateWindow@4        00474452 f   glut32:glut32.dll
 0002:0004c458       _glutSwapBuffers@0         00474458 f   glut32:glut32.dll
 0002:0004c45e       _glutDisplayFunc@4         0047445e f   glut32:glut32.dll
 0002:0004c464       _glutReshapeFunc@4         00474464 f   glut32:glut32.dll
 0002:0004c46a       _glutMouseFunc@4           0047446a f   glut32:glut32.dll
 0002:0004c470       _glutMotionFunc@4          00474470 f   glut32:glut32.dll
 0002:0004c476       _glutGetModifiers@0        00474476 f   glut32:glut32.dll
 0002:0004c47c       _glutBitmapCharacter@8     0047447c f   glut32:glut32.dll
 0002:0004c482       _glutBitmapLength@8        00474482 f   glut32:glut32.dll
 0002:0004c488       ??0_Lockit@std@@QAE@H@Z    00474488 f   msvcprt:MSVCP110.dll
 0002:0004c48e       ??1_Lockit@std@@QAE@XZ     0047448e f   msvcprt:MSVCP110.dll
 0002:0004c494       ?uncaught_exception@std@@YA_NXZ 00474494 f   msvcprt:MSVCP110.dll
 0002:0004c49a       ?_Orphan_all@_Container_base0@std@@QAEXXZ 0047449a f   msvcprt:MSVCP110.dll
 0002:0004c4a0       ?_Swap_all@_Container_base0@std@@QAEXAAU12@@Z 004744a0 f   msvcprt:MSVCP110.dll
 0002:0004c4a6       ?_Xbad_alloc@std@@YAXXZ    004744a6 f   msvcprt:MSVCP110.dll
 0002:0004c4ac       ?_Xlength_error@std@@YAXPBD@Z 004744ac f   msvcprt:MSVCP110.dll
 0002:0004c4b2       ?_Xout_of_range@std@@YAXPBD@Z 004744b2 f   msvcprt:MSVCP110.dll
 0002:0004c4b8       ??0_Fac_node@std@@QAE@PAU01@PAV_Facet_base@1@@Z 004744b8 f i msvcprt:locale0_implib.obj
 0002:0004c4d1       ??1_Fac_node@std@@QAE@XZ   004744d1 f i msvcprt:locale0_implib.obj
 0002:0004c4eb       ??1_Fac_tidy_reg_t@std@@QAE@XZ 004744eb f i msvcprt:locale0_implib.obj
 0002:0004c518       ??_G_Fac_node@std@@QAEPAXI@Z 00474518 f i msvcprt:locale0_implib.obj
 0002:0004c53e       ?_Facet_Register@std@@YAXPAV_Facet_base@1@@Z 0047453e f   msvcprt:locale0_implib.obj
 0002:0004c570       ??0id@locale@std@@QAE@I@Z  00474570 f   msvcprt:MSVCP110.dll
 0002:0004c576       ??Bid@locale@std@@QAEIXZ   00474576 f   msvcprt:MSVCP110.dll
 0002:0004c57c       ?_Getgloballocale@locale@std@@CAPAV_Locimp@12@XZ 0047457c f   msvcprt:MSVCP110.dll
 0002:0004c582       ?always_noconv@codecvt_base@std@@QBE_NXZ 00474582 f   msvcprt:MSVCP110.dll
 0002:0004c588       ?in@?$codecvt@DDH@std@@QBEHAAHPBD1AAPBDPAD3AAPAD@Z 00474588 f   msvcprt:MSVCP110.dll
 0002:0004c58e       ?out@?$codecvt@DDH@std@@QBEHAAHPBD1AAPBDPAD3AAPAD@Z 0047458e f   msvcprt:MSVCP110.dll
 0002:0004c594       ?unshift@?$codecvt@DDH@std@@QBEHAAHPAD1AAPAD@Z 00474594 f   msvcprt:MSVCP110.dll
 0002:0004c59a       ?_Getcat@?$codecvt@DDH@std@@SAIPAPBVfacet@locale@2@PBV42@@Z 0047459a f   msvcprt:MSVCP110.dll
 0002:0004c5a0       ?_Syserror_map@std@@YAPBDH@Z 004745a0 f   msvcprt:MSVCP110.dll
 0002:0004c5a6       ?_Winerror_map@std@@YAPBDH@Z 004745a6 f   msvcprt:MSVCP110.dll
 0002:0004c5ac       ??7ios_base@std@@QBE_NXZ   004745ac f   msvcprt:MSVCP110.dll
 0002:0004c5b2       ?good@ios_base@std@@QBE_NXZ 004745b2 f   msvcprt:MSVCP110.dll
 0002:0004c5b8       ?eof@ios_base@std@@QBE_NXZ 004745b8 f   msvcprt:MSVCP110.dll
 0002:0004c5be       ?flags@ios_base@std@@QBEHXZ 004745be f   msvcprt:MSVCP110.dll
 0002:0004c5c4       ?width@ios_base@std@@QBE_JXZ 004745c4 f   msvcprt:MSVCP110.dll
 0002:0004c5ca       ?width@ios_base@std@@QAE_J_J@Z 004745ca f   msvcprt:MSVCP110.dll
 0002:0004c5d0       ??0?$basic_streambuf@DU?$char_traits@D@std@@@std@@IAE@XZ 004745d0 f   msvcprt:MSVCP110.dll
 0002:0004c5d6       ??1?$basic_streambuf@DU?$char_traits@D@std@@@std@@UAE@XZ 004745d6 f   msvcprt:MSVCP110.dll
 0002:0004c5dc       ?getloc@?$basic_streambuf@DU?$char_traits@D@std@@@std@@QBE?AVlocale@2@XZ 004745dc f   msvcprt:MSVCP110.dll
 0002:0004c5e2       ?sbumpc@?$basic_streambuf@DU?$char_traits@D@std@@@std@@QAEHXZ 004745e2 f   msvcprt:MSVCP110.dll
 0002:0004c5e8       ?sgetc@?$basic_streambuf@DU?$char_traits@D@std@@@std@@QAEHXZ 004745e8 f   msvcprt:MSVCP110.dll
 0002:0004c5ee       ?snextc@?$basic_streambuf@DU?$char_traits@D@std@@@std@@QAEHXZ 004745ee f   msvcprt:MSVCP110.dll
 0002:0004c5f4       ?sputc@?$basic_streambuf@DU?$char_traits@D@std@@@std@@QAEHD@Z 004745f4 f   msvcprt:MSVCP110.dll
 0002:0004c5fa       ?sputn@?$basic_streambuf@DU?$char_traits@D@std@@@std@@QAE_JPBD_J@Z 004745fa f   msvcprt:MSVCP110.dll
 0002:0004c600       ?eback@?$basic_streambuf@DU?$char_traits@D@std@@@std@@IBEPADXZ 00474600 f   msvcprt:MSVCP110.dll
 0002:0004c606       ?gptr@?$basic_streambuf@DU?$char_traits@D@std@@@std@@IBEPADXZ 00474606 f   msvcprt:MSVCP110.dll
 0002:0004c60c       ?pbase@?$basic_streambuf@DU?$char_traits@D@std@@@std@@IBEPADXZ 0047460c f   msvcprt:MSVCP110.dll
 0002:0004c612       ?pptr@?$basic_streambuf@DU?$char_traits@D@std@@@std@@IBEPADXZ 00474612 f   msvcprt:MSVCP110.dll
 0002:0004c618       ?egptr@?$basic_streambuf@DU?$char_traits@D@std@@@std@@IBEPADXZ 00474618 f   msvcprt:MSVCP110.dll
 0002:0004c61e       ?gbump@?$basic_streambuf@DU?$char_traits@D@std@@@std@@IAEXH@Z 0047461e f   msvcprt:MSVCP110.dll
 0002:0004c624       ?setg@?$basic_streambuf@DU?$char_traits@D@std@@@std@@IAEXPAD00@Z 00474624 f   msvcprt:MSVCP110.dll
 0002:0004c62a       ?epptr@?$basic_streambuf@DU?$char_traits@D@std@@@std@@IBEPADXZ 0047462a f   msvcprt:MSVCP110.dll
 0002:0004c630       ?_Gndec@?$basic_streambuf@DU?$char_traits@D@std@@@std@@IAEPADXZ 00474630 f   msvcprt:MSVCP110.dll
 0002:0004c636       ?_Gninc@?$basic_streambuf@DU?$char_traits@D@std@@@std@@IAEPADXZ 00474636 f   msvcprt:MSVCP110.dll
 0002:0004c63c       ?pbump@?$basic_streambuf@DU?$char_traits@D@std@@@std@@IAEXH@Z 0047463c f   msvcprt:MSVCP110.dll
 0002:0004c642       ?setp@?$basic_streambuf@DU?$char_traits@D@std@@@std@@IAEXPAD0@Z 00474642 f   msvcprt:MSVCP110.dll
 0002:0004c648       ?setp@?$basic_streambuf@DU?$char_traits@D@std@@@std@@IAEXPAD00@Z 00474648 f   msvcprt:MSVCP110.dll
 0002:0004c64e       ?_Pninc@?$basic_streambuf@DU?$char_traits@D@std@@@std@@IAEPADXZ 0047464e f   msvcprt:MSVCP110.dll
 0002:0004c654       ?_Init@?$basic_streambuf@DU?$char_traits@D@std@@@std@@IAEXXZ 00474654 f   msvcprt:MSVCP110.dll
 0002:0004c65a       ?_Init@?$basic_streambuf@DU?$char_traits@D@std@@@std@@IAEXPAPAD0PAH001@Z 0047465a f   msvcprt:MSVCP110.dll
 0002:0004c660       ??1?$basic_ios@DU?$char_traits@D@std@@@std@@UAE@XZ 00474660 f   msvcprt:MSVCP110.dll
 0002:0004c666       ?setstate@?$basic_ios@DU?$char_traits@D@std@@@std@@QAEXH_N@Z 00474666 f   msvcprt:MSVCP110.dll
 0002:0004c66c       ?tie@?$basic_ios@DU?$char_traits@D@std@@@std@@QBEPAV?$basic_ostream@DU?$char_traits@D@std@@@2@XZ 0047466c f   msvcprt:MSVCP110.dll
 0002:0004c672       ?rdbuf@?$basic_ios@DU?$char_traits@D@std@@@std@@QBEPAV?$basic_streambuf@DU?$char_traits@D@std@@@2@XZ 00474672 f   msvcprt:MSVCP110.dll
 0002:0004c678       ?fill@?$basic_ios@DU?$char_traits@D@std@@@std@@QBEDXZ 00474678 f   msvcprt:MSVCP110.dll
 0002:0004c67e       ?widen@?$basic_ios@DU?$char_traits@D@std@@@std@@QBEDD@Z 0047467e f   msvcprt:MSVCP110.dll
 0002:0004c684       ??0?$basic_ios@DU?$char_traits@D@std@@@std@@IAE@XZ 00474684 f   msvcprt:MSVCP110.dll
 0002:0004c68a       ??0?$basic_ostream@DU?$char_traits@D@std@@@std@@QAE@PAV?$basic_streambuf@DU?$char_traits@D@std@@@1@_N@Z 0047468a f   msvcprt:MSVCP110.dll
 0002:0004c690       ??1?$basic_ostream@DU?$char_traits@D@std@@@std@@UAE@XZ 00474690 f   msvcprt:MSVCP110.dll
 0002:0004c696       ?_Add_vtordisp2@?$basic_ostream@DU?$char_traits@D@std@@@std@@UAEXXZ 00474696 f   msvcprt:MSVCP110.dll
 0002:0004c69c       ?_Osfx@?$basic_ostream@DU?$char_traits@D@std@@@std@@QAEXXZ 0047469c f   msvcprt:MSVCP110.dll
 0002:0004c6a2       ??6?$basic_ostream@DU?$char_traits@D@std@@@std@@QAEAAV01@P6AAAV01@AAV01@@Z@Z 004746a2 f   msvcprt:MSVCP110.dll
 0002:0004c6a8       ??6?$basic_ostream@DU?$char_traits@D@std@@@std@@QAEAAV01@H@Z 004746a8 f   msvcprt:MSVCP110.dll
 0002:0004c6ae       ??6?$basic_ostream@DU?$char_traits@D@std@@@std@@QAEAAV01@M@Z 004746ae f   msvcprt:MSVCP110.dll
 0002:0004c6b4       ?flush@?$basic_ostream@DU?$char_traits@D@std@@@std@@QAEAAV12@XZ 004746b4 f   msvcprt:MSVCP110.dll
 0002:0004c6ba       ?endl@std@@YAAAV?$basic_ostream@DU?$char_traits@D@std@@@1@AAV21@@Z 004746ba f   msvcprt:MSVCP110.dll
 0002:0004c6c0       ??0?$basic_istream@DU?$char_traits@D@std@@@std@@QAE@PAV?$basic_streambuf@DU?$char_traits@D@std@@@1@_N@Z 004746c0 f   msvcprt:MSVCP110.dll
 0002:0004c6c6       ??1?$basic_istream@DU?$char_traits@D@std@@@std@@UAE@XZ 004746c6 f   msvcprt:MSVCP110.dll
 0002:0004c6cc       ?_Add_vtordisp1@?$basic_istream@DU?$char_traits@D@std@@@std@@UAEXXZ 004746cc f   msvcprt:MSVCP110.dll
 0002:0004c6d2       ?_Ipfx@?$basic_istream@DU?$char_traits@D@std@@@std@@QAE_N_N@Z 004746d2 f   msvcprt:MSVCP110.dll
 0002:0004c6d8       ??5?$basic_istream@DU?$char_traits@D@std@@@std@@QAEAAV01@AAM@Z 004746d8 f   msvcprt:MSVCP110.dll
 0002:0004c6de       ??0?$basic_iostream@DU?$char_traits@D@std@@@std@@QAE@PAV?$basic_streambuf@DU?$char_traits@D@std@@@1@@Z 004746de f   msvcprt:MSVCP110.dll
 0002:0004c6e4       ??1?$basic_iostream@DU?$char_traits@D@std@@@std@@UAE@XZ 004746e4 f   msvcprt:MSVCP110.dll
 0002:0004c6ea       ?_Fiopen@std@@YAPAU_iobuf@@PBDHH@Z 004746ea f   msvcprt:MSVCP110.dll
 0002:0004c6f0       ?_Add_vtordisp1@?$basic_ios@DU?$char_traits@D@std@@@std@@UAEXXZ 004746f0 f   msvcprt:MSVCP110.dll
 0002:0004c6f6       ?_Add_vtordisp2@?$basic_ios@DU?$char_traits@D@std@@@std@@UAEXXZ 004746f6 f   msvcprt:MSVCP110.dll
 0002:0004c6fc       ?_Lock@?$basic_streambuf@DU?$char_traits@D@std@@@std@@UAEXXZ 004746fc f   msvcprt:MSVCP110.dll
 0002:0004c702       ?_Unlock@?$basic_streambuf@DU?$char_traits@D@std@@@std@@UAEXXZ 00474702 f   msvcprt:MSVCP110.dll
 0002:0004c708       ?imbue@?$basic_streambuf@DU?$char_traits@D@std@@@std@@MAEXABVlocale@2@@Z 00474708 f   msvcprt:MSVCP110.dll
 0002:0004c70e       ?setbuf@?$basic_streambuf@DU?$char_traits@D@std@@@std@@MAEPAV12@PAD_J@Z 0047470e f   msvcprt:MSVCP110.dll
 0002:0004c714       ?showmanyc@?$basic_streambuf@DU?$char_traits@D@std@@@std@@MAE_JXZ 00474714 f   msvcprt:MSVCP110.dll
 0002:0004c71a       ?sync@?$basic_streambuf@DU?$char_traits@D@std@@@std@@MAEHXZ 0047471a f   msvcprt:MSVCP110.dll
 0002:0004c720       ?uflow@?$basic_streambuf@DU?$char_traits@D@std@@@std@@MAEHXZ 00474720 f   msvcprt:MSVCP110.dll
 0002:0004c726       ?xsgetn@?$basic_streambuf@DU?$char_traits@D@std@@@std@@MAE_JPAD_J@Z 00474726 f   msvcprt:MSVCP110.dll
 0002:0004c72c       ?xsputn@?$basic_streambuf@DU?$char_traits@D@std@@@std@@MAE_JPBD_J@Z 0047472c f   msvcprt:MSVCP110.dll
 0002:0004c732       ??_U@YAPAXI@Z              00474732 f   msvcprt:newaop_s.obj
 0002:0004c73e       ??6?$basic_ostream@DU?$char_traits@D@std@@@std@@QAEAAV01@I@Z 0047473e f   msvcprt:MSVCP110.dll
 0002:0004c744       ??Bios_base@std@@QBEPAXXZ  00474744 f   msvcprt:MSVCP110.dll
 0002:0004c74a       ?clear@?$basic_ios@DU?$char_traits@D@std@@@std@@QAEXH_N@Z 0047474a f   msvcprt:MSVCP110.dll
 0002:0004c750       ??6?$basic_ostream@DU?$char_traits@D@std@@@std@@QAEAAV01@N@Z 00474750 f   msvcprt:MSVCP110.dll
 0002:0004c756       ?put@?$basic_ostream@DU?$char_traits@D@std@@@std@@QAEAAV12@D@Z 00474756 f   msvcprt:MSVCP110.dll
 0002:0004c75c       ?write@?$basic_ostream@DU?$char_traits@D@std@@@std@@QAEAAV12@PBD_J@Z 0047475c f   msvcprt:MSVCP110.dll
 0002:0004c762       __purecall                 00474762 f   MSVCRT:MSVCR110.dll
 0002:0004c768       ??2@YAPAXI@Z               00474768 f   MSVCRT:MSVCR110.dll
 0002:0004c76e       ??3@YAXPAX@Z               0047476e f   MSVCRT:MSVCR110.dll
 0002:0004c774       ___atonexitinit            00474774 f   MSVCRT:atonexit.obj
 0002:0004c7bf       __onexit                   004747bf f   MSVCRT:atonexit.obj
 0002:0004c88d       _atexit                    0047488d f   MSVCRT:atonexit.obj
 0002:0004c8a8       _atof                      004748a8 f   MSVCRT:MSVCR110.dll
 0002:0004c8ae       _atoi                      004748ae f   MSVCRT:MSVCR110.dll
 0002:0004c8b4       _calloc                    004748b4 f   MSVCRT:MSVCR110.dll
 0002:0004c8ba       _free                      004748ba f   MSVCRT:MSVCR110.dll
 0002:0004c8c0       _malloc                    004748c0 f   MSVCRT:MSVCR110.dll
 0002:0004c8c6       _realloc                   004748c6 f   MSVCRT:MSVCR110.dll
 0002:0004c8cc       _fabs                      004748cc f   MSVCRT:MSVCR110.dll
 0002:0004c8d2       _sqrt                      004748d2 f   MSVCRT:MSVCR110.dll
 0002:0004c8d8       _floor                     004748d8 f   MSVCRT:MSVCR110.dll
 0002:0004c8de       _memmove                   004748de f   MSVCRT:MSVCR110.dll
 0002:0004c8e4       _memcpy                    004748e4 f   MSVCRT:MSVCR110.dll
 0002:0004c8ea       _memcpy_s                  004748ea f   MSVCRT:MSVCR110.dll
 0002:0004c8f0       _memcmp                    004748f0 f   MSVCRT:MSVCR110.dll
 0002:0004c8f6       _memset                    004748f6 f   MSVCRT:MSVCR110.dll
 0002:0004c8fc       _strlen                    004748fc f   MSVCRT:MSVCR110.dll
 0002:0004c902       _strtok                    00474902 f   MSVCRT:MSVCR110.dll
 0002:0004c908       ??0exception@std@@QAE@ABQBDH@Z 00474908 f   MSVCRT:MSVCR110.dll
 0002:0004c90e       ??0exception@std@@QAE@ABV01@@Z 0047490e f   MSVCRT:MSVCR110.dll
 0002:0004c914       ??1exception@std@@UAE@XZ   00474914 f   MSVCRT:MSVCR110.dll
 0002:0004c91a       _fclose                    0047491a f   MSVCRT:MSVCR110.dll
 0002:0004c920       _fflush                    00474920 f   MSVCRT:MSVCR110.dll
 0002:0004c926       _fgetc                     00474926 f   MSVCRT:MSVCR110.dll
 0002:0004c92c       _fgetpos                   0047492c f   MSVCRT:MSVCR110.dll
 0002:0004c932       _fputc                     00474932 f   MSVCRT:MSVCR110.dll
 0002:0004c938       _fsetpos                   00474938 f   MSVCRT:MSVCR110.dll
 0002:0004c93e       __fseeki64                 0047493e f   MSVCRT:MSVCR110.dll
 0002:0004c944       _fwrite                    00474944 f   MSVCRT:MSVCR110.dll
 0002:0004c94a       _printf                    0047494a f   MSVCRT:MSVCR110.dll
 0002:0004c950       _setvbuf                   00474950 f   MSVCRT:MSVCR110.dll
 0002:0004c956       _ungetc                    00474956 f   MSVCRT:MSVCR110.dll
 0002:0004c95c       __lock_file                0047495c f   MSVCRT:MSVCR110.dll
 0002:0004c962       __unlock_file              00474962 f   MSVCRT:MSVCR110.dll
 0002:0004c968       __wassert                  00474968 f   MSVCRT:MSVCR110.dll
 0002:0004c96e       ??0bad_cast@std@@QAE@PBD@Z 0047496e f   MSVCRT:MSVCR110.dll
 0002:0004c974       ??0bad_cast@std@@QAE@ABV01@@Z 00474974 f   MSVCRT:MSVCR110.dll
 0002:0004c97a       ??1bad_cast@std@@UAE@XZ    0047497a f   MSVCRT:MSVCR110.dll
 0002:0004c980       ?what@exception@std@@UBEPBDXZ 00474980 f   MSVCRT:MSVCR110.dll
 0002:0004c986       @__security_check_cookie@4 00474986 f   MSVCRT:secchk.obj
 0002:0004c998       __CxxThrowException@8      00474998 f   MSVCRT:MSVCR110.dll
 0002:0004c99e       ___CxxFrameHandler3        0047499e f   MSVCRT:MSVCR110.dll
 0002:0004c9a4       ??0type_info@@AAE@ABV0@@Z  004749a4 f   MSVCRT:ti_inst.obj
 0002:0004c9b1       ??4type_info@@AAEAAV0@ABV0@@Z 004749b1 f   MSVCRT:ti_inst.obj
 0002:0004c9b6       ??_Etype_info@@UAEPAXI@Z   004749b6 f i MSVCRT:ti_inst.obj
 0002:0004ca20       _sprintf_s                 00474a20 f   MSVCRT:MSVCR110.dll
 0002:0004ca26       ??_V@YAXPAX@Z              00474a26 f   MSVCRT:MSVCR110.dll
 0002:0004ca2c       _ceil                      00474a2c f   MSVCRT:MSVCR110.dll
 0002:0004ca40       __ftol2_sse                00474a40 f   MSVCRT:ftol2.obj
 0002:0004ca49       __ftol2_pentium4           00474a49 f   MSVCRT:ftol2.obj
 0002:0004ca5c       __ftol2_sse_excpt          00474a5c f   MSVCRT:ftol2.obj
 0002:0004ca76       __ftol2                    00474a76 f   MSVCRT:ftol2.obj
 0002:0004cb16       _memchr                    00474b16 f   MSVCRT:MSVCR110.dll
 0002:0004cb1c       ___raise_securityfailure   00474b1c f   MSVCRT:gs_report.obj
 0002:0004cb68       ___report_gsfailure        00474b68 f   MSVCRT:gs_report.obj
 0002:0004cc9f       ___report_rangecheckfailure 00474c9f f   MSVCRT:gs_report.obj
 0002:0004ccae       ___report_securityfailure  00474cae f   MSVCRT:gs_report.obj
 0002:0004cdaf       ___report_securityfailureEx 00474daf f   MSVCRT:gs_report.obj
 0002:0004cf08       _feof                      00474f08 f   MSVCRT:MSVCR110.dll
 0002:0004cf0e       _fopen                     00474f0e f   MSVCRT:MSVCR110.dll
 0002:0004cf14       _fread                     00474f14 f   MSVCRT:MSVCR110.dll
 0002:0004cf1a       _fseek                     00474f1a f   MSVCRT:MSVCR110.dll
 0002:0004cf20       _ftell                     00474f20 f   MSVCRT:MSVCR110.dll
 0002:0004cf26       _abs                       00474f26 f   MSVCRT:MSVCR110.dll
 0002:0004cf2c       _pow                       00474f2c f   MSVCRT:MSVCR110.dll
 0002:0004cf32       _ldexp                     00474f32 f   MSVCRT:MSVCR110.dll
 0002:0004cf38       _strcmp                    00474f38 f   MSVCRT:MSVCR110.dll
 0002:0004cf3e       _strncmp                   00474f3e f   MSVCRT:MSVCR110.dll
 0002:0004cf44       _strtol                    00474f44 f   MSVCRT:MSVCR110.dll
 0002:0004cf4a       __lrotl                    00474f4a f   MSVCRT:MSVCR110.dll
 0002:0004cf50       __chkstk                   00474f50 f   MSVCRT:chkstk.obj
 0002:0004cf50       __alloca_probe             00474f50     MSVCRT:chkstk.obj
 0002:0004cf86       _cos                       00474f86 f   MSVCRT:MSVCR110.dll
 0002:0004cf8c       _sin                       00474f8c f   MSVCRT:MSVCR110.dll
 0002:0004cf92       _tan                       00474f92 f   MSVCRT:MSVCR110.dll
 0002:0004cf98       __vsnprintf                00474f98 f   MSVCRT:MSVCR110.dll
 0002:0004d0e2       _NtCurrentTeb              004750e2 f i MSVCRT:crtexe.obj
 0002:0004d2fe       _mainCRTStartup            004752fe f   MSVCRT:crtexe.obj
 0002:0004d30a       __lock                     0047530a f   MSVCRT:MSVCR110.dll
 0002:0004d310       __unlock                   00475310 f   MSVCRT:MSVCR110.dll
 0002:0004d316       __calloc_crt               00475316 f   MSVCRT:MSVCR110.dll
 0002:0004d31c       ___dllonexit               0047531c f   MSVCRT:MSVCR110.dll
 0002:0004d330       __SEH_prolog4              00475330 f   MSVCRT:sehprolg4.obj
 0002:0004d375       __SEH_epilog4              00475375 f   MSVCRT:sehprolg4.obj
 0002:0004d39f       __except_handler4          0047539f f   MSVCRT:chandler4gs.obj
 0002:0004d3ca       ??_M@YGXPAXIHP6EX0@Z@Z     004753ca f   MSVCRT:ehvecdtr.obj
 0002:0004d473       ?__ArrayUnwind@@YGXPAXIHP6EX0@Z@Z 00475473 f   MSVCRT:ehvecdtr.obj
 0002:0004d4e8       ??1type_info@@UAE@XZ       004754e8 f   MSVCRT:MSVCR110.dll
 0002:0004d4ee       ___isa_available_init      004754ee f   MSVCRT:cpu_disp.obj
 0002:0004d676       __crt_debugger_hook        00475676 f   MSVCRT:MSVCR110.dll
 0002:0004d67c       ___crtUnhandledException   0047567c f   MSVCRT:MSVCR110.dll
 0002:0004d682       ___crtTerminateProcess     00475682 f   MSVCRT:MSVCR110.dll
 0002:0004d688       ?__CxxUnhandledExceptionFilter@@YGJPAU_EXCEPTION_POINTERS@@@Z 00475688 f   MSVCRT:unhandld.obj
 0002:0004d6d9       ___CxxSetUnhandledExceptionFilter 004756d9 f   MSVCRT:unhandld.obj
 0002:0004d6ea       __XcptFilter               004756ea f   MSVCRT:MSVCR110.dll
 0002:0004d6f0       __amsg_exit                004756f0 f   MSVCRT:MSVCR110.dll
 0002:0004d6f6       __setargv                  004756f6 f   MSVCRT:dllargv.obj
 0002:0004d6fa       ___getmainargs             004756fa f   MSVCRT:MSVCR110.dll
 0002:0004d700       ___set_app_type            00475700 f   MSVCRT:MSVCR110.dll
 0002:0004d710       __FindPESection            00475710 f   MSVCRT:pesect.obj
 0002:0004d770       __IsNonwritableInCurrentImage 00475770 f   MSVCRT:pesect.obj
 0002:0004d860       __ValidateImageBase        00475860 f   MSVCRT:pesect.obj
 0002:0004d89e       _exit                      0047589e f   MSVCRT:MSVCR110.dll
 0002:0004d8a4       __exit                     004758a4 f   MSVCRT:MSVCR110.dll
 0002:0004d8aa       __cexit                    004758aa f   MSVCRT:MSVCR110.dll
 0002:0004d8b0       ___security_init_cookie    004758b0 f   MSVCRT:gs_support.obj
 0002:0004d970       __matherr                  00475970 f   MSVCRT:merr.obj
 0002:0004d973       __RTC_Initialize           00475973 f   MSVCRT:initsect.obj
 0002:0004d99b       __RTC_Terminate            0047599b f   MSVCRT:initsect.obj
 0002:0004d9c4       __configthreadlocale       004759c4 f   MSVCRT:MSVCR110.dll
 0002:0004d9ca       __invoke_watson_if_error   004759ca f i MSVCRT:fp8.obj
 0002:0004d9f2       __setdefaultprecision      004759f2 f   MSVCRT:fp8.obj
 0002:0004da22       ___setusermatherr          00475a22 f   MSVCRT:MSVCR110.dll
 0002:0004da28       __initterm_e               00475a28 f   MSVCRT:MSVCR110.dll
 0002:0004da2e       __initterm                 00475a2e f   MSVCRT:MSVCR110.dll
 0002:0004da34       __except_handler4_common   00475a34 f   MSVCRT:MSVCR110.dll
 0002:0004da3a       ?terminate@@YAXXZ          00475a3a f   MSVCRT:MSVCR110.dll
 0002:0004da40       ___crtSetUnhandledExceptionFilter 00475a40 f   MSVCRT:MSVCR110.dll
 0002:0004da46       __invoke_watson            00475a46 f   MSVCRT:MSVCR110.dll
 0002:0004da4c       __controlfp_s              00475a4c f   MSVCRT:MSVCR110.dll
 0002:0004da52       _EncodePointer@4           00475a52 f   kernel32:KERNEL32.dll
 0002:0004da58       _DecodePointer@4           00475a58 f   kernel32:KERNEL32.dll
 0002:0004da5e       _IsDebuggerPresent@0       00475a5e f   kernel32:KERNEL32.dll
 0002:0004da64       _IsProcessorFeaturePresent@4 00475a64 f   kernel32:KERNEL32.dll
 0002:0004da6a       _QueryPerformanceCounter@4 00475a6a f   kernel32:KERNEL32.dll
 0002:0004da70       _GetCurrentProcessId@0     00475a70 f   kernel32:KERNEL32.dll
 0002:0004da76       _GetCurrentThreadId@0      00475a76 f   kernel32:KERNEL32.dll
 0002:0004da7c       _GetSystemTimeAsFileTime@4 00475a7c f   kernel32:KERNEL32.dll
 0003:00000000       ___xc_a                    0047c000     MSVCRT:cinitexe.obj
 0003:00000490       ___xc_z                    0047c490     MSVCRT:cinitexe.obj
 0003:00000594       ___xi_a                    0047c594     MSVCRT:cinitexe.obj
 0003:000009ac       ___xi_z                    0047c9ac     MSVCRT:cinitexe.obj
 0003:00000ae8       ?is_modulo@_Num_base@std@@2_NB 0047cae8     fluidsim.obj
 0003:00000ae9       ?is_signed@_Num_base@std@@2_NB 0047cae9     fluidsim.obj
 0003:00000aea       ?is_specialized@_Num_base@std@@2_NB 0047caea     fluidsim.obj
 0003:00000aeb       ?tinyness_before@_Num_base@std@@2_NB 0047caeb     fluidsim.obj
 0003:00000aec       ?traps@_Num_base@std@@2_NB 0047caec     fluidsim.obj
 0003:00000af0       ?round_style@_Num_base@std@@2W4float_round_style@2@B 0047caf0     fluidsim.obj
 0003:00000af4       ?digits@_Num_base@std@@2HB 0047caf4     fluidsim.obj
 0003:00000af8       ?digits10@_Num_base@std@@2HB 0047caf8     fluidsim.obj
 0003:00000afc       ?max_digits10@_Num_base@std@@2HB 0047cafc     fluidsim.obj
 0003:00000b00       ?max_exponent@_Num_base@std@@2HB 0047cb00     fluidsim.obj
 0003:00000b04       ?max_exponent10@_Num_base@std@@2HB 0047cb04     fluidsim.obj
 0003:00000b08       ?min_exponent@_Num_base@std@@2HB 0047cb08     fluidsim.obj
 0003:00000b0c       ?min_exponent10@_Num_base@std@@2HB 0047cb0c     fluidsim.obj
 0003:00000b10       ?radix@_Num_base@std@@2HB  0047cb10     fluidsim.obj
 0003:00000b14       ?is_bounded@_Num_int_base@std@@2_NB 0047cb14     fluidsim.obj
 0003:00000b15       ?is_exact@_Num_int_base@std@@2_NB 0047cb15     fluidsim.obj
 0003:00000b16       ?is_integer@_Num_int_base@std@@2_NB 0047cb16     fluidsim.obj
 0003:00000b17       ?is_modulo@_Num_int_base@std@@2_NB 0047cb17     fluidsim.obj
 0003:00000b18       ?is_specialized@_Num_int_base@std@@2_NB 0047cb18     fluidsim.obj
 0003:00000b1c       ?radix@_Num_int_base@std@@2HB 0047cb1c     fluidsim.obj
 0003:00000b20       ?has_denorm@_Num_float_base@std@@2W4float_denorm_style@2@B 0047cb20     fluidsim.obj
 0003:00000b24       ?has_denorm_loss@_Num_float_base@std@@2_NB 0047cb24     fluidsim.obj
 0003:00000b25       ?has_infinity@_Num_float_base@std@@2_NB 0047cb25     fluidsim.obj
 0003:00000b26       ?has_quiet_NaN@_Num_float_base@std@@2_NB 0047cb26     fluidsim.obj
 0003:00000b27       ?has_signaling_NaN@_Num_float_base@std@@2_NB 0047cb27     fluidsim.obj
 0003:00000b28       ?is_bounded@_Num_float_base@std@@2_NB 0047cb28     fluidsim.obj
 0003:00000b29       ?is_exact@_Num_float_base@std@@2_NB 0047cb29     fluidsim.obj
 0003:00000b2a       ?is_iec559@_Num_float_base@std@@2_NB 0047cb2a     fluidsim.obj
 0003:00000b2b       ?is_integer@_Num_float_base@std@@2_NB 0047cb2b     fluidsim.obj
 0003:00000b2c       ?is_modulo@_Num_float_base@std@@2_NB 0047cb2c     fluidsim.obj
 0003:00000b2d       ?is_signed@_Num_float_base@std@@2_NB 0047cb2d     fluidsim.obj
 0003:00000b2e       ?is_specialized@_Num_float_base@std@@2_NB 0047cb2e     fluidsim.obj
 0003:00000b2f       ?tinyness_before@_Num_float_base@std@@2_NB 0047cb2f     fluidsim.obj
 0003:00000b30       ?traps@_Num_float_base@std@@2_NB 0047cb30     fluidsim.obj
 0003:00000b34       ?round_style@_Num_float_base@std@@2W4float_round_style@2@B 0047cb34     fluidsim.obj
 0003:00000b38       ?radix@_Num_float_base@std@@2HB 0047cb38     fluidsim.obj
 0003:00000b3c       ?is_signed@?$numeric_limits@D@std@@2_NB 0047cb3c     fluidsim.obj
 0003:00000b40       ?digits@?$numeric_limits@D@std@@2HB 0047cb40     fluidsim.obj
 0003:00000b44       ?digits10@?$numeric_limits@D@std@@2HB 0047cb44     fluidsim.obj
 0003:00000b48       ?is_signed@?$numeric_limits@_W@std@@2_NB 0047cb48     fluidsim.obj
 0003:00000b4c       ?digits@?$numeric_limits@_W@std@@2HB 0047cb4c     fluidsim.obj
 0003:00000b50       ?digits10@?$numeric_limits@_W@std@@2HB 0047cb50     fluidsim.obj
 0003:00000b54       ?is_modulo@?$numeric_limits@_N@std@@2_NB 0047cb54     fluidsim.obj
 0003:00000b55       ?is_signed@?$numeric_limits@_N@std@@2_NB 0047cb55     fluidsim.obj
 0003:00000b58       ?digits@?$numeric_limits@_N@std@@2HB 0047cb58     fluidsim.obj
 0003:00000b5c       ?digits10@?$numeric_limits@_N@std@@2HB 0047cb5c     fluidsim.obj
 0003:00000b60       ?is_signed@?$numeric_limits@C@std@@2_NB 0047cb60     fluidsim.obj
 0003:00000b64       ?digits@?$numeric_limits@C@std@@2HB 0047cb64     fluidsim.obj
 0003:00000b68       ?digits10@?$numeric_limits@C@std@@2HB 0047cb68     fluidsim.obj
 0003:00000b6c       ?is_signed@?$numeric_limits@E@std@@2_NB 0047cb6c     fluidsim.obj
 0003:00000b70       ?digits@?$numeric_limits@E@std@@2HB 0047cb70     fluidsim.obj
 0003:00000b74       ?digits10@?$numeric_limits@E@std@@2HB 0047cb74     fluidsim.obj
 0003:00000b78       ?value@?$integral_constant@_N$0A@@std@@2_NB 0047cb78     fluidsim.obj
 0003:00000b79       ?value@?$integral_constant@_N$00@std@@2_NB 0047cb79     fluidsim.obj
 0003:00000b7a       ?is_signed@?$numeric_limits@F@std@@2_NB 0047cb7a     fluidsim.obj
 0003:00000b7c       ?digits@?$numeric_limits@F@std@@2HB 0047cb7c     fluidsim.obj
 0003:00000b80       ?digits10@?$numeric_limits@F@std@@2HB 0047cb80     fluidsim.obj
 0003:00000b84       ?value@?$_Sizeof@HU_Nil@std@@U12@U12@U12@U12@U12@U12@@std@@2IB 0047cb84     fluidsim.obj
 0003:00000b88       ?is_signed@?$numeric_limits@G@std@@2_NB 0047cb88     fluidsim.obj
 0003:00000b8c       ?digits@?$numeric_limits@G@std@@2HB 0047cb8c     fluidsim.obj
 0003:00000b90       ?digits10@?$numeric_limits@G@std@@2HB 0047cb90     fluidsim.obj
 0003:00000b94       ?skipws@?$_Iosb@H@std@@2W4_Fmtflags@12@B 0047cb94     fluidsim.obj
 0003:00000b98       ?unitbuf@?$_Iosb@H@std@@2W4_Fmtflags@12@B 0047cb98     fluidsim.obj
 0003:00000b9c       ?uppercase@?$_Iosb@H@std@@2W4_Fmtflags@12@B 0047cb9c     fluidsim.obj
 0003:00000ba0       ?showbase@?$_Iosb@H@std@@2W4_Fmtflags@12@B 0047cba0     fluidsim.obj
 0003:00000ba4       ?showpoint@?$_Iosb@H@std@@2W4_Fmtflags@12@B 0047cba4     fluidsim.obj
 0003:00000ba8       ?showpos@?$_Iosb@H@std@@2W4_Fmtflags@12@B 0047cba8     fluidsim.obj
 0003:00000bac       ?left@?$_Iosb@H@std@@2W4_Fmtflags@12@B 0047cbac     fluidsim.obj
 0003:00000bb0       ?is_signed@?$numeric_limits@H@std@@2_NB 0047cbb0     fluidsim.obj
 0003:00000bb4       ?right@?$_Iosb@H@std@@2W4_Fmtflags@12@B 0047cbb4     fluidsim.obj
 0003:00000bb8       ?internal@?$_Iosb@H@std@@2W4_Fmtflags@12@B 0047cbb8     fluidsim.obj
 0003:00000bbc       ?digits@?$numeric_limits@H@std@@2HB 0047cbbc     fluidsim.obj
 0003:00000bc0       ?dec@?$_Iosb@H@std@@2W4_Fmtflags@12@B 0047cbc0     fluidsim.obj
 0003:00000bc4       ?digits10@?$numeric_limits@H@std@@2HB 0047cbc4     fluidsim.obj
 0003:00000bc8       ?oct@?$_Iosb@H@std@@2W4_Fmtflags@12@B 0047cbc8     fluidsim.obj
 0003:00000bcc       ?hex@?$_Iosb@H@std@@2W4_Fmtflags@12@B 0047cbcc     fluidsim.obj
 0003:00000bd0       ?scientific@?$_Iosb@H@std@@2W4_Fmtflags@12@B 0047cbd0     fluidsim.obj
 0003:00000bd4       ?fixed@?$_Iosb@H@std@@2W4_Fmtflags@12@B 0047cbd4     fluidsim.obj
 0003:00000bd8       ?hexfloat@?$_Iosb@H@std@@2W4_Fmtflags@12@B 0047cbd8     fluidsim.obj
 0003:00000bdc       ?boolalpha@?$_Iosb@H@std@@2W4_Fmtflags@12@B 0047cbdc     fluidsim.obj
 0003:00000be0       ?_Stdio@?$_Iosb@H@std@@2W4_Fmtflags@12@B 0047cbe0     fluidsim.obj
 0003:00000be4       ?adjustfield@?$_Iosb@H@std@@2W4_Fmtflags@12@B 0047cbe4     fluidsim.obj
 0003:00000be8       ?basefield@?$_Iosb@H@std@@2W4_Fmtflags@12@B 0047cbe8     fluidsim.obj
 0003:00000bec       ?floatfield@?$_Iosb@H@std@@2W4_Fmtflags@12@B 0047cbec     fluidsim.obj
 0003:00000bf0       ?is_signed@?$numeric_limits@I@std@@2_NB 0047cbf0     fluidsim.obj
 0003:00000bf4       ?digits@?$numeric_limits@I@std@@2HB 0047cbf4     fluidsim.obj
 0003:00000bf8       ?goodbit@?$_Iosb@H@std@@2W4_Iostate@12@B 0047cbf8     fluidsim.obj
 0003:00000bfc       ?eofbit@?$_Iosb@H@std@@2W4_Iostate@12@B 0047cbfc     fluidsim.obj
 0003:00000c00       ?digits10@?$numeric_limits@I@std@@2HB 0047cc00     fluidsim.obj
 0003:00000c04       ?failbit@?$_Iosb@H@std@@2W4_Iostate@12@B 0047cc04     fluidsim.obj
 0003:00000c08       ?badbit@?$_Iosb@H@std@@2W4_Iostate@12@B 0047cc08     fluidsim.obj
 0003:00000c0c       ?_Hardfail@?$_Iosb@H@std@@2W4_Iostate@12@B 0047cc0c     fluidsim.obj
 0003:00000c10       ?in@?$_Iosb@H@std@@2W4_Openmode@12@B 0047cc10     fluidsim.obj
 0003:00000c14       ?out@?$_Iosb@H@std@@2W4_Openmode@12@B 0047cc14     fluidsim.obj
 0003:00000c18       ?ate@?$_Iosb@H@std@@2W4_Openmode@12@B 0047cc18     fluidsim.obj
 0003:00000c1c       ?app@?$_Iosb@H@std@@2W4_Openmode@12@B 0047cc1c     fluidsim.obj
 0003:00000c20       ?trunc@?$_Iosb@H@std@@2W4_Openmode@12@B 0047cc20     fluidsim.obj
 0003:00000c24       ?_Nocreate@?$_Iosb@H@std@@2W4_Openmode@12@B 0047cc24     fluidsim.obj
 0003:00000c28       ?is_signed@?$numeric_limits@J@std@@2_NB 0047cc28     fluidsim.obj
 0003:00000c2c       ?_Noreplace@?$_Iosb@H@std@@2W4_Openmode@12@B 0047cc2c     fluidsim.obj
 0003:00000c30       ?digits@?$numeric_limits@J@std@@2HB 0047cc30     fluidsim.obj
 0003:00000c34       ?binary@?$_Iosb@H@std@@2W4_Openmode@12@B 0047cc34     fluidsim.obj
 0003:00000c38       ?digits10@?$numeric_limits@J@std@@2HB 0047cc38     fluidsim.obj
 0003:00000c3c       ?beg@?$_Iosb@H@std@@2W4_Seekdir@12@B 0047cc3c     fluidsim.obj
 0003:00000c40       ?cur@?$_Iosb@H@std@@2W4_Seekdir@12@B 0047cc40     fluidsim.obj
 0003:00000c44       ?end@?$_Iosb@H@std@@2W4_Seekdir@12@B 0047cc44     fluidsim.obj
 0003:00000c48       ?is_signed@?$numeric_limits@K@std@@2_NB 0047cc48     fluidsim.obj
 0003:00000c4c       ?digits@?$numeric_limits@K@std@@2HB 0047cc4c     fluidsim.obj
 0003:00000c50       ?_Stream_err@failure@ios_base@std@@0W4io_errc@43@B 0047cc50     fluidsim.obj
 0003:00000c54       ?digits10@?$numeric_limits@K@std@@2HB 0047cc54     fluidsim.obj
 0003:00000c58       ?is_signed@?$numeric_limits@_J@std@@2_NB 0047cc58     fluidsim.obj
 0003:00000c5c       ?digits@?$numeric_limits@_J@std@@2HB 0047cc5c     fluidsim.obj
 0003:00000c60       ?digits10@?$numeric_limits@_J@std@@2HB 0047cc60     fluidsim.obj
 0003:00000c64       ?is_signed@?$numeric_limits@_K@std@@2_NB 0047cc64     fluidsim.obj
 0003:00000c68       ?digits@?$numeric_limits@_K@std@@2HB 0047cc68     fluidsim.obj
 0003:00000c6c       ?digits10@?$numeric_limits@_K@std@@2HB 0047cc6c     fluidsim.obj
 0003:00000c70       ?digits@?$numeric_limits@M@std@@2HB 0047cc70     fluidsim.obj
 0003:00000c74       ?digits10@?$numeric_limits@M@std@@2HB 0047cc74     fluidsim.obj
 0003:00000c78       ?value@?$integral_constant@I$0A@@std@@2IB 0047cc78     fluidsim.obj
 0003:00000c7c       ?max_digits10@?$numeric_limits@M@std@@2HB 0047cc7c     fluidsim.obj
 0003:00000c80       ?max_exponent@?$numeric_limits@M@std@@2HB 0047cc80     fluidsim.obj
 0003:00000c84       ?max_exponent10@?$numeric_limits@M@std@@2HB 0047cc84     fluidsim.obj
 0003:00000c88       ?min_exponent@?$numeric_limits@M@std@@2HB 0047cc88     fluidsim.obj
 0003:00000c8c       ?min_exponent10@?$numeric_limits@M@std@@2HB 0047cc8c     fluidsim.obj
 0003:00000c90       ?digits@?$numeric_limits@N@std@@2HB 0047cc90     fluidsim.obj
 0003:00000c94       ?digits10@?$numeric_limits@N@std@@2HB 0047cc94     fluidsim.obj
 0003:00000c98       ?max_digits10@?$numeric_limits@N@std@@2HB 0047cc98     fluidsim.obj
 0003:00000c9c       ?max_exponent@?$numeric_limits@N@std@@2HB 0047cc9c     fluidsim.obj
 0003:00000ca0       ?max_exponent10@?$numeric_limits@N@std@@2HB 0047cca0     fluidsim.obj
 0003:00000ca4       ?min_exponent@?$numeric_limits@N@std@@2HB 0047cca4     fluidsim.obj
 0003:00000ca8       ?min_exponent10@?$numeric_limits@N@std@@2HB 0047cca8     fluidsim.obj
 0003:00000cac       ?collate@?$_Locbase@H@std@@2HB 0047ccac     fluidsim.obj
 0003:00000cb0       ?ctype@?$_Locbase@H@std@@2HB 0047ccb0     fluidsim.obj
 0003:00000cb4       ?monetary@?$_Locbase@H@std@@2HB 0047ccb4     fluidsim.obj
 0003:00000cb8       ?numeric@?$_Locbase@H@std@@2HB 0047ccb8     fluidsim.obj
 0003:00000cbc       ?time@?$_Locbase@H@std@@2HB 0047ccbc     fluidsim.obj
 0003:00000cc0       ?messages@?$_Locbase@H@std@@2HB 0047ccc0     fluidsim.obj
 0003:00000cc4       ?all@?$_Locbase@H@std@@2HB 0047ccc4     fluidsim.obj
 0003:00000cc8       ?none@?$_Locbase@H@std@@2HB 0047ccc8     fluidsim.obj
 0003:00000ccc       ?digits@?$numeric_limits@O@std@@2HB 0047cccc     fluidsim.obj
 0003:00000cd0       ?digits10@?$numeric_limits@O@std@@2HB 0047ccd0     fluidsim.obj
 0003:00000cd4       ?max_digits10@?$numeric_limits@O@std@@2HB 0047ccd4     fluidsim.obj
 0003:00000cd8       ?max_exponent@?$numeric_limits@O@std@@2HB 0047ccd8     fluidsim.obj
 0003:00000cdc       ?max_exponent10@?$numeric_limits@O@std@@2HB 0047ccdc     fluidsim.obj
 0003:00000ce0       ?min_exponent@?$numeric_limits@O@std@@2HB 0047cce0     fluidsim.obj
 0003:00000ce4       ?min_exponent10@?$numeric_limits@O@std@@2HB 0047cce4     fluidsim.obj
 0003:00000ce8       ?value@?$_Sizeof@U_Nil@std@@U12@U12@U12@U12@U12@U12@U12@@std@@2IB 0047cce8     fluidsim.obj
 0003:00000cec       ?has_denorm@_Num_base@std@@2W4float_denorm_style@2@B 0047ccec     fluidsim.obj
 0003:00000cf0       ?has_denorm_loss@_Num_base@std@@2_NB 0047ccf0     fluidsim.obj
 0003:00000cf1       ?has_infinity@_Num_base@std@@2_NB 0047ccf1     fluidsim.obj
 0003:00000cf2       ?has_quiet_NaN@_Num_base@std@@2_NB 0047ccf2     fluidsim.obj
 0003:00000cf3       ?has_signaling_NaN@_Num_base@std@@2_NB 0047ccf3     fluidsim.obj
 0003:00000cf4       ?is_bounded@_Num_base@std@@2_NB 0047ccf4     fluidsim.obj
 0003:00000cf5       ?is_exact@_Num_base@std@@2_NB 0047ccf5     fluidsim.obj
 0003:00000cf6       ?is_iec559@_Num_base@std@@2_NB 0047ccf6     fluidsim.obj
 0003:00000cf7       ?is_integer@_Num_base@std@@2_NB 0047ccf7     fluidsim.obj
 0003:00000cfc       ??_7bad_alloc@std@@6B@     0047ccfc     fluidsim.obj
 0003:00000d08       ??_C@_0P@GHFPNOJB@bad?5allocation?$AA@ 0047cd08     fluidsim.obj
 0003:00000d1c       ?npos@?$basic_string@DU?$char_traits@D@std@@V?$allocator@D@2@@std@@2IB 0047cd1c     fluidsim.obj
 0003:00000d24       ??_7error_category@std@@6B@ 0047cd24     fluidsim.obj
 0003:00000d48       ??_7_Generic_error_category@std@@6B@ 0047cd48     fluidsim.obj
 0003:00000d68       ??_C@_07DCLBNMLN@generic?$AA@ 0047cd68     fluidsim.obj
 0003:00000d74       ??_C@_0O@BFJCFAAK@unknown?5error?$AA@ 0047cd74     fluidsim.obj
 0003:00000d88       ??_7_Iostream_error_category@std@@6B@ 0047cd88     fluidsim.obj
 0003:00000da8       ??_C@_08LLGCOLLL@iostream?$AA@ 0047cda8     fluidsim.obj
 0003:00000db4       ??_C@_0BG@PADBLCHM@iostream?5stream?5error?$AA@ 0047cdb4     fluidsim.obj
 0003:00000dd4       ??_7_System_error_category@std@@6B@ 0047cdd4     fluidsim.obj
 0003:00000df4       ??_C@_06FHFOAHML@system?$AA@ 0047cdf4     fluidsim.obj
 0003:00000dfc       ??_C@_04PACIOCLB@?4obj?$AA@ 0047cdfc     fluidsim.obj
 0003:00000e08       ??_C@_0EA@LCDCKDBF@Error?3?5Expected?5OBJ?5file?5with?5fi@ 0047ce08     fluidsim.obj
 0003:00000e54       ??_C@_04ECNPDJCI@?4sdf?$AA@ 0047ce54     fluidsim.obj
 0003:00000e64       ??_7?$basic_filebuf@DU?$char_traits@D@std@@@std@@6B@ 0047ce64     fluidsim.obj
 0003:00000eb0       ??_7?$basic_ifstream@DU?$char_traits@D@std@@@std@@6B@ 0047ceb0     fluidsim.obj
 0003:00000ec0       ??_8?$basic_ifstream@DU?$char_traits@D@std@@@std@@7B@ 0047cec0     fluidsim.obj
 0003:00000ecc       ??_C@_0BJ@GFMIIBPI@obj?5file?5doesn?8t?5exist?4?6?$AA@ 0047cecc     fluidsim.obj
 0003:00000eec       ??_C@_01MHEDDDHA@v?$AA@    0047ceec     fluidsim.obj
 0003:00000ef0       ??_C@_01PFHFFBPC@t?$AA@    0047cef0     fluidsim.obj
 0003:00000ef4       ??_C@_01EFFIKLCJ@n?$AA@    0047cef4     fluidsim.obj
 0003:00000efc       ??_7?$basic_stringbuf@DU?$char_traits@D@std@@V?$allocator@D@2@@std@@6B@ 0047cefc     fluidsim.obj
 0003:00000f48       ??_7?$basic_stringstream@DU?$char_traits@D@std@@V?$allocator@D@2@@std@@6B@ 0047cf48     fluidsim.obj
 0003:00000f58       ??_8?$basic_stringstream@DU?$char_traits@D@std@@V?$allocator@D@2@@std@@7B?$basic_istream@DU?$char_traits@D@std@@@1@@ 0047cf58     fluidsim.obj
 0003:00000f64       ??_8?$basic_stringstream@DU?$char_traits@D@std@@V?$allocator@D@2@@std@@7B?$basic_ostream@DU?$char_traits@D@std@@@1@@ 0047cf64     fluidsim.obj
 0003:00000f70       ??_C@_01INIBCBCB@f?$AA@    0047cf70     fluidsim.obj
 0003:00000f74       ??_C@_02KNHHEEKP@?5?5?$AA@ 0047cf74     fluidsim.obj
 0003:00000f78       ??_C@_01LFCBOECM@?4?$AA@   0047cf78     fluidsim.obj
 0003:00000f7c       ??_C@_0BD@KGCCDBGG@?$CJ?5with?5dimensions?5?$AA@ 0047cf7c     fluidsim.obj
 0003:00000f94       ??_C@_06DFBNBAOI@?$CJ?5to?5?$CI?$AA@ 0047cf94     fluidsim.obj
 0003:00000f9c       ??_C@_0BC@ODJBFJCC@Bound?5box?5size?3?5?$CI?$AA@ 0047cf9c     fluidsim.obj
 0003:00000fb4       ??_C@_0CC@MKLLFEIH@Computing?5signed?5distance?5field?4@ 0047cfb4     fluidsim.obj
 0003:00000fdc       ??_C@_01EEMJAFIK@?6?$AA@   0047cfdc     fluidsim.obj
 0003:00000fe0       ??_C@_0BF@IDCGHPOJ@Writing?5results?5to?3?5?$AA@ 0047cfe0     fluidsim.obj
 0003:00001000       ??_7?$basic_ofstream@DU?$char_traits@D@std@@@std@@6B@ 0047d000     fluidsim.obj
 0003:00001010       ??_8?$basic_ofstream@DU?$char_traits@D@std@@@std@@7B@ 0047d010     fluidsim.obj
 0003:0000101c       ??_C@_01CLKCMJKC@?5?$AA@   0047d01c     fluidsim.obj
 0003:00001020       ??_C@_0BG@INDCFGHJ@Processing?5complete?4?6?$AA@ 0047d020     fluidsim.obj
 0003:0000103c       ??_C@_0BN@IIKHIDDJ@Loading?5level?5set?5data?5from?5?$AA@ 0047d03c     fluidsim.obj
 0003:00001060       ??_C@_0BB@IMPLEDDO@Finished?5loading?$AA@ 0047d060     fluidsim.obj
 0003:00001074       ??_C@_0DF@BLMAHAKF@Taking?5substep?5of?5size?5?$CFf?5?$CIto?5?$CF0@ 0047d074     fluidsim.obj
 0003:000010b4       ??_C@_0BP@GFGELKPP@?5Surface?5?$CIparticle?$CJ?5advection?6?$AA@ 0047d0b4     fluidsim.obj
 0003:000010dc       ??_C@_0BF@KGODKNGK@?5Velocity?5advection?6?$AA@ 0047d0dc     fluidsim.obj
 0003:000010f8       ??_C@_0BG@COBLPBF@?5Pressure?5projection?6?$AA@ 0047d0f8     fluidsim.obj
 0003:00001114       ??_C@_0BA@HDDGNIF@?5Extrapolation?6?$AA@ 0047d114     fluidsim.obj
 0003:00001128       ??_C@_0CA@BPJFHIGA@?5Constrain?5boundary?5velocities?6?$AA@ 0047d128     fluidsim.obj
 0003:00001150       ??_C@_0FB@EENBKCIM@WARNING?3?5Pressure?5solve?5failed?$CB?$CK@ 0047d150     fluidsim.obj
 0003:000011b8       ??_C@_1JC@CMPJEP@?$AAc?$AA?3?$AA?2?$AAu?$AAs?$AAe?$AAr?$AAs?$AA?2?$AAl?$AAu?$AAc?$AAy?$AA?2?$AAd?$AAo?$AAc?$AAu?$AAm?$AAe?$AAn?$AAt?$AAs?$AA?2?$AAs?$AAc?$AAh?$AAo?$AAo?$AAl?$AA?2?$AA2@ 0047d1b8     fluidsim.obj
 0003:00001268       ??_C@_1FK@PGIJLBAI@?$AAi?$AA?$DO?$AA?$DN?$AA0?$AA?5?$AA?$CG?$AA?$CG?$AA?5?$AAi?$AA?$DM?$AAn?$AAi?$AA?5?$AA?$CG?$AA?$CG?$AA?5?$AAj?$AA?$DO?$AA?$DN?$AA0?$AA?5?$AA?$CG?$AA?$CG?$AA?5?$AAj?$AA?$DM?$AAn?$AAj?$AA?5?$AA?$CG?$AA?$CG?$AA?5@ 0047d268     fluidsim.obj
 0003:000012d4       ??_C@_1DG@HHNMHAGH@?$AAn?$AAi?$AA_?$AA?$DO?$AA?$DN?$AA0?$AA?5?$AA?$CG?$AA?$CG?$AA?5?$AAn?$AAj?$AA_?$AA?$DO?$AA?$DN?$AA0?$AA?5?$AA?$CG?$AA?$CG?$AA?5?$AAn?$AAk?$AA_?$AA?$DO?$AA?$DN?$AA0?$AA?$AA@ 0047d2d4     fluidsim.obj
 0003:00001318       ??_C@_1IM@GKDKOBBK@?$AAc?$AA?3?$AA?2?$AAu?$AAs?$AAe?$AAr?$AAs?$AA?2?$AAl?$AAu?$AAc?$AAy?$AA?2?$AAd?$AAo?$AAc?$AAu?$AAm?$AAe?$AAn?$AAt?$AAs?$AA?2?$AAs?$AAc?$AAh?$AAo?$AAo?$AAl?$AA?2?$AA2@ 0047d318     fluidsim.obj
 0003:000013c0       ??_C@_1EE@DLOGJCN@?$AA0?$AA?$DM?$AA?$DN?$AAi?$AAn?$AAd?$AAe?$AAx?$AA?5?$AA?$CG?$AA?$CG?$AA?5?$AA?$CI?$AAu?$AAn?$AAs?$AAi?$AAg?$AAn?$AAe?$AAd?$AA?5?$AAi?$AAn?$AAt?$AA?$CJ?$AAi?$AAn?$AAd?$AAe?$AAx?$AA?$DM@ 0047d3c0     fluidsim.obj
 0003:00001414       ??_C@_0BA@JFNIOLAK@string?5too?5long?$AA@ 0047d414     fluidsim.obj
 0003:00001428       ??_C@_0BI@CFPLBAOH@invalid?5string?5position?$AA@ 0047d428     fluidsim.obj
 0003:00001444       ??_C@_0BD@OLBABOEK@vector?$DMT?$DO?5too?5long?$AA@ 0047d444     fluidsim.obj
 0003:0000145c       ??_C@_08EPJLHIJG@bad?5cast?$AA@ 0047d45c     fluidsim.obj
 0003:00001468       ??_C@_1LE@ENEPKILH@?$AAc?$AA?3?$AA?2?$AAu?$AAs?$AAe?$AAr?$AAs?$AA?2?$AAl?$AAu?$AAc?$AAy?$AA?2?$AAd?$AAo?$AAc?$AAu?$AAm?$AAe?$AAn?$AAt?$AAs?$AA?2?$AAs?$AAc?$AAh?$AAo?$AAo?$AAl?$AA?2?$AA2@ 0047d468     fluidsim.obj
 0003:00001540       ??_C@_1CG@EHANPMAO@?$AAm?$AAa?$AAt?$AAr?$AAi?$AAx?$AA?4?$AAn?$AA?$DN?$AA?$DN?$AAx?$AA?4?$AAs?$AAi?$AAz?$AAe?$AA?$CI?$AA?$CJ?$AA?$AA@ 0047d540     fluidsim.obj
 0003:00001570       ??_C@_1KO@LIPKMLDC@?$AAc?$AA?3?$AA?2?$AAu?$AAs?$AAe?$AAr?$AAs?$AA?2?$AAl?$AAu?$AAc?$AAy?$AA?2?$AAd?$AAo?$AAc?$AAu?$AAm?$AAe?$AAn?$AAt?$AAs?$AA?2?$AAs?$AAc?$AAh?$AAo?$AAo?$AAl?$AA?2?$AA2@ 0047d570     fluidsim.obj
 0003:00001640       ??_C@_1CK@PBEEEGEA@?$AAf?$AAa?$AAc?$AAt?$AAo?$AAr?$AA?4?$AAn?$AA?$DN?$AA?$DN?$AAr?$AAh?$AAs?$AA?4?$AAs?$AAi?$AAz?$AAe?$AA?$CI?$AA?$CJ?$AA?$AA@ 0047d640     fluidsim.obj
 0003:00001674       ??_C@_1DA@JHNLDKBB@?$AAf?$AAa?$AAc?$AAt?$AAo?$AAr?$AA?4?$AAn?$AA?$DN?$AA?$DN?$AAr?$AAe?$AAs?$AAu?$AAl?$AAt?$AA?4?$AAs?$AAi?$AAz?$AAe?$AA?$CI?$AA?$CJ?$AA?$AA@ 0047d674     fluidsim.obj
 0003:000016b0       ??_C@_1CG@KJHEOHAD@?$AAf?$AAa?$AAc?$AAt?$AAo?$AAr?$AA?4?$AAn?$AA?$DN?$AA?$DN?$AAx?$AA?4?$AAs?$AAi?$AAz?$AAe?$AA?$CI?$AA?$CJ?$AA?$AA@ 0047d6b0     fluidsim.obj
 0003:000016e0       ??_C@_1BG@GDBJLPEO@?$AAf?$AAa?$AAc?$AAt?$AAo?$AAr?$AA?4?$AAn?$AA?$DO?$AA0?$AA?$AA@ 0047d6e0     fluidsim.obj
 0003:000016fc       __real@00000000            0047d6fc     fluidsim.obj
 0003:00001700       __real@0000000000000000    0047d700     fluidsim.obj
 0003:00001710       __real@39b4484bfeebc2a0    0047d710     fluidsim.obj
 0003:0000171c       __real@3c23d70a            0047d71c     fluidsim.obj
 0003:00001720       __real@3c32725dd1d243ac    0047d720     fluidsim.obj
 0003:0000172c       __real@3e000000            0047d72c     fluidsim.obj
 0003:00001730       __real@3f000000            0047d730     fluidsim.obj
 0003:00001734       __real@3f800000            0047d734     fluidsim.obj
 0003:00001738       __real@3fd0000000000000    0047d738     fluidsim.obj
 0003:00001748       __real@3fe0000000000000    0047d748     fluidsim.obj
 0003:00001758       __real@3fef0a3d70a3d70a    0047d758     fluidsim.obj
 0003:00001768       __real@3ff0000000000000    0047d768     fluidsim.obj
 0003:00001778       __real@3ff028f5c28f5c29    0047d778     fluidsim.obj
 0003:00001788       __real@4000000000000000    0047d788     fluidsim.obj
 0003:00001798       __real@4008000000000000    0047d798     fluidsim.obj
 0003:000017a4       __real@40400000            0047d7a4     fluidsim.obj
 0003:000017a8       __real@411cf5c3            0047d7a8     fluidsim.obj
 0003:000017ac       __real@42c80000            0047d7ac     fluidsim.obj
 0003:000017b0       __real@4f800000            0047d7b0     fluidsim.obj
 0003:000017b4       __real@bf000000            0047d7b4     fluidsim.obj
 0003:000017c0       __xmm@41f00000000000000000000000000000 0047d7c0     fluidsim.obj
 0003:000017e0       __xmm@80000000000000008000000000000000 0047d7e0     fluidsim.obj
 0003:00001800       __xmm@80000000800000008000000080000000 0047d800     fluidsim.obj
 0003:00001814       __real@3e800000            0047d814     levelset_util.obj
 0003:0000181c       ??_7Camera@Gluvi@@6B@      0047d81c     main.obj
 0003:00001844       ??_7Widget@Gluvi@@6B@      0047d844     main.obj
 0003:00001858       ??_C@_07LOFHFAIJ@frame?50?$AA@ 0047d858     main.obj
 0003:00001864       ??_C@_0BD@LHLCIPIK@Liquid?5Data?5Viewer?$AA@ 0047d864     main.obj
 0003:0000187c       ??_C@_0BF@NGLLGBDB@Not?5enough?5arguments?$AA@ 0047d87c     main.obj
 0003:00001898       ??_C@_0BD@IFKPDKDM@Initializing?5data?6?$AA@ 0047d898     main.obj
 0003:000018b0       ??_C@_0BH@COCHMIOB@Initializing?5boundary?6?$AA@ 0047d8b0     main.obj
 0003:000018cc       ??_C@_0BF@MPKADFK@Initializing?5liquid?6?$AA@ 0047d8cc     main.obj
 0003:000018e8       ??_C@_0BI@MGPMMHAG@Exporting?5initial?5data?6?$AA@ 0047d8e8     main.obj
 0003:00001904       ??_C@_0BP@KEBFBCKB@?9?9?9?9?9?9?9?9?9?9?9?9?9?9?9?9?9?9?9?9?6Frame?5?$CFd?6?$AA@ 0047d904     main.obj
 0003:0000192c       ??_C@_0BD@PCLJPBBE@Simulating?5liquid?6?$AA@ 0047d92c     main.obj
 0003:00001944       ??_C@_0BG@HAMJGJHN@output?1fluid_?$CF03d?4png?$AA@ 0047d944     main.obj
 0003:00001960       ??_C@_04LCMACLFG@?4txt?$AA@ 0047d960     main.obj
 0003:00001968       ??_C@_0L@JNAHJLK@particles_?$AA@ 0047d968     main.obj
 0003:00001978       __real@3d719799812dea11    0047d978     main.obj
 0003:00001984       __real@3dcccccd            0047d984     main.obj
 0003:00001988       __real@3e6b851f            0047d988     main.obj
 0003:0000198c       __real@3e99999a            0047d98c     main.obj
 0003:00001990       __real@3ecccccd            0047d990     main.obj
 0003:00001994       __real@3f0ccccd            0047d994     main.obj
 0003:00001998       __real@3f333333            0047d998     main.obj
 0003:0000199c       __real@40000000            0047d99c     main.obj
 0003:000019a0       __real@42340000            0047d9a0     main.obj
 0003:000019a8       ??_C@_1KE@OKPDEJKI@?$AAc?$AA?3?$AA?2?$AAu?$AAs?$AAe?$AAr?$AAs?$AA?2?$AAl?$AAu?$AAc?$AAy?$AA?2?$AAd?$AAo?$AAc?$AAu?$AAm?$AAe?$AAn?$AAt?$AAs?$AA?2?$AAs?$AAc?$AAh?$AAo?$AAo?$AAl?$AA?2?$AA2@ 0047d9a8     makelevelset3.obj
 0003:00001a6c       ??_C@_1O@FNKJOHJI@?$AAs?$AAu?$AAm?$AA?$CB?$AA?$DN?$AA0?$AA?$AA@ 0047da6c     makelevelset3.obj
 0003:00001a7c       __real@0da24260            0047da7c     makelevelset3.obj
 0003:00001a80       ??_C@_1KO@BAFDKDAK@?$AAc?$AA?3?$AA?2?$AAu?$AAs?$AAe?$AAr?$AAs?$AA?2?$AAl?$AAu?$AAc?$AAy?$AA?2?$AAd?$AAo?$AAc?$AAu?$AAm?$AAe?$AAn?$AAt?$AAs?$AA?2?$AAs?$AAc?$AAh?$AAo?$AAo?$AAl?$AA?2?$AA2@ 0047da80     obj.obj
 0003:00001b50       ??_C@_1CG@KOFHLCJL@?$AAi?$AA?5?$AA?$DM?$AA?5?$AAt?$AAh?$AAi?$AAs?$AA?9?$AA?$DO?$AAl?$AAe?$AAn?$AAg?$AAt?$AAh?$AA?$CI?$AA?$CJ?$AA?$AA@ 0047db50     obj.obj
 0003:00001b80       ??_C@_1KO@GEMLEKIF@?$AAc?$AA?3?$AA?2?$AAu?$AAs?$AAe?$AAr?$AAs?$AA?2?$AAl?$AAu?$AAc?$AAy?$AA?2?$AAd?$AAo?$AAc?$AAu?$AAm?$AAe?$AAn?$AAt?$AAs?$AA?2?$AAs?$AAc?$AAh?$AAo?$AAo?$AAl?$AA?2?$AA2@ 0047db80     obj.obj
 0003:00001c50       __real@3cb0000000000000    0047dc50     obj.obj
 0003:00001c60       __real@3fd999999999999a    0047dc60     obj.obj
 0003:00001c6c       ??_C@_0BD@BBFNGCEC@Loading?5OBJ?5File?3?5?$AA@ 0047dc6c     objloader.obj
 0003:00001c84       ??_C@_02MOKMDPNA@42?$AA@   0047dc84     objloader.obj
 0003:00001c8c       ??_7?$basic_istringstream@DU?$char_traits@D@std@@V?$allocator@D@2@@std@@6B@ 0047dc8c     objloader.obj
 0003:00001c9c       ??_8?$basic_istringstream@DU?$char_traits@D@std@@V?$allocator@D@2@@std@@7B@ 0047dc9c     objloader.obj
 0003:00001ca8       ??_C@_02CBLDBPFN@?1?1?$AA@ 0047dca8     objloader.obj
 0003:00001cac       ??_C@_01KMDKNFGN@?1?$AA@   0047dcac     objloader.obj
 0003:00001cb0       ??_C@_0BA@NEOJOLCP@?5vertices?5from?5?$AA@ 0047dcb0     objloader.obj
 0003:00001cc4       ??_C@_08KCKJJGAC@?5faces?0?5?$AA@ 0047dcc4     objloader.obj
 0003:00001cd0       ??_C@_07OAKJIGCF@Loaded?5?$AA@ 0047dcd0     objloader.obj
 0003:00001cdc       ??_C@_0BE@GIEHENJH@?5could?5not?5be?5found?$AA@ 0047dcdc     objloader.obj
 0003:00001cf4       ??_C@_07JHDPBCI@ERROR?3?5?$AA@ 0047dcf4     objloader.obj
 0003:00001d00       ??_C@_0BD@CBEDEJPH@unknown?5image?5type?$AA@ 0047dd00     stb_image.obj
 0003:00001d18       ??_C@_02JDPG@rb?$AA@       0047dd18     stb_image.obj
 0003:00001d1c       ??_C@_0M@JPDHFAGK@can?8t?5fopen?$AA@ 0047dd1c     stb_image.obj
 0003:00001d30       ??_C@_1JI@DKBEGPNO@?$AAc?$AA?3?$AA?2?$AAu?$AAs?$AAe?$AAr?$AAs?$AA?2?$AAl?$AAu?$AAc?$AAy?$AA?2?$AAd?$AAo?$AAc?$AAu?$AAm?$AAe?$AAn?$AAt?$AAs?$AA?2?$AAs?$AAc?$AAh?$AAo?$AAo?$AAl?$AA?2?$AA2@ 0047dd30     stb_image.obj
 0003:00001de8       ??_C@_1DO@MABJBNAJ@?$AAr?$AAe?$AAq?$AA_?$AAc?$AAo?$AAm?$AAp?$AA?5?$AA?$DO?$AA?$DN?$AA?5?$AA1?$AA?5?$AA?$CG?$AA?$CG?$AA?5?$AAr?$AAe?$AAq?$AA_?$AAc?$AAo?$AAm?$AAp?$AA?5?$AA?$DM?$AA?$DN?$AA?5?$AA4?$AA?$AA@ 0047dde8     stb_image.obj
 0003:00001e34       ??_C@_08NOGIMCHF@outofmem?$AA@ 0047de34     stb_image.obj
 0003:00001e40       ??_C@_13COJANIEC@?$AA0?$AA?$AA@ 0047de40     stb_image.obj
 0003:00001e44       ??_C@_0BB@FOKGPEKG@bad?5code?5lengths?$AA@ 0047de44     stb_image.obj
 0003:00001e58       ??_C@_1JI@MDNABHL@?$AA?$CI?$AA?$CI?$AA?$CI?$AAj?$AA?9?$AA?$DO?$AAc?$AAo?$AAd?$AAe?$AA_?$AAb?$AAu?$AAf?$AAf?$AAe?$AAr?$AA?$CJ?$AA?5?$AA?$DO?$AA?$DO?$AA?5?$AA?$CI?$AA3?$AA2?$AA?5?$AA?9?$AA?5?$AAh?$AA?9?$AA?$DO?$AAs@ 0047de58     stb_image.obj
 0003:00001f10       ??_C@_0BB@IIMLINA@bad?5huffman?5code?$AA@ 0047df10     stb_image.obj
 0003:00001f24       ??_C@_0BA@KLNDOKJD@expected?5marker?$AA@ 0047df24     stb_image.obj
 0003:00001f38       ??_C@_0BB@HNODNPCF@progressive?5jpeg?$AA@ 0047df38     stb_image.obj
 0003:00001f4c       ??_C@_0M@LPHNODCG@bad?5DRI?5len?$AA@ 0047df4c     stb_image.obj
 0003:00001f5c       ??_C@_0N@BOFJCHAP@bad?5DQT?5type?$AA@ 0047df5c     stb_image.obj
 0003:00001f6c       ??_C@_0O@CNHKKDIM@bad?5DQT?5table?$AA@ 0047df6c     stb_image.obj
 0003:00001f7c       ??_C@_0P@JLGKOCGN@bad?5DHT?5header?$AA@ 0047df7c     stb_image.obj
 0003:00001f90       ??_C@_0BI@DHFJCMBA@bad?5SOS?5component?5count?$AA@ 0047df90     stb_image.obj
 0003:00001fac       ??_C@_0M@GNEHAHOH@bad?5SOS?5len?$AA@ 0047dfac     stb_image.obj
 0003:00001fbc       ??_C@_0M@NOCCBFAC@bad?5DC?5huff?$AA@ 0047dfbc     stb_image.obj
 0003:00001fcc       ??_C@_0M@JGMCBLGG@bad?5AC?5huff?$AA@ 0047dfcc     stb_image.obj
 0003:00001fdc       ??_C@_07EEJOMGGP@bad?5SOS?$AA@ 0047dfdc     stb_image.obj
 0003:00001fe8       ??_C@_0M@DOFMJEMP@bad?5SOF?5len?$AA@ 0047dfe8     stb_image.obj
 0003:00001ff8       ??_C@_0L@BCINMEBJ@only?58?9bit?$AA@ 0047dff8     stb_image.obj
 0003:00002008       ??_C@_0BB@LNEGOMA@no?5header?5height?$AA@ 0047e008     stb_image.obj
 0003:0000201c       ??_C@_07BIDACDEF@0?5width?$AA@ 0047e01c     stb_image.obj
 0003:00002028       ??_C@_0BE@DAPHADHL@bad?5component?5count?$AA@ 0047e028     stb_image.obj
 0003:00002040       ??_C@_0BB@GNMFLCGA@bad?5component?5ID?$AA@ 0047e040     stb_image.obj
 0003:00002054       ??_C@_05BLPKENEJ@bad?5H?$AA@ 0047e054     stb_image.obj
 0003:0000205c       ??_C@_05MPLLHCJG@bad?5V?$AA@ 0047e05c     stb_image.obj
 0003:00002064       ??_C@_06LJIHDFHI@bad?5TQ?$AA@ 0047e064     stb_image.obj
 0003:0000206c       ??_C@_09OJDLMMBJ@too?5large?$AA@ 0047e06c     stb_image.obj
 0003:00002078       ??_C@_06CLMBLEP@no?5SOI?$AA@ 0047e078     stb_image.obj
 0003:00002080       ??_C@_06IFCEAHIA@no?5SOF?$AA@ 0047e080     stb_image.obj
 0003:00002088       ??_C@_0N@KBPNPPBJ@bad?5req_comp?$AA@ 0047e088     stb_image.obj
 0003:00002098       ??_C@_1BG@HKNLHECB@?$AAb?$AAi?$AAt?$AAs?$AA?5?$AA?$DM?$AA?$DN?$AA?5?$AA1?$AA6?$AA?$AA@ 0047e098     stb_image.obj
 0003:000020b4       ??_C@_1CK@MCBKMNC@?$AAs?$AAi?$AAz?$AAe?$AAs?$AA?$FL?$AAi?$AA?$FN?$AA?5?$AA?$DM?$AA?$DN?$AA?5?$AA?$CI?$AA1?$AA?5?$AA?$DM?$AA?$DM?$AA?5?$AAi?$AA?$CJ?$AA?$AA@ 0047e0b4     stb_image.obj
 0003:000020e8       ??_C@_0BA@MDNKOBMC@bad?5codelengths?$AA@ 0047e0e8     stb_image.obj
 0003:00002100       ??_C@_1EK@GAHNONBJ@?$AAz?$AA?9?$AA?$DO?$AAc?$AAo?$AAd?$AAe?$AA_?$AAb?$AAu?$AAf?$AAf?$AAe?$AAr?$AA?5?$AA?$DM?$AA?5?$AA?$CI?$AA1?$AAU?$AA?5?$AA?$DM?$AA?$DM?$AA?5?$AAz?$AA?9?$AA?$DO?$AAn?$AAu?$AAm?$AA_?$AAb@ 0047e100     stb_image.obj
 0003:00002158       ??_C@_1CA@BMLMNMFI@?$AAz?$AA?9?$AA?$DO?$AAs?$AAi?$AAz?$AAe?$AA?$FL?$AAb?$AA?$FN?$AA?5?$AA?$DN?$AA?$DN?$AA?5?$AAs?$AA?$AA@ 0047e158     stb_image.obj
 0003:00002180       ??_C@_0BE@IBFIPFO@output?5buffer?5limit?$AA@ 0047e180     stb_image.obj
 0003:00002198       ??_C@_08DIAPIMGJ@bad?5dist?$AA@ 0047e198     stb_image.obj
 0003:000021a4       ??_C@_1CC@EODPGILL@?$AAc?$AA?5?$AA?$DO?$AA?$DN?$AA?5?$AA0?$AA?5?$AA?$CG?$AA?$CG?$AA?5?$AAc?$AA?5?$AA?$DM?$AA?5?$AA1?$AA9?$AA?$AA@ 0047e1a4     stb_image.obj
 0003:000021cc       ??_C@_1BA@NKONKNHF@?$AAc?$AA?5?$AA?$DN?$AA?$DN?$AA?5?$AA1?$AA8?$AA?$AA@ 0047e1cc     stb_image.obj
 0003:000021e0       ??_C@_1CC@BHGGCLFF@?$AAa?$AA?9?$AA?$DO?$AAn?$AAu?$AAm?$AA_?$AAb?$AAi?$AAt?$AAs?$AA?5?$AA?$DN?$AA?$DN?$AA?5?$AA0?$AA?$AA@ 0047e1e0     stb_image.obj
 0003:00002208       ??_C@_0N@IECDHMDI@zlib?5corrupt?$AA@ 0047e208     stb_image.obj
 0003:00002218       ??_C@_0BB@PIPBCKIA@read?5past?5buffer?$AA@ 0047e218     stb_image.obj
 0003:0000222c       ??_C@_0BA@OBKOPAFL@bad?5zlib?5header?$AA@ 0047e22c     stb_image.obj
 0003:00002240       ??_C@_0P@DOGMHEBI@no?5preset?5dict?$AA@ 0047e240     stb_image.obj
 0003:00002254       ??_C@_0BA@MCNBDLPD@bad?5compression?$AA@ 0047e254     stb_image.obj
 0003:00002268       ??_C@_0M@DMDNBACF@bad?5png?5sig?$AA@ 0047e268     stb_image.obj
 0003:00002278       ??_C@_1FC@ICDHLHK@?$AAo?$AAu?$AAt?$AA_?$AAn?$AA?5?$AA?$DN?$AA?$DN?$AA?5?$AAs?$AA?9?$AA?$DO?$AAi?$AAm?$AAg?$AA_?$AAn?$AA?5?$AA?$HM?$AA?$HM?$AA?5?$AAo?$AAu?$AAt?$AA_?$AAn?$AA?5?$AA?$DN?$AA?$DN?$AA?5?$AAs?$AA?9@ 0047e278     stb_image.obj
 0003:000022dc       ??_C@_0BC@BHMPBBMG@not?5enough?5pixels?$AA@ 0047e2dc     stb_image.obj
 0003:000022f4       ??_C@_0P@FBBCPGMN@invalid?5filter?$AA@ 0047e2f4     stb_image.obj
 0003:00002308       ??_C@_1CC@CPJBBDGC@?$AAi?$AAm?$AAg?$AA_?$AAn?$AA?$CL?$AA1?$AA?5?$AA?$DN?$AA?$DN?$AA?5?$AAo?$AAu?$AAt?$AA_?$AAn?$AA?$AA@ 0047e308     stb_image.obj
 0003:00002330       ??_C@_1DC@BMIDKOPK@?$AAo?$AAu?$AAt?$AA_?$AAn?$AA?5?$AA?$DN?$AA?$DN?$AA?5?$AA2?$AA?5?$AA?$HM?$AA?$HM?$AA?5?$AAo?$AAu?$AAt?$AA_?$AAn?$AA?5?$AA?$DN?$AA?$DN?$AA?5?$AA4?$AA?$AA@ 0047e330     stb_image.obj
 0003:0000236c       ??_C@_1CE@GKIDJEJM@?$AAs?$AA?9?$AA?$DO?$AAi?$AAm?$AAg?$AA_?$AAo?$AAu?$AAt?$AA_?$AAn?$AA?5?$AA?$DN?$AA?$DN?$AA?5?$AA4?$AA?$AA@ 0047e36c     stb_image.obj
 0003:00002398       ??_C@_0O@KBHBNJOK@multiple?5IHDR?$AA@ 0047e398     stb_image.obj
 0003:000023a8       ??_C@_0N@POJLKMKK@bad?5IHDR?5len?$AA@ 0047e3a8     stb_image.obj
 0003:000023b8       ??_C@_09LKEACGKO@8bit?5only?$AA@ 0047e3b8     stb_image.obj
 0003:000023c4       ??_C@_09MBBNGCKB@bad?5ctype?$AA@ 0047e3c4     stb_image.obj
 0003:000023d0       ??_C@_0BA@MDMBDDFG@bad?5comp?5method?$AA@ 0047e3d0     stb_image.obj
 0003:000023e4       ??_C@_0BC@GHLIKKMD@bad?5filter?5method?$AA@ 0047e3e4     stb_image.obj
 0003:000023fc       ??_C@_0BF@JCGDPBAA@bad?5interlace?5method?$AA@ 0047e3fc     stb_image.obj
 0003:00002418       ??_C@_0O@FNFBHCOO@0?9pixel?5image?$AA@ 0047e418     stb_image.obj
 0003:00002428       ??_C@_0P@JEAFOMAF@first?5not?5IHDR?$AA@ 0047e428     stb_image.obj
 0003:0000243c       ??_C@_0N@JCPAJAKB@invalid?5PLTE?$AA@ 0047e43c     stb_image.obj
 0003:0000244c       ??_C@_0BA@PCPJHDKJ@tRNS?5after?5IDAT?$AA@ 0047e44c     stb_image.obj
 0003:00002460       ??_C@_0BB@CEDNNLBG@tRNS?5before?5PLTE?$AA@ 0047e460     stb_image.obj
 0003:00002474       ??_C@_0N@KDLCCKCH@bad?5tRNS?5len?$AA@ 0047e474     stb_image.obj
 0003:00002484       ??_C@_0BA@ENDPGCHB@tRNS?5with?5alpha?$AA@ 0047e484     stb_image.obj
 0003:00002498       ??_C@_07CKIELOEH@no?5PLTE?$AA@ 0047e498     stb_image.obj
 0003:000024a4       ??_C@_09MNNCNKEO@outofdata?$AA@ 0047e4a4     stb_image.obj
 0003:000024b0       ??_C@_07MLPECBNA@no?5IDAT?$AA@ 0047e4b0     stb_image.obj
 0003:000024bc       ??_C@_07IANEBNLB@not?5BMP?$AA@ 0047e4bc     stb_image.obj
 0003:000024c8       ??_C@_0M@KHBIBJBG@unknown?5BMP?$AA@ 0047e4c8     stb_image.obj
 0003:000024d8       ??_C@_07IEJCHBDI@bad?5BMP?$AA@ 0047e4d8     stb_image.obj
 0003:000024e4       ??_C@_0L@FEJFGKNE@monochrome?$AA@ 0047e4e4     stb_image.obj
 0003:000024f4       ??_C@_07IMHMNOIB@BMP?5RLE?$AA@ 0047e4f4     stb_image.obj
 0003:00002500       ??_C@_1BG@KBIIGBIG@?$AAh?$AAs?$AAz?$AA?5?$AA?$DN?$AA?$DN?$AA?5?$AA1?$AA0?$AA8?$AA?$AA@ 0047e500     stb_image.obj
 0003:0000251c       ??_C@_07MALOAKCI@invalid?$AA@ 0047e51c     stb_image.obj
 0003:00002528       ??_C@_07JNJHIMGH@bad?5bpp?$AA@ 0047e528     stb_image.obj
 0003:00002534       ??_C@_09DAEBACAB@bad?5masks?$AA@ 0047e534     stb_image.obj
 0003:00002540       ??_C@_0M@ILLOCNCO@bad?5palette?$AA@ 0047e540     stb_image.obj
 0003:00002550       ??_C@_07ECNCNLIK@not?5PSD?$AA@ 0047e550     stb_image.obj
 0003:0000255c       ??_C@_0O@CHBCDKKC@wrong?5version?$AA@ 0047e55c     stb_image.obj
 0003:0000256c       ??_C@_0BE@PJBNGDBE@wrong?5channel?5count?$AA@ 0047e56c     stb_image.obj
 0003:00002584       ??_C@_0BG@NOLDLPP@unsupported?5bit?5depth?$AA@ 0047e584     stb_image.obj
 0003:000025a0       ??_C@_0BD@IOGGBMNK@wrong?5color?5format?$AA@ 0047e5a0     stb_image.obj
 0003:000025b8       ??_C@_04KBFEPHFH@S?$IA?v4?$AA@ 0047e5b8     stb_image.obj
 0003:000025c0       ??_C@_04ELNJHLFH@PICT?$AA@ 0047e5c0     stb_image.obj
 0003:000025c8       ??_C@_08GGMBIFE@bad?5file?$AA@ 0047e5c8     stb_image.obj
 0003:000025d4       ??_C@_0L@DMAPJJO@bad?5format?$AA@ 0047e5d4     stb_image.obj
 0003:000025e4       ??_C@_07KMJLPAII@not?5GIF?$AA@ 0047e5e4     stb_image.obj
 0003:000025ed       ??_C@_00CNPNBAHC@?$AA@     0047e5ed     stb_image.obj
 0003:000025f0       ??_C@_0O@MGDACKOJ@no?5clear?5code?$AA@ 0047e5f0     stb_image.obj
 0003:00002600       ??_C@_0P@GJNJCPDJ@too?5many?5codes?$AA@ 0047e600     stb_image.obj
 0003:00002614       ??_C@_0BH@LOKBIIOJ@illegal?5code?5in?5raster?$AA@ 0047e614     stb_image.obj
 0003:00002630       ??_C@_0BF@GIAALCNJ@bad?5Image?5Descriptor?$AA@ 0047e630     stb_image.obj
 0003:0000264c       ??_C@_0BE@NAMJKDNF@missing?5color?5table?$AA@ 0047e64c     stb_image.obj
 0003:00002664       ??_C@_0N@DJABBOOH@unknown?5code?$AA@ 0047e664     stb_image.obj
 0003:00002674       ??_C@_0M@HOIDFNFN@?$CD?$DPRADIANCE?6?$AA@ 0047e674     stb_image.obj
 0003:00002684       ??_C@_0L@NCPEAJBD@?$CD?$DPRADIANCE?$AA@ 0047e684     stb_image.obj
 0003:00002694       ??_C@_07NCIOKENI@not?5HDR?$AA@ 0047e694     stb_image.obj
 0003:000026a0       ??_C@_0BH@JFGBLLKC@FORMAT?$DN32?9bit_rle_rgbe?$AA@ 0047e6a0     stb_image.obj
 0003:000026bc       ??_C@_0BD@NKJFFLKL@unsupported?5format?$AA@ 0047e6bc     stb_image.obj
 0003:000026d4       ??_C@_03HKAKGGJN@?9Y?5?$AA@ 0047e6d4     stb_image.obj
 0003:000026d8       ??_C@_0BI@DCNDPIOH@unsupported?5data?5layout?$AA@ 0047e6d8     stb_image.obj
 0003:000026f4       ??_C@_03FOKDFDHG@?$CLX?5?$AA@ 0047e6f4     stb_image.obj
 0003:000026f8       ??_C@_0CA@JBEOCDFN@invalid?5decoded?5scanline?5length?$AA@ 0047e6f8     stb_image.obj
 0003:00002720       __real@437f0000            0047e720     stb_image.obj
 0003:00002728       ??_C@_1KE@ONLAKOIE@?$AAc?$AA?3?$AA?2?$AAu?$AAs?$AAe?$AAr?$AAs?$AA?2?$AAl?$AAu?$AAc?$AAy?$AA?2?$AAd?$AAo?$AAc?$AAu?$AAm?$AAe?$AAn?$AAt?$AAs?$AA?2?$AAs?$AAc?$AAh?$AAo?$AAo?$AAl?$AA?2?$AA2@ 0047e728     stb_image_write.obj
 0003:000027ec       ??_C@_02GMLFBBN@wb?$AA@    0047e7ec     stb_image_write.obj
 0003:000027f0       ??_C@_0BI@JMCBNFKL@11?54?522?544?544?522?5444444?$AA@ 0047e7f0     stb_image_write.obj
 0003:0000280c       ??_C@_0BA@BIJKEPCF@111?5221?52222?511?$AA@ 0047e80c     stb_image_write.obj
 0003:00002820       ??_C@_13LFIEIAHP@?$AAp?$AA?$AA@ 0047e820     stb_image_write.obj
 0003:00002824       ??_C@_1DE@OKDJHMNB@?$AAd?$AA?5?$AA?$DM?$AA?$DN?$AA?5?$AA3?$AA2?$AA7?$AA6?$AA7?$AA?5?$AA?$CG?$AA?$CG?$AA?5?$AAb?$AAe?$AAs?$AAt?$AA?5?$AA?$DM?$AA?$DN?$AA?5?$AA2?$AA5?$AA8?$AA?$AA@ 0047e824     stb_image_write.obj
 0003:00002864       ??_C@_04MNIAFIMC@IHDR?$AA@ 0047e864     stb_image_write.obj
 0003:0000286c       ??_C@_04NHMHICBH@IDAT?$AA@ 0047e86c     stb_image_write.obj
 0003:00002874       ??_C@_04COOFLABO@IEND?$AA@ 0047e874     stb_image_write.obj
 0003:0000287c       ??_C@_1CI@KALOIMLJ@?$AAo?$AA?5?$AA?$DN?$AA?$DN?$AA?5?$AAo?$AAu?$AAt?$AA?5?$AA?$CL?$AA?5?$AA?$CK?$AAo?$AAu?$AAt?$AA_?$AAl?$AAe?$AAn?$AA?$AA@ 0047e87c     stb_image_write.obj
 0003:000028b0       ??_7Target3D@Gluvi@@6B@    0047e8b0     gluvi.obj
 0003:000028d8       ??_7TargetOrtho3D@Gluvi@@6B@ 0047e8d8     gluvi.obj
 0003:00002900       ??_7PanZoom2D@Gluvi@@6B@   0047e900     gluvi.obj
 0003:00002928       ??_7StaticText@Gluvi@@6B@  0047e928     gluvi.obj
 0003:00002940       ??_7Button@Gluvi@@6B@      0047e940     gluvi.obj
 0003:0000295c       ??_7Slider@Gluvi@@6B@      0047e95c     gluvi.obj
 0003:00002978       ??_7WidgetList@Gluvi@@6B@  0047e978     gluvi.obj
 0003:0000298c       ??_C@_09GMIGFDOL@Clipping?5?$AA@ 0047e98c     gluvi.obj
 0003:00002998       ??_C@_0CA@KCJKHBLK@Projection?5?$CCperspective?$CC?5?$CCfov?$CC?5?$AA@ 0047e998     gluvi.obj
 0003:000029c0       ??_C@_0BD@JEHAHFOO@ReverseOrientation?$AA@ 0047e9c0     gluvi.obj
 0003:000029d8       ??_C@_0N@GNAHBAFI@Scale?51?51?5?91?$AA@ 0047e9d8     gluvi.obj
 0003:000029e8       ??_C@_0P@JEAJNMBD@Translate?50?50?5?$AA@ 0047e9e8     gluvi.obj
 0003:000029fc       ??_C@_06LEOJGKKD@?51?50?50?$AA@ 0047e9fc     gluvi.obj
 0003:00002a04       ??_C@_07PLAEODKJ@Rotate?5?$AA@ 0047ea04     gluvi.obj
 0003:00002a10       ??_C@_06MHAJNOGD@?50?51?50?$AA@ 0047ea10     gluvi.obj
 0003:00002a18       ??_C@_0L@BJPLNDLG@Translate?5?$AA@ 0047ea18     gluvi.obj
 0003:00002a28       ??_C@_0BK@CPNOIOK@Projection?5?$CCorthographic?$CC?$AA@ 0047ea28     gluvi.obj
 0003:00002a48       ??_C@_0BA@FDJAOOAN@Clipping?51?52000?$AA@ 0047ea48     gluvi.obj
 0003:00002a5c       ??_C@_02POKOGHLP@?51?$AA@  0047ea5c     gluvi.obj
 0003:00002a60       ??_C@_06PAPEJFHA@Scale?5?$AA@ 0047ea60     gluvi.obj
 0003:00002a68       ??_C@_05NONGOBJO@?51000?$AA@ 0047ea68     gluvi.obj
 0003:00002a70       ??_C@_05INMKHHOO@?5255?6?$AA@ 0047ea70     gluvi.obj
 0003:00002a78       ??_C@_03MPLPFOOJ@P6?6?$AA@ 0047ea78     gluvi.obj
 0003:00002a80       ??_C@_1KA@NDMKEPJN@?$AAc?$AA?3?$AA?2?$AAu?$AAs?$AAe?$AAr?$AAs?$AA?2?$AAl?$AAu?$AAc?$AAy?$AA?2?$AAd?$AAo?$AAc?$AAu?$AAm?$AAe?$AAn?$AAt?$AAs?$AA?2?$AAs?$AAc?$AAh?$AAo?$AAo?$AAl?$AA?2?$AA2@ 0047ea80     gluvi.obj
 0003:00002b40       __real@3e4ccccd            0047eb40     gluvi.obj
 0003:00002b44       __real@3f3504f3            0047eb44     gluvi.obj
 0003:00002b48       __real@3f4ccccd            0047eb48     gluvi.obj
 0003:00002b50       __real@3f60624dd2f1a9fc    0047eb50     gluvi.obj
 0003:00002b60       __real@3f7cac083126e979    0047eb60     gluvi.obj
 0003:00002b70       __real@3f9eb851eb851eb8    0047eb70     gluvi.obj
 0003:00002b7c       __real@3fb504f3            0047eb7c     gluvi.obj
 0003:00002b80       __real@3fb999999999999a    0047eb80     gluvi.obj
 0003:00002b8c       __real@3fc90fdb            0047eb8c     gluvi.obj
 0003:00002b90       __real@3fe6666666666666    0047eb90     gluvi.obj
 0003:00002ba0       __real@3feccccccccccccd    0047eba0     gluvi.obj
 0003:00002bb0       __real@3ff921fb60000000    0047ebb0     gluvi.obj
 0003:00002bbc       __real@40490fdb            0047ebbc     gluvi.obj
 0003:00002bc0       __real@40c90fdb            0047ebc0     gluvi.obj
 0003:00002bc4       __real@42000000            0047ebc4     gluvi.obj
 0003:00002bc8       __real@bf800000            0047ebc8     gluvi.obj
 0003:00002bcc       __real@bfc90fdb            0047ebcc     gluvi.obj
 0003:00002bd0       __real@bff921fb60000000    0047ebd0     gluvi.obj
 0003:00002bdc       __real@c0490fdb            0047ebdc     gluvi.obj
 0003:00002be0       __real@c2652ee0            0047ebe0     gluvi.obj
 0003:00002be8       ??_7type_info@@6B@         0047ebe8     MSVCRT:ti_inst.obj
 0003:00002bfc       ?ProcessDetach@NativeDll@<CrtImplementationDetails>@@0IB 0047ebfc     MSVCRT:unhandld.obj
 0003:00002c00       ?ProcessAttach@NativeDll@<CrtImplementationDetails>@@0IB 0047ec00     MSVCRT:unhandld.obj
 0003:00002c04       ?ThreadAttach@NativeDll@<CrtImplementationDetails>@@0IB 0047ec04     MSVCRT:unhandld.obj
 0003:00002c08       ?ThreadDetach@NativeDll@<CrtImplementationDetails>@@0IB 0047ec08     MSVCRT:unhandld.obj
 0003:00002c0c       ?ProcessVerifier@NativeDll@<CrtImplementationDetails>@@0IB 0047ec0c     MSVCRT:unhandld.obj
 0003:00002c10       __load_config_used         0047ec10     MSVCRT:loadcfg.obj
 0003:00003070       ??_R1A@?0A@EA@exception@std@@8 0047f070     fluidsim.obj
 0003:00003094       ??_R3exception@std@@8      0047f094     fluidsim.obj
 0003:000030a8       ??_R2exception@std@@8      0047f0a8     fluidsim.obj
 0003:000030b0       ??_R4bad_alloc@std@@6B@    0047f0b0     fluidsim.obj
 0003:000030c8       ??_R3bad_alloc@std@@8      0047f0c8     fluidsim.obj
 0003:000030dc       ??_R2bad_alloc@std@@8      0047f0dc     fluidsim.obj
 0003:000030e8       ??_R1A@?0A@EA@bad_alloc@std@@8 0047f0e8     fluidsim.obj
 0003:0000310c       ??_R4?$basic_stringbuf@DU?$char_traits@D@std@@V?$allocator@D@2@@std@@6B@ 0047f10c     fluidsim.obj
 0003:00003124       ??_R3?$basic_stringbuf@DU?$char_traits@D@std@@V?$allocator@D@2@@std@@8 0047f124     fluidsim.obj
 0003:00003138       ??_R2?$basic_stringbuf@DU?$char_traits@D@std@@V?$allocator@D@2@@std@@8 0047f138     fluidsim.obj
 0003:00003144       ??_R1A@?0A@EA@?$basic_stringbuf@DU?$char_traits@D@std@@V?$allocator@D@2@@std@@8 0047f144     fluidsim.obj
 0003:00003168       ??_R1A@?0A@EA@?$basic_streambuf@DU?$char_traits@D@std@@@std@@8 0047f168     fluidsim.obj
 0003:0000318c       ??_R3?$basic_streambuf@DU?$char_traits@D@std@@@std@@8 0047f18c     fluidsim.obj
 0003:000031a0       ??_R2?$basic_streambuf@DU?$char_traits@D@std@@@std@@8 0047f1a0     fluidsim.obj
 0003:000031a8       ??_R4?$basic_stringstream@DU?$char_traits@D@std@@V?$allocator@D@2@@std@@6B@ 0047f1a8     fluidsim.obj
 0003:000031c0       ??_R3?$basic_stringstream@DU?$char_traits@D@std@@V?$allocator@D@2@@std@@8 0047f1c0     fluidsim.obj
 0003:000031d4       ??_R2?$basic_stringstream@DU?$char_traits@D@std@@V?$allocator@D@2@@std@@8 0047f1d4     fluidsim.obj
 0003:00003208       ??_R1A@?0A@EA@?$basic_stringstream@DU?$char_traits@D@std@@V?$allocator@D@2@@std@@8 0047f208     fluidsim.obj
 0003:0000322c       ??_R1A@?0A@EA@?$basic_iostream@DU?$char_traits@D@std@@@std@@8 0047f22c     fluidsim.obj
 0003:00003250       ??_R3?$basic_iostream@DU?$char_traits@D@std@@@std@@8 0047f250     fluidsim.obj
 0003:00003264       ??_R2?$basic_iostream@DU?$char_traits@D@std@@@std@@8 0047f264     fluidsim.obj
 0003:00003290       ??_R1A@?0A@EA@?$basic_istream@DU?$char_traits@D@std@@@std@@8 0047f290     fluidsim.obj
 0003:000032b4       ??_R3?$basic_istream@DU?$char_traits@D@std@@@std@@8 0047f2b4     fluidsim.obj
 0003:000032c8       ??_R2?$basic_istream@DU?$char_traits@D@std@@@std@@8 0047f2c8     fluidsim.obj
 0003:000032dc       ??_R1A@A@3FA@?$basic_ios@DU?$char_traits@D@std@@@std@@8 0047f2dc     fluidsim.obj
 0003:00003300       ??_R3?$basic_ios@DU?$char_traits@D@std@@@std@@8 0047f300     fluidsim.obj
 0003:00003314       ??_R2?$basic_ios@DU?$char_traits@D@std@@@std@@8 0047f314     fluidsim.obj
 0003:00003324       ??_R1A@?0A@EA@?$basic_ios@DU?$char_traits@D@std@@@std@@8 0047f324     fluidsim.obj
 0003:00003348       ??_R1A@?0A@EA@ios_base@std@@8 0047f348     fluidsim.obj
 0003:0000336c       ??_R3ios_base@std@@8       0047f36c     fluidsim.obj
 0003:00003380       ??_R2ios_base@std@@8       0047f380     fluidsim.obj
 0003:0000338c       ??_R17?0A@EA@?$_Iosb@H@std@@8 0047f38c     fluidsim.obj
 0003:000033b0       ??_R3?$_Iosb@H@std@@8      0047f3b0     fluidsim.obj
 0003:000033c4       ??_R2?$_Iosb@H@std@@8      0047f3c4     fluidsim.obj
 0003:000033cc       ??_R1A@?0A@EA@?$_Iosb@H@std@@8 0047f3cc     fluidsim.obj
 0003:000033f0       ??_R1A@A@3EA@ios_base@std@@8 0047f3f0     fluidsim.obj
 0003:00003414       ??_R17A@3EA@?$_Iosb@H@std@@8 0047f414     fluidsim.obj
 0003:00003438       ??_R1BA@?0A@EA@?$basic_ostream@DU?$char_traits@D@std@@@std@@8 0047f438     fluidsim.obj
 0003:0000345c       ??_R3?$basic_ostream@DU?$char_traits@D@std@@@std@@8 0047f45c     fluidsim.obj
 0003:00003470       ??_R2?$basic_ostream@DU?$char_traits@D@std@@@std@@8 0047f470     fluidsim.obj
 0003:00003484       ??_R1A@?0A@EA@?$basic_ostream@DU?$char_traits@D@std@@@std@@8 0047f484     fluidsim.obj
 0003:000034a8       ??_R4?$basic_filebuf@DU?$char_traits@D@std@@@std@@6B@ 0047f4a8     fluidsim.obj
 0003:000034c0       ??_R3?$basic_filebuf@DU?$char_traits@D@std@@@std@@8 0047f4c0     fluidsim.obj
 0003:000034d4       ??_R2?$basic_filebuf@DU?$char_traits@D@std@@@std@@8 0047f4d4     fluidsim.obj
 0003:000034e0       ??_R1A@?0A@EA@?$basic_filebuf@DU?$char_traits@D@std@@@std@@8 0047f4e0     fluidsim.obj
 0003:00003504       ??_R4?$basic_ifstream@DU?$char_traits@D@std@@@std@@6B@ 0047f504     fluidsim.obj
 0003:0000351c       ??_R3?$basic_ifstream@DU?$char_traits@D@std@@@std@@8 0047f51c     fluidsim.obj
 0003:00003530       ??_R2?$basic_ifstream@DU?$char_traits@D@std@@@std@@8 0047f530     fluidsim.obj
 0003:0000354c       ??_R1A@?0A@EA@?$basic_ifstream@DU?$char_traits@D@std@@@std@@8 0047f54c     fluidsim.obj
 0003:00003570       ??_R4?$basic_ofstream@DU?$char_traits@D@std@@@std@@6B@ 0047f570     fluidsim.obj
 0003:00003588       ??_R3?$basic_ofstream@DU?$char_traits@D@std@@@std@@8 0047f588     fluidsim.obj
 0003:0000359c       ??_R2?$basic_ofstream@DU?$char_traits@D@std@@@std@@8 0047f59c     fluidsim.obj
 0003:000035b8       ??_R1A@?0A@EA@?$basic_ofstream@DU?$char_traits@D@std@@@std@@8 0047f5b8     fluidsim.obj
 0003:000035dc       ??_R4error_category@std@@6B@ 0047f5dc     fluidsim.obj
 0003:000035f4       ??_R3error_category@std@@8 0047f5f4     fluidsim.obj
 0003:00003608       ??_R2error_category@std@@8 0047f608     fluidsim.obj
 0003:00003610       ??_R1A@?0A@EA@error_category@std@@8 0047f610     fluidsim.obj
 0003:00003634       ??_R4_Generic_error_category@std@@6B@ 0047f634     fluidsim.obj
 0003:0000364c       ??_R3_Generic_error_category@std@@8 0047f64c     fluidsim.obj
 0003:00003660       ??_R2_Generic_error_category@std@@8 0047f660     fluidsim.obj
 0003:0000366c       ??_R1A@?0A@EA@_Generic_error_category@std@@8 0047f66c     fluidsim.obj
 0003:00003690       ??_R4_Iostream_error_category@std@@6B@ 0047f690     fluidsim.obj
 0003:000036a8       ??_R3_Iostream_error_category@std@@8 0047f6a8     fluidsim.obj
 0003:000036bc       ??_R2_Iostream_error_category@std@@8 0047f6bc     fluidsim.obj
 0003:000036cc       ??_R1A@?0A@EA@_Iostream_error_category@std@@8 0047f6cc     fluidsim.obj
 0003:000036f0       ??_R4_System_error_category@std@@6B@ 0047f6f0     fluidsim.obj
 0003:00003708       ??_R3_System_error_category@std@@8 0047f708     fluidsim.obj
 0003:0000371c       ??_R2_System_error_category@std@@8 0047f71c     fluidsim.obj
 0003:0000372c       ??_R1A@?0A@EA@_System_error_category@std@@8 0047f72c     fluidsim.obj
 0003:00003750       ??_R4Camera@Gluvi@@6B@     0047f750     main.obj
 0003:00003768       ??_R3Camera@Gluvi@@8       0047f768     main.obj
 0003:0000377c       ??_R2Camera@Gluvi@@8       0047f77c     main.obj
 0003:00003784       ??_R1A@?0A@EA@Camera@Gluvi@@8 0047f784     main.obj
 0003:000037a8       ??_R4Widget@Gluvi@@6B@     0047f7a8     main.obj
 0003:000037c0       ??_R3Widget@Gluvi@@8       0047f7c0     main.obj
 0003:000037d4       ??_R2Widget@Gluvi@@8       0047f7d4     main.obj
 0003:000037dc       ??_R1A@?0A@EA@Widget@Gluvi@@8 0047f7dc     main.obj
 0003:00003800       ??_R4?$basic_istringstream@DU?$char_traits@D@std@@V?$allocator@D@2@@std@@6B@ 0047f800     objloader.obj
 0003:00003818       ??_R3?$basic_istringstream@DU?$char_traits@D@std@@V?$allocator@D@2@@std@@8 0047f818     objloader.obj
 0003:0000382c       ??_R2?$basic_istringstream@DU?$char_traits@D@std@@V?$allocator@D@2@@std@@8 0047f82c     objloader.obj
 0003:00003848       ??_R1A@?0A@EA@?$basic_istringstream@DU?$char_traits@D@std@@V?$allocator@D@2@@std@@8 0047f848     objloader.obj
 0003:0000386c       ??_R4Target3D@Gluvi@@6B@   0047f86c     gluvi.obj
 0003:00003884       ??_R3Target3D@Gluvi@@8     0047f884     gluvi.obj
 0003:00003898       ??_R2Target3D@Gluvi@@8     0047f898     gluvi.obj
 0003:000038a4       ??_R1A@?0A@EA@Target3D@Gluvi@@8 0047f8a4     gluvi.obj
 0003:000038c8       ??_R4TargetOrtho3D@Gluvi@@6B@ 0047f8c8     gluvi.obj
 0003:000038e0       ??_R3TargetOrtho3D@Gluvi@@8 0047f8e0     gluvi.obj
 0003:000038f4       ??_R2TargetOrtho3D@Gluvi@@8 0047f8f4     gluvi.obj
 0003:00003900       ??_R1A@?0A@EA@TargetOrtho3D@Gluvi@@8 0047f900     gluvi.obj
 0003:00003924       ??_R4PanZoom2D@Gluvi@@6B@  0047f924     gluvi.obj
 0003:0000393c       ??_R3PanZoom2D@Gluvi@@8    0047f93c     gluvi.obj
 0003:00003950       ??_R2PanZoom2D@Gluvi@@8    0047f950     gluvi.obj
 0003:0000395c       ??_R1A@?0A@EA@PanZoom2D@Gluvi@@8 0047f95c     gluvi.obj
 0003:00003980       ??_R4StaticText@Gluvi@@6B@ 0047f980     gluvi.obj
 0003:00003998       ??_R3StaticText@Gluvi@@8   0047f998     gluvi.obj
 0003:000039ac       ??_R2StaticText@Gluvi@@8   0047f9ac     gluvi.obj
 0003:000039b8       ??_R1A@?0A@EA@StaticText@Gluvi@@8 0047f9b8     gluvi.obj
 0003:000039dc       ??_R4Button@Gluvi@@6B@     0047f9dc     gluvi.obj
 0003:000039f4       ??_R3Button@Gluvi@@8       0047f9f4     gluvi.obj
 0003:00003a08       ??_R2Button@Gluvi@@8       0047fa08     gluvi.obj
 0003:00003a14       ??_R1A@?0A@EA@Button@Gluvi@@8 0047fa14     gluvi.obj
 0003:00003a38       ??_R4Slider@Gluvi@@6B@     0047fa38     gluvi.obj
 0003:00003a50       ??_R3Slider@Gluvi@@8       0047fa50     gluvi.obj
 0003:00003a64       ??_R2Slider@Gluvi@@8       0047fa64     gluvi.obj
 0003:00003a70       ??_R1A@?0A@EA@Slider@Gluvi@@8 0047fa70     gluvi.obj
 0003:00003a94       ??_R4WidgetList@Gluvi@@6B@ 0047fa94     gluvi.obj
 0003:00003aac       ??_R3WidgetList@Gluvi@@8   0047faac     gluvi.obj
 0003:00003ac0       ??_R2WidgetList@Gluvi@@8   0047fac0     gluvi.obj
 0003:00003acc       ??_R1A@?0A@EA@WidgetList@Gluvi@@8 0047facc     gluvi.obj
 0003:00003af0       ??_R4type_info@@6B@        0047faf0     MSVCRT:ti_inst.obj
 0003:00003b08       ??_R3type_info@@8          0047fb08     MSVCRT:ti_inst.obj
 0003:00003b1c       ??_R2type_info@@8          0047fb1c     MSVCRT:ti_inst.obj
 0003:00003b24       ??_R1A@?0A@EA@type_info@@8 0047fb24     MSVCRT:ti_inst.obj
 0003:00003c90       ___rtc_iaa                 0047fc90     MSVCRT:initsect.obj
 0003:00003d94       ___rtc_izz                 0047fd94     MSVCRT:initsect.obj
 0003:00003e98       ___rtc_taa                 0047fe98     MSVCRT:initsect.obj
 0003:00003f9c       ___rtc_tzz                 0047ff9c     MSVCRT:initsect.obj
 0003:000052f0       __CT??_R0?AVexception@std@@@8??0exception@std@@QAE@ABV01@@Z12 004812f0     fluidsim.obj
 0003:00005310       __TI2?AVbad_alloc@std@@    00481310     fluidsim.obj
 0003:00005324       __CTA2?AVbad_alloc@std@@   00481324     fluidsim.obj
 0003:00005334       __CT??_R0?AVbad_alloc@std@@@8??0bad_alloc@std@@QAE@ABV01@@Z12 00481334     fluidsim.obj
 0003:00005354       __TI2?AVbad_cast@std@@     00481354     fluidsim.obj
 0003:00005368       __CTA2?AVbad_cast@std@@    00481368     fluidsim.obj
 0003:00005378       __CT??_R0?AVbad_cast@std@@@8??0bad_cast@std@@QAE@ABV01@@Z12 00481378     fluidsim.obj
 0004:00000000       ??_R0?AVexception@std@@@8  00483000     fluidsim.obj
 0004:00000024       ??_R0?AVbad_alloc@std@@@8  00483024     fluidsim.obj
 0004:00000048       ??_R0?AVbad_cast@std@@@8   00483048     fluidsim.obj
 0004:00000068       ??_R0?AV?$basic_stringbuf@DU?$char_traits@D@std@@V?$allocator@D@2@@std@@@8 00483068     fluidsim.obj
 0004:000000c4       ??_R0?AV?$basic_streambuf@DU?$char_traits@D@std@@@std@@@8 004830c4     fluidsim.obj
 0004:00000110       ??_R0?AV?$basic_stringstream@DU?$char_traits@D@std@@V?$allocator@D@2@@std@@@8 00483110     fluidsim.obj
 0004:00000170       ??_R0?AV?$basic_iostream@DU?$char_traits@D@std@@@std@@@8 00483170     fluidsim.obj
 0004:000001b8       ??_R0?AV?$basic_istream@DU?$char_traits@D@std@@@std@@@8 004831b8     fluidsim.obj
 0004:00000200       ??_R0?AV?$basic_ios@DU?$char_traits@D@std@@@std@@@8 00483200     fluidsim.obj
 0004:00000240       ??_R0?AVios_base@std@@@8   00483240     fluidsim.obj
 0004:00000260       ??_R0?AV?$_Iosb@H@std@@@8  00483260     fluidsim.obj
 0004:00000284       ??_R0?AV?$basic_ostream@DU?$char_traits@D@std@@@std@@@8 00483284     fluidsim.obj
 0004:000002cc       ??_R0?AV?$basic_filebuf@DU?$char_traits@D@std@@@std@@@8 004832cc     fluidsim.obj
 0004:00000314       ??_R0?AV?$basic_ifstream@DU?$char_traits@D@std@@@std@@@8 00483314     fluidsim.obj
 0004:0000035c       ??_R0?AV?$basic_ofstream@DU?$char_traits@D@std@@@std@@@8 0048335c     fluidsim.obj
 0004:000003a4       ??_R0?AVerror_category@std@@@8 004833a4     fluidsim.obj
 0004:000003cc       ??_R0?AV_Generic_error_category@std@@@8 004833cc     fluidsim.obj
 0004:00000400       ??_R0?AV_Iostream_error_category@std@@@8 00483400     fluidsim.obj
 0004:00000434       ??_R0?AV_System_error_category@std@@@8 00483434     fluidsim.obj
 0004:00000468       ?grid_resolution@@3HA      00483468     main.obj
 0004:0000046c       ?timestep@@3MA             0048346c     main.obj
 0004:00000470       ?grid_width@@3MA           00483470     main.obj
 0004:00000474       ?running@@3_NA             00483474     main.obj
 0004:00000478       ?rad0@@3MA                 00483478     main.obj
 0004:00000480       ??_R0?AUCamera@Gluvi@@@8   00483480     main.obj
 0004:000004a0       ??_R0?AUWidget@Gluvi@@@8   004834a0     main.obj
 0004:000004c0       ?__LINE__Var@?1??point_in_triangle_2d@@YA_NNNNNNNNNAAN00@Z@4JA@0e8116aa 004834c0     makelevelset3.obj
 0004:000004c8       ??_R0?AV?$basic_istringstream@DU?$char_traits@D@std@@V?$allocator@D@2@@std@@@8 004834c8     objloader.obj
 0004:000008ac       ?__LINE__Var@?1??convert_format@@9@9@a12ebaf3 004838ac     stb_image.obj
 0004:000008b0       ?__LINE__Var@?1??decode@@9@9@a12ebaf3 004838b0     stb_image.obj
 0004:000008b4       ?__LINE__Var@?1??bit_reverse@@9@9@a12ebaf3 004838b4     stb_image.obj
 0004:000008b8       ?__LINE__Var@?1??zbuild_huffman@@9@9@a12ebaf3 004838b8     stb_image.obj
 0004:000008bc       ?__LINE__Var@?1??fill_bits@@9@9@a12ebaf3 004838bc     stb_image.obj
 0004:000008c0       ?__LINE__Var@?1??zhuffman_decode@@9@9@a12ebaf3 004838c0     stb_image.obj
 0004:000008c4       ?__LINE__Var@?1??compute_huffman_codes@@9@9@a12ebaf3 004838c4     stb_image.obj
 0004:000008c8       ?__LINE__Var@?1??parse_uncompressed_block@@9@9@a12ebaf3 004838c8     stb_image.obj
 0004:000008cc       ?__LINE__Var@?1??create_png_image_raw@@9@9@a12ebaf3 004838cc     stb_image.obj
 0004:000008d0       ?__LINE__Var@?1??compute_transparency@@9@9@a12ebaf3 004838d0     stb_image.obj
 0004:000008d4       ?__LINE__Var@?1??stbi_de_iphone@@9@9@a12ebaf3 004838d4     stb_image.obj
 0004:000008d8       ?__LINE__Var@?1??bmp_load@@9@9@a12ebaf3 004838d8     stb_image.obj
 0004:000009f0       ?__LINE__Var@?1??writefv@@9@9@057803b3 004839f0     stb_image_write.obj
 0004:000009f4       ?__LINE__Var@?1??stbi__sbgrowf@@9@9@057803b3 004839f4     stb_image_write.obj
 0004:000009f8       ?__LINE__Var@?1??stbi_zlib_compress@@9@9 004839f8     stb_image_write.obj
 0004:000009fc       ?__LINE__Var@?1??stbi_write_png_to_mem@@9@9 004839fc     stb_image_write.obj
 0004:00000a00       ?winwidth@Gluvi@@3HA       00483a00     gluvi.obj
 0004:00000a04       ?winheight@Gluvi@@3HA      00483a04     gluvi.obj
 0004:00000a0c       ??_R0?AUTarget3D@Gluvi@@@8 00483a0c     gluvi.obj
 0004:00000a30       ??_R0?AUTargetOrtho3D@Gluvi@@@8 00483a30     gluvi.obj
 0004:00000a58       ??_R0?AUPanZoom2D@Gluvi@@@8 00483a58     gluvi.obj
 0004:00000a7c       ??_R0?AUStaticText@Gluvi@@@8 00483a7c     gluvi.obj
 0004:00000aa4       ??_R0?AUButton@Gluvi@@@8   00483aa4     gluvi.obj
 0004:00000ac4       ??_R0?AUSlider@Gluvi@@@8   00483ac4     gluvi.obj
 0004:00000ae4       ??_R0?AUWidgetList@Gluvi@@@8 00483ae4     gluvi.obj
 0004:00000b0c       ??_R0?AVtype_info@@@8      00483b0c     MSVCRT:ti_inst.obj
 0004:00000b28       ___security_cookie         00483b28     MSVCRT:gs_cookie.obj
 0004:00000b2c       ___security_cookie_complement 00483b2c     MSVCRT:gs_cookie.obj
 0004:00000b30       ___isa_enabled             00483b30     MSVCRT:cpu_disp.obj
 0004:00000b34       ___defaultmatherr          00483b34     MSVCRT:merr.obj
 0004:00000b38       ___globallocalestatus      00483b38     MSVCRT:xthdloc.obj
 0004:00000b3c       ___native_dllmain_reason   00483b3c     MSVCRT:natstart.obj
 0004:00000c74       ?_Generic_object@?$_Error_objects@H@std@@2V_Generic_error_category@2@A 00483c74     fluidsim.obj
 0004:00000c78       ?_Iostream_object@?$_Error_objects@H@std@@2V_Iostream_error_category@2@A 00483c78     fluidsim.obj
 0004:00000c7c       ?_System_object@?$_Error_objects@H@std@@2V_System_error_category@2@A 00483c7c     fluidsim.obj
 0004:00000c80       ?id@?$num_put@DV?$back_insert_iterator@V?$basic_string@DU?$char_traits@D@std@@V?$allocator@D@2@@std@@@std@@@std@@2V0locale@2@A 00483c80     fluidsim.obj
 0004:00000c84       ?id@?$num_put@_WV?$back_insert_iterator@V?$basic_string@_WU?$char_traits@_W@std@@V?$allocator@_W@2@@std@@@std@@@std@@2V0locale@2@A 00483c84     fluidsim.obj
 0004:00000c88       ?_Stinit@?1??_Init@?$basic_filebuf@DU?$char_traits@D@std@@@std@@IAEXPAU_iobuf@@W4_Initfl@23@@Z@4HA 00483c88     fluidsim.obj
 0004:00000c8c       ?_Psave@?$_Facetptr@V?$codecvt@DDH@std@@@std@@2PBVfacet@locale@2@B 00483c8c     fluidsim.obj
 0004:00000c90       ?frame@@3HA                00483c90     main.obj
 0004:00000c94       ?filming@@3_NA             00483c94     main.obj
 0004:00000c98       ?particle_radius@@3MA      00483c98     main.obj
 0004:00000c9c       ?solidBoundary@@3PAVobj@@A 00483c9c     main.obj
 0004:00000ca0       ?sim@@3VFluidSim@@A        00483ca0     main.obj
 0004:00000f30       ?frame_number@@3V?$basic_string@DU?$char_traits@D@std@@V?$allocator@D@2@@std@@A 00483f30     main.obj
 0004:00000f48       ?c0@@3U?$Vec@$02M@@A       00483f48     main.obj
 0004:00000f58       ?particle_positions@@3V?$vector@U?$Vec@$02M@@V?$allocator@U?$Vec@$02M@@@std@@@std@@A 00483f58     main.obj
 0004:00000f64       ?outpath@@3V?$basic_string@DU?$char_traits@D@std@@V?$allocator@D@2@@std@@A 00483f64     main.obj
 0004:0000167c       ?camera@Gluvi@@3PAUCamera@1@A 0048467c     gluvi.obj
 0004:00001684       ?userDisplayFunc@Gluvi@@3P6AXXZA 00484684     gluvi.obj
 0004:00001688       ?userMouseFunc@Gluvi@@3P6AXHHHH@ZA 00484688     gluvi.obj
 0004:0000168c       ?userDragFunc@Gluvi@@3P6AXHH@ZA 0048468c     gluvi.obj
 0004:00001694       ?root@Gluvi@@3UWidgetList@1@A 00484694     gluvi.obj
 0004:00001ac0       ___isa_available           00484ac0     MSVCRT:cpu_disp.obj
 0004:00001ac4       ___favor                   00484ac4     MSVCRT:cpu_disp.obj
 0004:00001acc       __commode                  00484acc     MSVCRT:xncommod.obj
 0004:00001ad0       __dowildcard               00484ad0     MSVCRT:wildcard.obj
 0004:00001ad4       __newmode                  00484ad4     MSVCRT:_newmode.obj
 0004:00001ad8       __fmode                    00484ad8     MSVCRT:xtxtmode.obj
 0004:00001adc       _stbi_png_partial          00484adc     <common>
 0004:00001ae8       ___native_startup_lock     00484ae8     <common>
 0004:00001af8       ___native_startup_state    00484af8     <common>
 0004:00001afc       ___dyn_tls_init_callback   00484afc     <common>
 0004:00001b0c       ___onexitend               00484b0c     <common>
 0004:00001b1c       ___onexitbegin             00484b1c     <common>
 0005:00000000       __IMPORT_DESCRIPTOR_OPENGL32 00485000     opengl32:OPENGL32.dll
 0005:00000014       __IMPORT_DESCRIPTOR_GLU32  00485014     glu32:GLU32.dll
 0005:00000028       __IMPORT_DESCRIPTOR_glut32 00485028     glut32:glut32.dll
 0005:0000003c       __IMPORT_DESCRIPTOR_MSVCP110 0048503c     msvcprt:MSVCP110.dll
 0005:00000050       __IMPORT_DESCRIPTOR_MSVCR110 00485050     MSVCRT:MSVCR110.dll
 0005:00000064       __IMPORT_DESCRIPTOR_KERNEL32 00485064     kernel32:KERNEL32.dll
 0005:00000078       __NULL_IMPORT_DESCRIPTOR   00485078     opengl32:OPENGL32.dll
 0005:00000630       __imp__gluQuadricDrawStyle@8 00485630     glu32:GLU32.dll
 0005:00000634       __imp__gluSphere@20        00485634     glu32:GLU32.dll
 0005:00000638       __imp__gluOrtho2D@32       00485638     glu32:GLU32.dll
 0005:0000063c       __imp__gluPerspective@32   0048563c     glu32:GLU32.dll
 0005:00000640       __imp__gluNewQuadric@0     00485640     glu32:GLU32.dll
 0005:00000644       \177GLU32_NULL_THUNK_DATA  00485644     glu32:GLU32.dll
 0005:00000674       __imp__IsProcessorFeaturePresent@4 00485674     kernel32:KERNEL32.dll
 0005:00000678       __imp__EncodePointer@4     00485678     kernel32:KERNEL32.dll
 0005:0000067c       __imp__QueryPerformanceCounter@4 0048567c     kernel32:KERNEL32.dll
 0005:00000680       __imp__GetCurrentProcessId@0 00485680     kernel32:KERNEL32.dll
 0005:00000684       __imp__GetCurrentThreadId@0 00485684     kernel32:KERNEL32.dll
 0005:00000688       __imp__GetSystemTimeAsFileTime@4 00485688     kernel32:KERNEL32.dll
 0005:0000068c       __imp__DecodePointer@4     0048568c     kernel32:KERNEL32.dll
 0005:00000690       __imp__IsDebuggerPresent@0 00485690     kernel32:KERNEL32.dll
 0005:00000694       \177KERNEL32_NULL_THUNK_DATA 00485694     kernel32:KERNEL32.dll
 0005:000006c4       __imp_??6?$basic_ostream@DU?$char_traits@D@std@@@std@@QAEAAV01@I@Z 004856c4     msvcprt:MSVCP110.dll
 0005:000006c8       __imp_?cerr@std@@3V?$basic_ostream@DU?$char_traits@D@std@@@1@A 004856c8     msvcprt:MSVCP110.dll
 0005:000006cc       __imp_?cout@std@@3V?$basic_ostream@DU?$char_traits@D@std@@@1@A 004856cc     msvcprt:MSVCP110.dll
 0005:000006d0       __imp_?id@?$codecvt@DDH@std@@2V0locale@2@A 004856d0     msvcprt:MSVCP110.dll
 0005:000006d4       __imp_?_BADOFF@std@@3_JB   004856d4     msvcprt:MSVCP110.dll
 0005:000006d8       __imp_?xsputn@?$basic_streambuf@DU?$char_traits@D@std@@@std@@MAE_JPBD_J@Z 004856d8     msvcprt:MSVCP110.dll
 0005:000006dc       __imp_??Bios_base@std@@QBEPAXXZ 004856dc     msvcprt:MSVCP110.dll
 0005:000006e0       __imp_?uflow@?$basic_streambuf@DU?$char_traits@D@std@@@std@@MAEHXZ 004856e0     msvcprt:MSVCP110.dll
 0005:000006e4       __imp_?sync@?$basic_streambuf@DU?$char_traits@D@std@@@std@@MAEHXZ 004856e4     msvcprt:MSVCP110.dll
 0005:000006e8       __imp_?showmanyc@?$basic_streambuf@DU?$char_traits@D@std@@@std@@MAE_JXZ 004856e8     msvcprt:MSVCP110.dll
 0005:000006ec       __imp_?setbuf@?$basic_streambuf@DU?$char_traits@D@std@@@std@@MAEPAV12@PAD_J@Z 004856ec     msvcprt:MSVCP110.dll
 0005:000006f0       __imp_?imbue@?$basic_streambuf@DU?$char_traits@D@std@@@std@@MAEXABVlocale@2@@Z 004856f0     msvcprt:MSVCP110.dll
 0005:000006f4       __imp_?_Unlock@?$basic_streambuf@DU?$char_traits@D@std@@@std@@UAEXXZ 004856f4     msvcprt:MSVCP110.dll
 0005:000006f8       __imp_?_Lock@?$basic_streambuf@DU?$char_traits@D@std@@@std@@UAEXXZ 004856f8     msvcprt:MSVCP110.dll
 0005:000006fc       __imp_?_Add_vtordisp2@?$basic_ios@DU?$char_traits@D@std@@@std@@UAEXXZ 004856fc     msvcprt:MSVCP110.dll
 0005:00000700       __imp_?_Add_vtordisp1@?$basic_ios@DU?$char_traits@D@std@@@std@@UAEXXZ 00485700     msvcprt:MSVCP110.dll
 0005:00000704       __imp_?_Fiopen@std@@YAPAU_iobuf@@PBDHH@Z 00485704     msvcprt:MSVCP110.dll
 0005:00000708       __imp_??1?$basic_iostream@DU?$char_traits@D@std@@@std@@UAE@XZ 00485708     msvcprt:MSVCP110.dll
 0005:0000070c       __imp_??0?$basic_iostream@DU?$char_traits@D@std@@@std@@QAE@PAV?$basic_streambuf@DU?$char_traits@D@std@@@1@@Z 0048570c     msvcprt:MSVCP110.dll
 0005:00000710       __imp_??5?$basic_istream@DU?$char_traits@D@std@@@std@@QAEAAV01@AAM@Z 00485710     msvcprt:MSVCP110.dll
 0005:00000714       __imp_?_Ipfx@?$basic_istream@DU?$char_traits@D@std@@@std@@QAE_N_N@Z 00485714     msvcprt:MSVCP110.dll
 0005:00000718       __imp_?clear@?$basic_ios@DU?$char_traits@D@std@@@std@@QAEXH_N@Z 00485718     msvcprt:MSVCP110.dll
 0005:0000071c       __imp_??6?$basic_ostream@DU?$char_traits@D@std@@@std@@QAEAAV01@N@Z 0048571c     msvcprt:MSVCP110.dll
 0005:00000720       __imp_?put@?$basic_ostream@DU?$char_traits@D@std@@@std@@QAEAAV12@D@Z 00485720     msvcprt:MSVCP110.dll
 0005:00000724       __imp_?write@?$basic_ostream@DU?$char_traits@D@std@@@std@@QAEAAV12@PBD_J@Z 00485724     msvcprt:MSVCP110.dll
 0005:00000728       __imp_?xsgetn@?$basic_streambuf@DU?$char_traits@D@std@@@std@@MAE_JPAD_J@Z 00485728     msvcprt:MSVCP110.dll
 0005:0000072c       __imp_?_Add_vtordisp1@?$basic_istream@DU?$char_traits@D@std@@@std@@UAEXXZ 0048572c     msvcprt:MSVCP110.dll
 0005:00000730       __imp_??1?$basic_istream@DU?$char_traits@D@std@@@std@@UAE@XZ 00485730     msvcprt:MSVCP110.dll
 0005:00000734       __imp_??0?$basic_istream@DU?$char_traits@D@std@@@std@@QAE@PAV?$basic_streambuf@DU?$char_traits@D@std@@@1@_N@Z 00485734     msvcprt:MSVCP110.dll
 0005:00000738       __imp_?endl@std@@YAAAV?$basic_ostream@DU?$char_traits@D@std@@@1@AAV21@@Z 00485738     msvcprt:MSVCP110.dll
 0005:0000073c       __imp_?flush@?$basic_ostream@DU?$char_traits@D@std@@@std@@QAEAAV12@XZ 0048573c     msvcprt:MSVCP110.dll
 0005:00000740       __imp_??6?$basic_ostream@DU?$char_traits@D@std@@@std@@QAEAAV01@M@Z 00485740     msvcprt:MSVCP110.dll
 0005:00000744       __imp_??6?$basic_ostream@DU?$char_traits@D@std@@@std@@QAEAAV01@H@Z 00485744     msvcprt:MSVCP110.dll
 0005:00000748       __imp_??6?$basic_ostream@DU?$char_traits@D@std@@@std@@QAEAAV01@P6AAAV01@AAV01@@Z@Z 00485748     msvcprt:MSVCP110.dll
 0005:0000074c       __imp_?_Osfx@?$basic_ostream@DU?$char_traits@D@std@@@std@@QAEXXZ 0048574c     msvcprt:MSVCP110.dll
 0005:00000750       __imp_?_Add_vtordisp2@?$basic_ostream@DU?$char_traits@D@std@@@std@@UAEXXZ 00485750     msvcprt:MSVCP110.dll
 0005:00000754       __imp_??1?$basic_ostream@DU?$char_traits@D@std@@@std@@UAE@XZ 00485754     msvcprt:MSVCP110.dll
 0005:00000758       __imp_??0?$basic_ostream@DU?$char_traits@D@std@@@std@@QAE@PAV?$basic_streambuf@DU?$char_traits@D@std@@@1@_N@Z 00485758     msvcprt:MSVCP110.dll
 0005:0000075c       __imp_??0?$basic_ios@DU?$char_traits@D@std@@@std@@IAE@XZ 0048575c     msvcprt:MSVCP110.dll
 0005:00000760       __imp_?widen@?$basic_ios@DU?$char_traits@D@std@@@std@@QBEDD@Z 00485760     msvcprt:MSVCP110.dll
 0005:00000764       __imp_?fill@?$basic_ios@DU?$char_traits@D@std@@@std@@QBEDXZ 00485764     msvcprt:MSVCP110.dll
 0005:00000768       __imp_?rdbuf@?$basic_ios@DU?$char_traits@D@std@@@std@@QBEPAV?$basic_streambuf@DU?$char_traits@D@std@@@2@XZ 00485768     msvcprt:MSVCP110.dll
 0005:0000076c       __imp_?tie@?$basic_ios@DU?$char_traits@D@std@@@std@@QBEPAV?$basic_ostream@DU?$char_traits@D@std@@@2@XZ 0048576c     msvcprt:MSVCP110.dll
 0005:00000770       __imp_??0_Lockit@std@@QAE@H@Z 00485770     msvcprt:MSVCP110.dll
 0005:00000774       __imp_??1_Lockit@std@@QAE@XZ 00485774     msvcprt:MSVCP110.dll
 0005:00000778       __imp_?uncaught_exception@std@@YA_NXZ 00485778     msvcprt:MSVCP110.dll
 0005:0000077c       __imp_?_Orphan_all@_Container_base0@std@@QAEXXZ 0048577c     msvcprt:MSVCP110.dll
 0005:00000780       __imp_?_Swap_all@_Container_base0@std@@QAEXAAU12@@Z 00485780     msvcprt:MSVCP110.dll
 0005:00000784       __imp_?_Xbad_alloc@std@@YAXXZ 00485784     msvcprt:MSVCP110.dll
 0005:00000788       __imp_?_Xlength_error@std@@YAXPBD@Z 00485788     msvcprt:MSVCP110.dll
 0005:0000078c       __imp_?_Xout_of_range@std@@YAXPBD@Z 0048578c     msvcprt:MSVCP110.dll
 0005:00000790       __imp_??0id@locale@std@@QAE@I@Z 00485790     msvcprt:MSVCP110.dll
 0005:00000794       __imp_??Bid@locale@std@@QAEIXZ 00485794     msvcprt:MSVCP110.dll
 0005:00000798       __imp_?_Getgloballocale@locale@std@@CAPAV_Locimp@12@XZ 00485798     msvcprt:MSVCP110.dll
 0005:0000079c       __imp_?always_noconv@codecvt_base@std@@QBE_NXZ 0048579c     msvcprt:MSVCP110.dll
 0005:000007a0       __imp_?in@?$codecvt@DDH@std@@QBEHAAHPBD1AAPBDPAD3AAPAD@Z 004857a0     msvcprt:MSVCP110.dll
 0005:000007a4       __imp_?out@?$codecvt@DDH@std@@QBEHAAHPBD1AAPBDPAD3AAPAD@Z 004857a4     msvcprt:MSVCP110.dll
 0005:000007a8       __imp_?unshift@?$codecvt@DDH@std@@QBEHAAHPAD1AAPAD@Z 004857a8     msvcprt:MSVCP110.dll
 0005:000007ac       __imp_?_Getcat@?$codecvt@DDH@std@@SAIPAPBVfacet@locale@2@PBV42@@Z 004857ac     msvcprt:MSVCP110.dll
 0005:000007b0       __imp_?_Syserror_map@std@@YAPBDH@Z 004857b0     msvcprt:MSVCP110.dll
 0005:000007b4       __imp_?_Winerror_map@std@@YAPBDH@Z 004857b4     msvcprt:MSVCP110.dll
 0005:000007b8       __imp_??7ios_base@std@@QBE_NXZ 004857b8     msvcprt:MSVCP110.dll
 0005:000007bc       __imp_?good@ios_base@std@@QBE_NXZ 004857bc     msvcprt:MSVCP110.dll
 0005:000007c0       __imp_?eof@ios_base@std@@QBE_NXZ 004857c0     msvcprt:MSVCP110.dll
 0005:000007c4       __imp_?flags@ios_base@std@@QBEHXZ 004857c4     msvcprt:MSVCP110.dll
 0005:000007c8       __imp_?width@ios_base@std@@QBE_JXZ 004857c8     msvcprt:MSVCP110.dll
 0005:000007cc       __imp_?width@ios_base@std@@QAE_J_J@Z 004857cc     msvcprt:MSVCP110.dll
 0005:000007d0       __imp_??0?$basic_streambuf@DU?$char_traits@D@std@@@std@@IAE@XZ 004857d0     msvcprt:MSVCP110.dll
 0005:000007d4       __imp_??1?$basic_streambuf@DU?$char_traits@D@std@@@std@@UAE@XZ 004857d4     msvcprt:MSVCP110.dll
 0005:000007d8       __imp_?getloc@?$basic_streambuf@DU?$char_traits@D@std@@@std@@QBE?AVlocale@2@XZ 004857d8     msvcprt:MSVCP110.dll
 0005:000007dc       __imp_?sbumpc@?$basic_streambuf@DU?$char_traits@D@std@@@std@@QAEHXZ 004857dc     msvcprt:MSVCP110.dll
 0005:000007e0       __imp_?sgetc@?$basic_streambuf@DU?$char_traits@D@std@@@std@@QAEHXZ 004857e0     msvcprt:MSVCP110.dll
 0005:000007e4       __imp_?snextc@?$basic_streambuf@DU?$char_traits@D@std@@@std@@QAEHXZ 004857e4     msvcprt:MSVCP110.dll
 0005:000007e8       __imp_?sputc@?$basic_streambuf@DU?$char_traits@D@std@@@std@@QAEHD@Z 004857e8     msvcprt:MSVCP110.dll
 0005:000007ec       __imp_?sputn@?$basic_streambuf@DU?$char_traits@D@std@@@std@@QAE_JPBD_J@Z 004857ec     msvcprt:MSVCP110.dll
 0005:000007f0       __imp_?eback@?$basic_streambuf@DU?$char_traits@D@std@@@std@@IBEPADXZ 004857f0     msvcprt:MSVCP110.dll
 0005:000007f4       __imp_?gptr@?$basic_streambuf@DU?$char_traits@D@std@@@std@@IBEPADXZ 004857f4     msvcprt:MSVCP110.dll
 0005:000007f8       __imp_?pbase@?$basic_streambuf@DU?$char_traits@D@std@@@std@@IBEPADXZ 004857f8     msvcprt:MSVCP110.dll
 0005:000007fc       __imp_?pptr@?$basic_streambuf@DU?$char_traits@D@std@@@std@@IBEPADXZ 004857fc     msvcprt:MSVCP110.dll
 0005:00000800       __imp_?egptr@?$basic_streambuf@DU?$char_traits@D@std@@@std@@IBEPADXZ 00485800     msvcprt:MSVCP110.dll
 0005:00000804       __imp_?gbump@?$basic_streambuf@DU?$char_traits@D@std@@@std@@IAEXH@Z 00485804     msvcprt:MSVCP110.dll
 0005:00000808       __imp_?setg@?$basic_streambuf@DU?$char_traits@D@std@@@std@@IAEXPAD00@Z 00485808     msvcprt:MSVCP110.dll
 0005:0000080c       __imp_?epptr@?$basic_streambuf@DU?$char_traits@D@std@@@std@@IBEPADXZ 0048580c     msvcprt:MSVCP110.dll
 0005:00000810       __imp_?_Gndec@?$basic_streambuf@DU?$char_traits@D@std@@@std@@IAEPADXZ 00485810     msvcprt:MSVCP110.dll
 0005:00000814       __imp_?_Gninc@?$basic_streambuf@DU?$char_traits@D@std@@@std@@IAEPADXZ 00485814     msvcprt:MSVCP110.dll
 0005:00000818       __imp_?pbump@?$basic_streambuf@DU?$char_traits@D@std@@@std@@IAEXH@Z 00485818     msvcprt:MSVCP110.dll
 0005:0000081c       __imp_?setp@?$basic_streambuf@DU?$char_traits@D@std@@@std@@IAEXPAD0@Z 0048581c     msvcprt:MSVCP110.dll
 0005:00000820       __imp_?setp@?$basic_streambuf@DU?$char_traits@D@std@@@std@@IAEXPAD00@Z 00485820     msvcprt:MSVCP110.dll
 0005:00000824       __imp_?_Pninc@?$basic_streambuf@DU?$char_traits@D@std@@@std@@IAEPADXZ 00485824     msvcprt:MSVCP110.dll
 0005:00000828       __imp_?_Init@?$basic_streambuf@DU?$char_traits@D@std@@@std@@IAEXXZ 00485828     msvcprt:MSVCP110.dll
 0005:0000082c       __imp_?_Init@?$basic_streambuf@DU?$char_traits@D@std@@@std@@IAEXPAPAD0PAH001@Z 0048582c     msvcprt:MSVCP110.dll
 0005:00000830       __imp_??1?$basic_ios@DU?$char_traits@D@std@@@std@@UAE@XZ 00485830     msvcprt:MSVCP110.dll
 0005:00000834       __imp_?setstate@?$basic_ios@DU?$char_traits@D@std@@@std@@QAEXH_N@Z 00485834     msvcprt:MSVCP110.dll
 0005:00000838       \177MSVCP110_NULL_THUNK_DATA 00485838     msvcprt:MSVCP110.dll
 0005:000008ac       __imp___fseeki64           004858ac     MSVCRT:MSVCR110.dll
 0005:000008b0       __imp___initterm           004858b0     MSVCRT:MSVCR110.dll
 0005:000008b4       __imp___initterm_e         004858b4     MSVCRT:MSVCR110.dll
 0005:000008b8       __imp____setusermatherr    004858b8     MSVCRT:MSVCR110.dll
 0005:000008bc       __imp___configthreadlocale 004858bc     MSVCRT:MSVCR110.dll
 0005:000008c0       __imp___cexit              004858c0     MSVCRT:MSVCR110.dll
 0005:000008c4       __imp___exit               004858c4     MSVCRT:MSVCR110.dll
 0005:000008c8       __imp__exit                004858c8     MSVCRT:MSVCR110.dll
 0005:000008cc       __imp____set_app_type      004858cc     MSVCRT:MSVCR110.dll
 0005:000008d0       __imp___controlfp_s        004858d0     MSVCRT:MSVCR110.dll
 0005:000008d4       __imp___invoke_watson      004858d4     MSVCRT:MSVCR110.dll
 0005:000008d8       __imp____crtSetUnhandledExceptionFilter 004858d8     MSVCRT:MSVCR110.dll
 0005:000008dc       __imp_?terminate@@YAXXZ    004858dc     MSVCRT:MSVCR110.dll
 0005:000008e0       __imp___except_handler4_common 004858e0     MSVCRT:MSVCR110.dll
 0005:000008e4       __imp___commode            004858e4     MSVCRT:MSVCR110.dll
 0005:000008e8       __imp___fmode              004858e8     MSVCRT:MSVCR110.dll
 0005:000008ec       __imp____getmainargs       004858ec     MSVCRT:MSVCR110.dll
 0005:000008f0       __imp___amsg_exit          004858f0     MSVCRT:MSVCR110.dll
 0005:000008f4       __imp___XcptFilter         004858f4     MSVCRT:MSVCR110.dll
 0005:000008f8       __imp____crtTerminateProcess 004858f8     MSVCRT:MSVCR110.dll
 0005:000008fc       __imp____crtUnhandledException 004858fc     MSVCRT:MSVCR110.dll
 0005:00000900       __imp___crt_debugger_hook  00485900     MSVCRT:MSVCR110.dll
 0005:00000904       __imp_??1type_info@@UAE@XZ 00485904     MSVCRT:MSVCR110.dll
 0005:00000908       __imp___onexit             00485908     MSVCRT:MSVCR110.dll
 0005:0000090c       __imp____dllonexit         0048590c     MSVCRT:MSVCR110.dll
 0005:00000910       __imp___calloc_crt         00485910     MSVCRT:MSVCR110.dll
 0005:00000914       __imp___unlock             00485914     MSVCRT:MSVCR110.dll
 0005:00000918       __imp___lock               00485918     MSVCRT:MSVCR110.dll
 0005:0000091c       __imp___vsnprintf          0048591c     MSVCRT:MSVCR110.dll
 0005:00000920       __imp__tan                 00485920     MSVCRT:MSVCR110.dll
 0005:00000924       __imp__sin                 00485924     MSVCRT:MSVCR110.dll
 0005:00000928       __imp__cos                 00485928     MSVCRT:MSVCR110.dll
 0005:0000092c       __imp___lrotl              0048592c     MSVCRT:MSVCR110.dll
 0005:00000930       __imp__strtol              00485930     MSVCRT:MSVCR110.dll
 0005:00000934       __imp__strncmp             00485934     MSVCRT:MSVCR110.dll
 0005:00000938       __imp__strcmp              00485938     MSVCRT:MSVCR110.dll
 0005:0000093c       __imp__ldexp               0048593c     MSVCRT:MSVCR110.dll
 0005:00000940       __imp__pow                 00485940     MSVCRT:MSVCR110.dll
 0005:00000944       __imp__abs                 00485944     MSVCRT:MSVCR110.dll
 0005:00000948       __imp__ftell               00485948     MSVCRT:MSVCR110.dll
 0005:0000094c       __imp__fseek               0048594c     MSVCRT:MSVCR110.dll
 0005:00000950       __imp__fread               00485950     MSVCRT:MSVCR110.dll
 0005:00000954       __imp__fopen               00485954     MSVCRT:MSVCR110.dll
 0005:00000958       __imp___purecall           00485958     MSVCRT:MSVCR110.dll
 0005:0000095c       __imp_??2@YAPAXI@Z         0048595c     MSVCRT:MSVCR110.dll
 0005:00000960       __imp_??3@YAXPAX@Z         00485960     MSVCRT:MSVCR110.dll
 0005:00000964       __imp__atof                00485964     MSVCRT:MSVCR110.dll
 0005:00000968       __imp__atoi                00485968     MSVCRT:MSVCR110.dll
 0005:0000096c       __imp__calloc              0048596c     MSVCRT:MSVCR110.dll
 0005:00000970       __imp__free                00485970     MSVCRT:MSVCR110.dll
 0005:00000974       __imp__malloc              00485974     MSVCRT:MSVCR110.dll
 0005:00000978       __imp__realloc             00485978     MSVCRT:MSVCR110.dll
 0005:0000097c       __imp__fabs                0048597c     MSVCRT:MSVCR110.dll
 0005:00000980       __imp__sqrt                00485980     MSVCRT:MSVCR110.dll
 0005:00000984       __imp__floor               00485984     MSVCRT:MSVCR110.dll
 0005:00000988       __imp__memmove             00485988     MSVCRT:MSVCR110.dll
 0005:0000098c       __imp__memcpy              0048598c     MSVCRT:MSVCR110.dll
 0005:00000990       __imp__memcpy_s            00485990     MSVCRT:MSVCR110.dll
 0005:00000994       __imp__memcmp              00485994     MSVCRT:MSVCR110.dll
 0005:00000998       __imp__memset              00485998     MSVCRT:MSVCR110.dll
 0005:0000099c       __imp__strlen              0048599c     MSVCRT:MSVCR110.dll
 0005:000009a0       __imp__strtok              004859a0     MSVCRT:MSVCR110.dll
 0005:000009a4       __imp_??0exception@std@@QAE@ABQBDH@Z 004859a4     MSVCRT:MSVCR110.dll
 0005:000009a8       __imp_??0exception@std@@QAE@ABV01@@Z 004859a8     MSVCRT:MSVCR110.dll
 0005:000009ac       __imp_??1exception@std@@UAE@XZ 004859ac     MSVCRT:MSVCR110.dll
 0005:000009b0       __imp__fclose              004859b0     MSVCRT:MSVCR110.dll
 0005:000009b4       __imp__fflush              004859b4     MSVCRT:MSVCR110.dll
 0005:000009b8       __imp__fgetc               004859b8     MSVCRT:MSVCR110.dll
 0005:000009bc       __imp__fgetpos             004859bc     MSVCRT:MSVCR110.dll
 0005:000009c0       __imp__fputc               004859c0     MSVCRT:MSVCR110.dll
 0005:000009c4       __imp__fsetpos             004859c4     MSVCRT:MSVCR110.dll
 0005:000009c8       __imp__feof                004859c8     MSVCRT:MSVCR110.dll
 0005:000009cc       __imp__fwrite              004859cc     MSVCRT:MSVCR110.dll
 0005:000009d0       __imp__printf              004859d0     MSVCRT:MSVCR110.dll
 0005:000009d4       __imp__setvbuf             004859d4     MSVCRT:MSVCR110.dll
 0005:000009d8       __imp__ungetc              004859d8     MSVCRT:MSVCR110.dll
 0005:000009dc       __imp___lock_file          004859dc     MSVCRT:MSVCR110.dll
 0005:000009e0       __imp___unlock_file        004859e0     MSVCRT:MSVCR110.dll
 0005:000009e4       __imp___wassert            004859e4     MSVCRT:MSVCR110.dll
 0005:000009e8       __imp_??0bad_cast@std@@QAE@PBD@Z 004859e8     MSVCRT:MSVCR110.dll
 0005:000009ec       __imp_??0bad_cast@std@@QAE@ABV01@@Z 004859ec     MSVCRT:MSVCR110.dll
 0005:000009f0       __imp_??1bad_cast@std@@UAE@XZ 004859f0     MSVCRT:MSVCR110.dll
 0005:000009f4       __imp_?what@exception@std@@UBEPBDXZ 004859f4     MSVCRT:MSVCR110.dll
 0005:000009f8       __imp___CxxThrowException@8 004859f8     MSVCRT:MSVCR110.dll
 0005:000009fc       __imp____CxxFrameHandler3  004859fc     MSVCRT:MSVCR110.dll
 0005:00000a00       __imp__sprintf_s           00485a00     MSVCRT:MSVCR110.dll
 0005:00000a04       __imp_??_V@YAXPAX@Z        00485a04     MSVCRT:MSVCR110.dll
 0005:00000a08       __imp__ceil                00485a08     MSVCRT:MSVCR110.dll
 0005:00000a0c       __imp__memchr              00485a0c     MSVCRT:MSVCR110.dll
 0005:00000a10       __imp____initenv           00485a10     MSVCRT:MSVCR110.dll
 0005:00000a14       \177MSVCR110_NULL_THUNK_DATA 00485a14     MSVCRT:MSVCR110.dll
 0005:00000a88       __imp__glPolygonMode@8     00485a88     opengl32:OPENGL32.dll
 0005:00000a8c       __imp__glPopMatrix@0       00485a8c     opengl32:OPENGL32.dll
 0005:00000a90       __imp__glPushMatrix@0      00485a90     opengl32:OPENGL32.dll
 0005:00000a94       __imp__glReadPixels@28     00485a94     opengl32:OPENGL32.dll
 0005:00000a98       __imp__glShadeModel@4      00485a98     opengl32:OPENGL32.dll
 0005:00000a9c       __imp__glTranslatef@12     00485a9c     opengl32:OPENGL32.dll
 0005:00000aa0       __imp__glVertex3f@12       00485aa0     opengl32:OPENGL32.dll
 0005:00000aa4       __imp__glClear@4           00485aa4     opengl32:OPENGL32.dll
 0005:00000aa8       __imp__glClearDepth@8      00485aa8     opengl32:OPENGL32.dll
 0005:00000aac       __imp__glLightModelfv@8    00485aac     opengl32:OPENGL32.dll
 0005:00000ab0       __imp__glLightfv@12        00485ab0     opengl32:OPENGL32.dll
 0005:00000ab4       __imp__glLineWidth@4       00485ab4     opengl32:OPENGL32.dll
 0005:00000ab8       __imp__glLoadIdentity@0    00485ab8     opengl32:OPENGL32.dll
 0005:00000abc       __imp__glMaterialf@12      00485abc     opengl32:OPENGL32.dll
 0005:00000ac0       __imp__glMaterialfv@12     00485ac0     opengl32:OPENGL32.dll
 0005:00000ac4       __imp__glMatrixMode@4      00485ac4     opengl32:OPENGL32.dll
 0005:00000ac8       __imp__glOrtho@48          00485ac8     opengl32:OPENGL32.dll
 0005:00000acc       __imp__glPixelStorei@8     00485acc     opengl32:OPENGL32.dll
 0005:00000ad0       __imp__glPopAttrib@0       00485ad0     opengl32:OPENGL32.dll
 0005:00000ad4       __imp__glPushAttrib@4      00485ad4     opengl32:OPENGL32.dll
 0005:00000ad8       __imp__glRasterPos2i@8     00485ad8     opengl32:OPENGL32.dll
 0005:00000adc       __imp__glReadBuffer@4      00485adc     opengl32:OPENGL32.dll
 0005:00000ae0       __imp__glRotatef@16        00485ae0     opengl32:OPENGL32.dll
 0005:00000ae4       __imp__glVertex2f@8        00485ae4     opengl32:OPENGL32.dll
 0005:00000ae8       __imp__glVertex2i@8        00485ae8     opengl32:OPENGL32.dll
 0005:00000aec       __imp__glViewport@16       00485aec     opengl32:OPENGL32.dll
 0005:00000af0       __imp__glEnd@0             00485af0     opengl32:OPENGL32.dll
 0005:00000af4       __imp__glEnable@4          00485af4     opengl32:OPENGL32.dll
 0005:00000af8       __imp__glDisable@4         00485af8     opengl32:OPENGL32.dll
 0005:00000afc       __imp__glDepthFunc@4       00485afc     opengl32:OPENGL32.dll
 0005:00000b00       __imp__glColor4f@16        00485b00     opengl32:OPENGL32.dll
 0005:00000b04       __imp__glColor3f@12        00485b04     opengl32:OPENGL32.dll
 0005:00000b08       __imp__glClearColor@16     00485b08     opengl32:OPENGL32.dll
 0005:00000b0c       __imp__glBlendFunc@8       00485b0c     opengl32:OPENGL32.dll
 0005:00000b10       __imp__glBegin@4           00485b10     opengl32:OPENGL32.dll
 0005:00000b14       \177OPENGL32_NULL_THUNK_DATA 00485b14     opengl32:OPENGL32.dll
 0005:00000b5c       __imp__glutPostRedisplay@0 00485b5c     glut32:glut32.dll
 0005:00000b60       __imp__glutKeyboardFunc@4  00485b60     glut32:glut32.dll
 0005:00000b64       __imp__glutTimerFunc@12    00485b64     glut32:glut32.dll
 0005:00000b68       __imp__glutInit@8          00485b68     glut32:glut32.dll
 0005:00000b6c       __imp__glutInitDisplayMode@4 00485b6c     glut32:glut32.dll
 0005:00000b70       __imp__glutInitWindowSize@8 00485b70     glut32:glut32.dll
 0005:00000b74       __imp__glutMainLoop@0      00485b74     glut32:glut32.dll
 0005:00000b78       __imp__glutCreateWindow@4  00485b78     glut32:glut32.dll
 0005:00000b7c       __imp__glutSwapBuffers@0   00485b7c     glut32:glut32.dll
 0005:00000b80       __imp__glutDisplayFunc@4   00485b80     glut32:glut32.dll
 0005:00000b84       __imp__glutReshapeFunc@4   00485b84     glut32:glut32.dll
 0005:00000b88       __imp__glutMouseFunc@4     00485b88     glut32:glut32.dll
 0005:00000b8c       __imp__glutMotionFunc@4    00485b8c     glut32:glut32.dll
 0005:00000b90       __imp__glutGetModifiers@0  00485b90     glut32:glut32.dll
 0005:00000b94       __imp__glutBitmapCharacter@8 00485b94     glut32:glut32.dll
 0005:00000b98       __imp__glutBitmapLength@8  00485b98     glut32:glut32.dll
 0005:00000b9c       \177glut32_NULL_THUNK_DATA 00485b9c     glut32:glut32.dll

 entry point at        0002:000014d2

